
========================================================================

** ELF Header Information

    File Name: .\obj\Template.axf

    Machine class: ELFCLASS32 (32-bit)
    Data encoding: ELFDATA2LSB (Little endian)
    Header version: EV_CURRENT (Current version)
    Operating System ABI: none
    ABI Version: 0
    File Type: ET_EXEC (Executable) (2)
    Machine: EM_ARM (ARM)

    Image Entry point: 0x00000155
    Flags: EF_ARM_HASENTRY + EF_ARM_ABI_FLOAT_SOFT (0x05000202)

    ARM ELF revision: 5 (ABI version 2)

    Conforms to Soft float procedure-call standard

    Built with
    Component: Arm Compiler for Embedded 6.22 Tool: armasm [5ee90e00]
    Component: Arm Compiler for Embedded 6.22 Tool: armlink [5ee90200]

    Header size: 52 bytes (0x34)
    Program header entry size: 32 bytes (0x20)
    Section header entry size: 40 bytes (0x28)

    Program header entries: 1
    Section header entries: 15

    Program header offset: 84304 (0x00014950)
    Section header offset: 84336 (0x00014970)

    Section header string table index: 14

========================================================================

** Program header #0 (PT_LOAD) [PF_X + PF_W + PF_R + PF_ARM_ENTRY]
    Size : 14432 bytes (12832 bytes in file)
    Virtual address: 0x00000000 (Alignment 8)


========================================================================

** Section #1 'ER_RO' (SHT_PROGBITS) [SHF_ALLOC + SHF_EXECINSTR]
    Size   : 12808 bytes (alignment 4)
    Address: 0x00000000

    $d.realdata
    RESET
    __Vectors
        0x00000000:    20000658    X..     DCD    536872536
        0x00000004:    00000155    U...    DCD    341
        0x00000008:    00000181    ....    DCD    385
        0x0000000c:    00000183    ....    DCD    387
        0x00000010:    00000193    ....    DCD    403
        0x00000014:    00000195    ....    DCD    405
        0x00000018:    00000197    ....    DCD    407
        0x0000001c:    00000000    ....    DCD    0
        0x00000020:    00000000    ....    DCD    0
        0x00000024:    00000000    ....    DCD    0
        0x00000028:    00000000    ....    DCD    0
        0x0000002c:    00000199    ....    DCD    409
        0x00000030:    0000019b    ....    DCD    411
        0x00000034:    00000000    ....    DCD    0
        0x00000038:    0000019d    ....    DCD    413
        0x0000003c:    000015fd    ....    DCD    5629
        0x00000040:    000001a1    ....    DCD    417
        0x00000044:    000001a1    ....    DCD    417
        0x00000048:    000001a1    ....    DCD    417
        0x0000004c:    000001a1    ....    DCD    417
        0x00000050:    000001a1    ....    DCD    417
        0x00000054:    000001a1    ....    DCD    417
        0x00000058:    000001a1    ....    DCD    417
        0x0000005c:    000001a1    ....    DCD    417
        0x00000060:    000001a1    ....    DCD    417
        0x00000064:    000001a1    ....    DCD    417
        0x00000068:    000001a1    ....    DCD    417
        0x0000006c:    000001a1    ....    DCD    417
        0x00000070:    000001a1    ....    DCD    417
        0x00000074:    000001a1    ....    DCD    417
        0x00000078:    000001a1    ....    DCD    417
        0x0000007c:    000001a1    ....    DCD    417
        0x00000080:    000001a1    ....    DCD    417
        0x00000084:    000001a1    ....    DCD    417
        0x00000088:    000001a1    ....    DCD    417
        0x0000008c:    000001a1    ....    DCD    417
        0x00000090:    000001a1    ....    DCD    417
        0x00000094:    000001a1    ....    DCD    417
        0x00000098:    000001a1    ....    DCD    417
        0x0000009c:    000001a1    ....    DCD    417
        0x000000a0:    000001a1    ....    DCD    417
        0x000000a4:    000001a1    ....    DCD    417
        0x000000a8:    000001a1    ....    DCD    417
        0x000000ac:    000001a1    ....    DCD    417
        0x000000b0:    000001a1    ....    DCD    417
        0x000000b4:    000001a1    ....    DCD    417
        0x000000b8:    000001a1    ....    DCD    417
        0x000000bc:    000001a1    ....    DCD    417
        0x000000c0:    000001a1    ....    DCD    417
        0x000000c4:    00001859    Y...    DCD    6233
        0x000000c8:    000001a1    ....    DCD    417
        0x000000cc:    000001a1    ....    DCD    417
        0x000000d0:    00001cc9    ....    DCD    7369
        0x000000d4:    000001a1    ....    DCD    417
        0x000000d8:    000001a1    ....    DCD    417
        0x000000dc:    000001a1    ....    DCD    417
        0x000000e0:    000001a1    ....    DCD    417
        0x000000e4:    000001a1    ....    DCD    417
        0x000000e8:    000001a1    ....    DCD    417
        0x000000ec:    000001a1    ....    DCD    417
        0x000000f0:    000001a1    ....    DCD    417
        0x000000f4:    000001a1    ....    DCD    417
        0x000000f8:    000001a1    ....    DCD    417
        0x000000fc:    000001a1    ....    DCD    417
        0x00000100:    000001a1    ....    DCD    417
        0x00000104:    000001a1    ....    DCD    417
        0x00000108:    000001a1    ....    DCD    417
        0x0000010c:    000001a1    ....    DCD    417
        0x00000110:    000001a1    ....    DCD    417
        0x00000114:    000001a1    ....    DCD    417
        0x00000118:    000001a1    ....    DCD    417
        0x0000011c:    000001a1    ....    DCD    417
        0x00000120:    000001a1    ....    DCD    417
        0x00000124:    000001a1    ....    DCD    417
        0x00000128:    000001a1    ....    DCD    417
        0x0000012c:    000001a1    ....    DCD    417
        0x00000130:    000001a1    ....    DCD    417
        0x00000134:    000001a1    ....    DCD    417
        0x00000138:    000001a1    ....    DCD    417
        0x0000013c:    000001a1    ....    DCD    417
    $t
    .ARM.Collect$$$$00000000
    .ARM.Collect$$$$00000001
    __Vectors_End
    __main
    _main_stk
        0x00000140:    4803        .H      LDR      r0,__lit__00000000 ; [0x150] = 0x20000658
        0x00000142:    4685        .F      MOV      sp,r0
    .ARM.Collect$$$$00000004
    _main_scatterload
        0x00000144:    f000fa3a    ..:.    BL       __scatterload ; 0x5bc
    .ARM.Collect$$$$00000008
    .ARM.Collect$$$$0000000A
    .ARM.Collect$$$$0000000B
    __main_after_scatterload
    _main_clock
    _main_cpp_init
    _main_init
        0x00000148:    4800        .H      LDR      r0,[pc,#0] ; [0x14c] = 0x24d5
        0x0000014a:    4700        .G      BX       r0
    $d
        0x0000014c:    000024d5    .$..    DCD    9429
    .ARM.Collect$$$$00002712
    __lit__00000000
    .ARM.Collect$$$$0000000D
    .ARM.Collect$$$$0000000F
    __rt_final_cpp
    __rt_final_exit
        0x00000150:    20000658    X..     DCD    536872536
    $t
    .text
    Reset_Handler
        0x00000154:    4817        .H      LDR      r0,[pc,#92] ; [0x1b4] = 0x40000100
        0x00000156:    f2400159    @.Y.    MOVW     r1,#0x59
        0x0000015a:    6001        .`      STR      r1,[r0,#0]
        0x0000015c:    f2400116    @...    MOVW     r1,#0x16
        0x00000160:    6001        .`      STR      r1,[r0,#0]
        0x00000162:    f2400188    @...    MOVW     r1,#0x88
        0x00000166:    6001        .`      STR      r1,[r0,#0]
        0x00000168:    4a13        .J      LDR      r2,[pc,#76] ; [0x1b8] = 0x40000024
        0x0000016a:    f64521a5    E..!    MOV      r1,#0x5aa5
        0x0000016e:    6011        .`      STR      r1,[r2,#0]
        0x00000170:    4a12        .J      LDR      r2,[pc,#72] ; [0x1bc] = 0x400001ec
        0x00000172:    6011        .`      STR      r1,[r2,#0]
        0x00000174:    2100        .!      MOVS     r1,#0
        0x00000176:    6001        .`      STR      r1,[r0,#0]
        0x00000178:    4811        .H      LDR      r0,[pc,#68] ; [0x1c0] = 0x1695
        0x0000017a:    4780        .G      BLX      r0
        0x0000017c:    4811        .H      LDR      r0,[pc,#68] ; [0x1c4] = 0x141
        0x0000017e:    4700        .G      BX       r0
    NMI_Handler
        0x00000180:    e7fe        ..      B        NMI_Handler ; 0x180
    HardFault_Handler
        0x00000182:    4670        pF      MOV      r0,lr
        0x00000184:    f3ef8108    ....    MRS      r1,MSP
        0x00000188:    f3ef8209    ....    MRS      r2,PSP
        0x0000018c:    4b0e        .K      LDR      r3,[pc,#56] ; [0x1c8] = 0x1185
        0x0000018e:    4798        .G      BLX      r3
        0x00000190:    4700        .G      BX       r0
    MemManage_Handler
        0x00000192:    e7fe        ..      B        MemManage_Handler ; 0x192
    BusFault_Handler
        0x00000194:    e7fe        ..      B        BusFault_Handler ; 0x194
    UsageFault_Handler
        0x00000196:    e7fe        ..      B        UsageFault_Handler ; 0x196
    SVC_Handler
        0x00000198:    e7fe        ..      B        SVC_Handler ; 0x198
    DebugMon_Handler
        0x0000019a:    e7fe        ..      B        DebugMon_Handler ; 0x19a
    PendSV_Handler
        0x0000019c:    e7fe        ..      B        PendSV_Handler ; 0x19c
        0x0000019e:    e7fe        ..      B        0x19e ; PendSV_Handler + 2
    Default_Handler
    ADC_IRQHandler
    BOD_IRQHandler
    ECAP0_IRQHandler
    EINT0_IRQHandler
    EINT1_IRQHandler
    EINT2_IRQHandler
    EINT3_IRQHandler
    EINT5_IRQHandler
    GPB_IRQHandler
    GPC_IRQHandler
    GPE_IRQHandler
    GPF_IRQHandler
    I2C0_IRQHandler
    ISP_IRQHandler
    PWM0_IRQHandler
    PWRWU_IRQHandler
    TMR0_IRQHandler
    TMR2_IRQHandler
    TMR3_IRQHandler
    UART1_IRQHandler
    USCI0_IRQHandler
    WDT_IRQHandler
    WWDT_IRQHandler
        0x000001a0:    e7fe        ..      B        Default_Handler ; 0x1a0
    $d
        0x000001a2:    0000        ..      DCW    0
    $t
    SH_DoCommand
        0x000001a4:    beab        ..      BKPT     #0xab
        0x000001a6:    4b09        .K      LDR      r3,[pc,#36] ; [0x1cc] = 0x123d
        0x000001a8:    b508        ..      PUSH     {r3,lr}
        0x000001aa:    4798        .G      BLX      r3
        0x000001ac:    bd08        ..      POP      {r3,pc}
    __PC
        0x000001ae:    4670        pF      MOV      r0,lr
        0x000001b0:    47f0        .G      BLX      lr
    $d
        0x000001b2:    0000        ..      DCW    0
        0x000001b4:    40000100    ...@    DCD    1073742080
        0x000001b8:    40000024    $..@    DCD    1073741860
        0x000001bc:    400001ec    ...@    DCD    1073742316
        0x000001c0:    00001695    ....    DCD    5781
        0x000001c4:    00000141    A...    DCD    321
        0x000001c8:    00001185    ....    DCD    4485
        0x000001cc:    0000123d    =...    DCD    4669
    $t
    .text
    __aeabi_uldivmod
        0x000001d0:    b5f0        ..      PUSH     {r4-r7,lr}
        0x000001d2:    b41f        ..      PUSH     {r0-r4}
        0x000001d4:    4606        .F      MOV      r6,r0
        0x000001d6:    2000        .       MOVS     r0,#0
        0x000001d8:    b082        ..      SUB      sp,sp,#8
        0x000001da:    4605        .F      MOV      r5,r0
        0x000001dc:    2440        @$      MOVS     r4,#0x40
        0x000001de:    9101        ..      STR      r1,[sp,#4]
        0x000001e0:    9000        ..      STR      r0,[sp,#0]
        0x000001e2:    e01b        ..      B        0x21c ; __aeabi_uldivmod + 76
        0x000001e4:    9901        ..      LDR      r1,[sp,#4]
        0x000001e6:    4622        "F      MOV      r2,r4
        0x000001e8:    460f        .F      MOV      r7,r1
        0x000001ea:    4630        0F      MOV      r0,r6
        0x000001ec:    f000fa2d    ..-.    BL       __aeabi_llsr ; 0x64a
        0x000001f0:    9a04        ..      LDR      r2,[sp,#0x10]
        0x000001f2:    9b05        ..      LDR      r3,[sp,#0x14]
        0x000001f4:    1a80        ..      SUBS     r0,r0,r2
        0x000001f6:    4199        .A      SBCS     r1,r1,r3
        0x000001f8:    d310        ..      BCC      0x21c ; __aeabi_uldivmod + 76
        0x000001fa:    4610        .F      MOV      r0,r2
        0x000001fc:    4619        .F      MOV      r1,r3
        0x000001fe:    4622        "F      MOV      r2,r4
        0x00000200:    f000fa13    ....    BL       __aeabi_llsl ; 0x62a
        0x00000204:    1a36        6.      SUBS     r6,r6,r0
        0x00000206:    418f        .A      SBCS     r7,r7,r1
        0x00000208:    9701        ..      STR      r7,[sp,#4]
        0x0000020a:    4622        "F      MOV      r2,r4
        0x0000020c:    2001        .       MOVS     r0,#1
        0x0000020e:    2100        .!      MOVS     r1,#0
        0x00000210:    9f00        ..      LDR      r7,[sp,#0]
        0x00000212:    f000fa0a    ....    BL       __aeabi_llsl ; 0x62a
        0x00000216:    1838        8.      ADDS     r0,r7,r0
        0x00000218:    414d        MA      ADCS     r5,r5,r1
        0x0000021a:    9000        ..      STR      r0,[sp,#0]
        0x0000021c:    4620         F      MOV      r0,r4
        0x0000021e:    1e64        d.      SUBS     r4,r4,#1
        0x00000220:    2800        .(      CMP      r0,#0
        0x00000222:    dcdf        ..      BGT      0x1e4 ; __aeabi_uldivmod + 20
        0x00000224:    9b01        ..      LDR      r3,[sp,#4]
        0x00000226:    9800        ..      LDR      r0,[sp,#0]
        0x00000228:    4629        )F      MOV      r1,r5
        0x0000022a:    4632        2F      MOV      r2,r6
        0x0000022c:    b007        ..      ADD      sp,sp,#0x1c
        0x0000022e:    bdf0        ..      POP      {r4-r7,pc}
    .text
    .text
    __I$use$fp
    __aeabi_dadd
        0x00000230:    b5f0        ..      PUSH     {r4-r7,lr}
        0x00000232:    4607        .F      MOV      r7,r0
        0x00000234:    4608        .F      MOV      r0,r1
        0x00000236:    4058        X@      EORS     r0,r0,r3
        0x00000238:    b087        ..      SUB      sp,sp,#0x1c
        0x0000023a:    0fc0        ..      LSRS     r0,r0,#31
        0x0000023c:    9004        ..      STR      r0,[sp,#0x10]
        0x0000023e:    0048        H.      LSLS     r0,r1,#1
        0x00000240:    460e        .F      MOV      r6,r1
        0x00000242:    0059        Y.      LSLS     r1,r3,#1
        0x00000244:    0840        @.      LSRS     r0,r0,#1
        0x00000246:    0849        I.      LSRS     r1,r1,#1
        0x00000248:    1abc        ..      SUBS     r4,r7,r2
        0x0000024a:    4188        .A      SBCS     r0,r0,r1
        0x0000024c:    d205        ..      BCS      0x25a ; __I$use$fp + 42
        0x0000024e:    4638        8F      MOV      r0,r7
        0x00000250:    4631        1F      MOV      r1,r6
        0x00000252:    461e        .F      MOV      r6,r3
        0x00000254:    4617        .F      MOV      r7,r2
        0x00000256:    460b        .F      MOV      r3,r1
        0x00000258:    4602        .F      MOV      r2,r0
        0x0000025a:    0058        X.      LSLS     r0,r3,#1
        0x0000025c:    0840        @.      LSRS     r0,r0,#1
        0x0000025e:    4310        .C      ORRS     r0,r0,r2
        0x00000260:    d04c        L.      BEQ      0x2fc ; __I$use$fp + 204
        0x00000262:    0d30        0.      LSRS     r0,r6,#20
        0x00000264:    9003        ..      STR      r0,[sp,#0xc]
        0x00000266:    0540        @.      LSLS     r0,r0,#21
        0x00000268:    0059        Y.      LSLS     r1,r3,#1
        0x0000026a:    0d40        @.      LSRS     r0,r0,#21
        0x0000026c:    0d49        I.      LSRS     r1,r1,#21
        0x0000026e:    9005        ..      STR      r0,[sp,#0x14]
        0x00000270:    1a40        @.      SUBS     r0,r0,r1
        0x00000272:    9002        ..      STR      r0,[sp,#8]
        0x00000274:    2840        @(      CMP      r0,#0x40
        0x00000276:    da72        r.      BGE      0x35e ; __I$use$fp + 302
        0x00000278:    0318        ..      LSLS     r0,r3,#12
        0x0000027a:    2101        .!      MOVS     r1,#1
        0x0000027c:    0b00        ..      LSRS     r0,r0,#12
        0x0000027e:    0509        ..      LSLS     r1,r1,#20
        0x00000280:    4308        .C      ORRS     r0,r0,r1
        0x00000282:    9001        ..      STR      r0,[sp,#4]
        0x00000284:    9804        ..      LDR      r0,[sp,#0x10]
        0x00000286:    9200        ..      STR      r2,[sp,#0]
        0x00000288:    2800        .(      CMP      r0,#0
        0x0000028a:    d005        ..      BEQ      0x298 ; __I$use$fp + 104
        0x0000028c:    9901        ..      LDR      r1,[sp,#4]
        0x0000028e:    4252        RB      RSBS     r2,r2,#0
        0x00000290:    2000        .       MOVS     r0,#0
        0x00000292:    4188        .A      SBCS     r0,r0,r1
        0x00000294:    9200        ..      STR      r2,[sp,#0]
        0x00000296:    9001        ..      STR      r0,[sp,#4]
        0x00000298:    9802        ..      LDR      r0,[sp,#8]
        0x0000029a:    2140        @!      MOVS     r1,#0x40
        0x0000029c:    1a0a        ..      SUBS     r2,r1,r0
        0x0000029e:    9901        ..      LDR      r1,[sp,#4]
        0x000002a0:    9800        ..      LDR      r0,[sp,#0]
        0x000002a2:    f000f9c2    ....    BL       __aeabi_llsl ; 0x62a
        0x000002a6:    4605        .F      MOV      r5,r0
        0x000002a8:    460c        .F      MOV      r4,r1
        0x000002aa:    466b        kF      MOV      r3,sp
        0x000002ac:    cb07        ..      LDM      r3!,{r0-r2}
        0x000002ae:    f000f9dd    ....    BL       __aeabi_lasr ; 0x66c
        0x000002b2:    19c0        ..      ADDS     r0,r0,r7
        0x000002b4:    4171        qA      ADCS     r1,r1,r6
        0x000002b6:    9a03        ..      LDR      r2,[sp,#0xc]
        0x000002b8:    0d0e        ..      LSRS     r6,r1,#20
        0x000002ba:    2300        .#      MOVS     r3,#0
        0x000002bc:    17d7        ..      ASRS     r7,r2,#31
        0x000002be:    4056        V@      EORS     r6,r6,r2
        0x000002c0:    461a        .F      MOV      r2,r3
        0x000002c2:    407a        z@      EORS     r2,r2,r7
        0x000002c4:    4316        .C      ORRS     r6,r6,r2
        0x000002c6:    d044        D.      BEQ      0x352 ; __I$use$fp + 290
        0x000002c8:    9a04        ..      LDR      r2,[sp,#0x10]
        0x000002ca:    2a00        .*      CMP      r2,#0
        0x000002cc:    d02d        -.      BEQ      0x32a ; __I$use$fp + 250
        0x000002ce:    9a02        ..      LDR      r2,[sp,#8]
        0x000002d0:    2a01        .*      CMP      r2,#1
        0x000002d2:    9a03        ..      LDR      r2,[sp,#0xc]
        0x000002d4:    dc15        ..      BGT      0x302 ; __I$use$fp + 210
        0x000002d6:    0512        ..      LSLS     r2,r2,#20
        0x000002d8:    1ac0        ..      SUBS     r0,r0,r3
        0x000002da:    4191        .A      SBCS     r1,r1,r2
        0x000002dc:    2601        .&      MOVS     r6,#1
        0x000002de:    0536        6.      LSLS     r6,r6,#20
        0x000002e0:    1c00        ..      ADDS     r0,r0,#0
        0x000002e2:    4171        qA      ADCS     r1,r1,r6
        0x000002e4:    0fd2        ..      LSRS     r2,r2,#31
        0x000002e6:    9e05        ..      LDR      r6,[sp,#0x14]
        0x000002e8:    07d2        ..      LSLS     r2,r2,#31
        0x000002ea:    9300        ..      STR      r3,[sp,#0]
        0x000002ec:    9201        ..      STR      r2,[sp,#4]
        0x000002ee:    9602        ..      STR      r6,[sp,#8]
        0x000002f0:    462a        *F      MOV      r2,r5
        0x000002f2:    4623        #F      MOV      r3,r4
        0x000002f4:    f000f9da    ....    BL       _double_epilogue ; 0x6ac
        0x000002f8:    b007        ..      ADD      sp,sp,#0x1c
        0x000002fa:    bdf0        ..      POP      {r4-r7,pc}
        0x000002fc:    4638        8F      MOV      r0,r7
        0x000002fe:    4631        1F      MOV      r1,r6
        0x00000300:    e7fa        ..      B        0x2f8 ; __I$use$fp + 200
        0x00000302:    0516        ..      LSLS     r6,r2,#20
        0x00000304:    4a22        "J      LDR      r2,[pc,#136] ; [0x390] = 0xffe00000
        0x00000306:    460f        .F      MOV      r7,r1
        0x00000308:    18b2        ..      ADDS     r2,r6,r2
        0x0000030a:    1ac0        ..      SUBS     r0,r0,r3
        0x0000030c:    41b7        .A      SBCS     r7,r7,r6
        0x0000030e:    2101        .!      MOVS     r1,#1
        0x00000310:    0509        ..      LSLS     r1,r1,#20
        0x00000312:    1c00        ..      ADDS     r0,r0,#0
        0x00000314:    414f        OA      ADCS     r7,r7,r1
        0x00000316:    1800        ..      ADDS     r0,r0,r0
        0x00000318:    417f        .A      ADCS     r7,r7,r7
        0x0000031a:    4611        .F      MOV      r1,r2
        0x0000031c:    1818        ..      ADDS     r0,r3,r0
        0x0000031e:    4179        yA      ADCS     r1,r1,r7
        0x00000320:    0fe2        ..      LSRS     r2,r4,#31
        0x00000322:    4310        .C      ORRS     r0,r0,r2
        0x00000324:    196d        m.      ADDS     r5,r5,r5
        0x00000326:    4164        dA      ADCS     r4,r4,r4
        0x00000328:    e013        ..      B        0x352 ; __I$use$fp + 290
        0x0000032a:    07e2        ..      LSLS     r2,r4,#31
        0x0000032c:    086d        m.      LSRS     r5,r5,#1
        0x0000032e:    4315        .C      ORRS     r5,r5,r2
        0x00000330:    0864        d.      LSRS     r4,r4,#1
        0x00000332:    07c2        ..      LSLS     r2,r0,#31
        0x00000334:    4314        .C      ORRS     r4,r4,r2
        0x00000336:    9a03        ..      LDR      r2,[sp,#0xc]
        0x00000338:    2601        .&      MOVS     r6,#1
        0x0000033a:    0512        ..      LSLS     r2,r2,#20
        0x0000033c:    1ac0        ..      SUBS     r0,r0,r3
        0x0000033e:    4191        .A      SBCS     r1,r1,r2
        0x00000340:    0536        6.      LSLS     r6,r6,#20
        0x00000342:    1c00        ..      ADDS     r0,r0,#0
        0x00000344:    4171        qA      ADCS     r1,r1,r6
        0x00000346:    07ce        ..      LSLS     r6,r1,#31
        0x00000348:    0840        @.      LSRS     r0,r0,#1
        0x0000034a:    4330        0C      ORRS     r0,r0,r6
        0x0000034c:    0849        I.      LSRS     r1,r1,#1
        0x0000034e:    18c0        ..      ADDS     r0,r0,r3
        0x00000350:    4151        QA      ADCS     r1,r1,r2
        0x00000352:    462a        *F      MOV      r2,r5
        0x00000354:    4623        #F      MOV      r3,r4
        0x00000356:    f000f99c    ....    BL       _double_round ; 0x692
        0x0000035a:    e7cd        ..      B        0x2f8 ; __I$use$fp + 200
        0x0000035c:    e7ff        ..      B        0x35e ; __I$use$fp + 302
        0x0000035e:    9804        ..      LDR      r0,[sp,#0x10]
        0x00000360:    2201        ."      MOVS     r2,#1
        0x00000362:    0040        @.      LSLS     r0,r0,#1
        0x00000364:    17c1        ..      ASRS     r1,r0,#31
        0x00000366:    1a12        ..      SUBS     r2,r2,r0
        0x00000368:    2300        .#      MOVS     r3,#0
        0x0000036a:    418b        .A      SBCS     r3,r3,r1
        0x0000036c:    9804        ..      LDR      r0,[sp,#0x10]
        0x0000036e:    4631        1F      MOV      r1,r6
        0x00000370:    17c4        ..      ASRS     r4,r0,#31
        0x00000372:    1a38        8.      SUBS     r0,r7,r0
        0x00000374:    41a1        .A      SBCS     r1,r1,r4
        0x00000376:    e7ee        ..      B        0x356 ; __I$use$fp + 294
    __aeabi_dsub
        0x00000378:    b430        0.      PUSH     {r4,r5}
        0x0000037a:    2401        .$      MOVS     r4,#1
        0x0000037c:    07e4        ..      LSLS     r4,r4,#31
        0x0000037e:    4063        c@      EORS     r3,r3,r4
        0x00000380:    bc30        0.      POP      {r4,r5}
        0x00000382:    e755        U.      B        __I$use$fp ; 0x230
    __aeabi_drsub
        0x00000384:    b430        0.      PUSH     {r4,r5}
        0x00000386:    2401        .$      MOVS     r4,#1
        0x00000388:    07e4        ..      LSLS     r4,r4,#31
        0x0000038a:    4061        a@      EORS     r1,r1,r4
        0x0000038c:    bc30        0.      POP      {r4,r5}
        0x0000038e:    e74f        O.      B        __I$use$fp ; 0x230
    $d
        0x00000390:    ffe00000    ....    DCD    4292870144
    $t
    .text
    __aeabi_dmul
        0x00000394:    b5f0        ..      PUSH     {r4-r7,lr}
        0x00000396:    b41f        ..      PUSH     {r0-r4}
        0x00000398:    b088        ..      SUB      sp,sp,#0x20
        0x0000039a:    990b        ..      LDR      r1,[sp,#0x2c]
        0x0000039c:    9809        ..      LDR      r0,[sp,#0x24]
        0x0000039e:    2400        .$      MOVS     r4,#0
        0x000003a0:    4048        H@      EORS     r0,r0,r1
        0x000003a2:    9909        ..      LDR      r1,[sp,#0x24]
        0x000003a4:    0fc0        ..      LSRS     r0,r0,#31
        0x000003a6:    0049        I.      LSLS     r1,r1,#1
        0x000003a8:    0849        I.      LSRS     r1,r1,#1
        0x000003aa:    9109        ..      STR      r1,[sp,#0x24]
        0x000003ac:    07c0        ..      LSLS     r0,r0,#31
        0x000003ae:    990b        ..      LDR      r1,[sp,#0x2c]
        0x000003b0:    9000        ..      STR      r0,[sp,#0]
        0x000003b2:    0049        I.      LSLS     r1,r1,#1
        0x000003b4:    0849        I.      LSRS     r1,r1,#1
        0x000003b6:    910b        ..      STR      r1,[sp,#0x2c]
        0x000003b8:    9909        ..      LDR      r1,[sp,#0x24]
        0x000003ba:    9808        ..      LDR      r0,[sp,#0x20]
        0x000003bc:    46a6        .F      MOV      lr,r4
        0x000003be:    4308        .C      ORRS     r0,r0,r1
        0x000003c0:    d01c        ..      BEQ      0x3fc ; __aeabi_dmul + 104
        0x000003c2:    990b        ..      LDR      r1,[sp,#0x2c]
        0x000003c4:    980a        ..      LDR      r0,[sp,#0x28]
        0x000003c6:    4308        .C      ORRS     r0,r0,r1
        0x000003c8:    d018        ..      BEQ      0x3fc ; __aeabi_dmul + 104
        0x000003ca:    9809        ..      LDR      r0,[sp,#0x24]
        0x000003cc:    2401        .$      MOVS     r4,#1
        0x000003ce:    0040        @.      LSLS     r0,r0,#1
        0x000003d0:    0d42        B.      LSRS     r2,r0,#21
        0x000003d2:    0048        H.      LSLS     r0,r1,#1
        0x000003d4:    0d41        A.      LSRS     r1,r0,#21
        0x000003d6:    9809        ..      LDR      r0,[sp,#0x24]
        0x000003d8:    0524        $.      LSLS     r4,r4,#20
        0x000003da:    0300        ..      LSLS     r0,r0,#12
        0x000003dc:    0b00        ..      LSRS     r0,r0,#12
        0x000003de:    4320         C      ORRS     r0,r0,r4
        0x000003e0:    9009        ..      STR      r0,[sp,#0x24]
        0x000003e2:    980b        ..      LDR      r0,[sp,#0x2c]
        0x000003e4:    0300        ..      LSLS     r0,r0,#12
        0x000003e6:    0b00        ..      LSRS     r0,r0,#12
        0x000003e8:    4320         C      ORRS     r0,r0,r4
        0x000003ea:    900b        ..      STR      r0,[sp,#0x2c]
        0x000003ec:    1850        P.      ADDS     r0,r2,r1
        0x000003ee:    491c        .I      LDR      r1,[pc,#112] ; [0x460] = 0xfffffc0d
        0x000003f0:    1840        @.      ADDS     r0,r0,r1
        0x000003f2:    2200        ."      MOVS     r2,#0
        0x000003f4:    9001        ..      STR      r0,[sp,#4]
        0x000003f6:    4614        .F      MOV      r4,r2
        0x000003f8:    4610        .F      MOV      r0,r2
        0x000003fa:    e005        ..      B        0x408 ; __aeabi_dmul + 116
        0x000003fc:    2000        .       MOVS     r0,#0
        0x000003fe:    4601        .F      MOV      r1,r0
        0x00000400:    b00d        ..      ADD      sp,sp,#0x34
        0x00000402:    bdf0        ..      POP      {r4-r7,pc}
        0x00000404:    2803        .(      CMP      r0,#3
        0x00000406:    da01        ..      BGE      0x40c ; __aeabi_dmul + 120
        0x00000408:    4603        .F      MOV      r3,r0
        0x0000040a:    e000        ..      B        0x40e ; __aeabi_dmul + 122
        0x0000040c:    2303        .#      MOVS     r3,#3
        0x0000040e:    469c        .F      MOV      r12,r3
        0x00000410:    1ac1        ..      SUBS     r1,r0,r3
        0x00000412:    ae0a        ..      ADD      r6,sp,#0x28
        0x00000414:    e00a        ..      B        0x42c ; __aeabi_dmul + 152
        0x00000416:    005f        _.      LSLS     r7,r3,#1
        0x00000418:    ad08        ..      ADD      r5,sp,#0x20
        0x0000041a:    5bed        .[      LDRH     r5,[r5,r7]
        0x0000041c:    004f        O.      LSLS     r7,r1,#1
        0x0000041e:    5bf7        .[      LDRH     r7,[r6,r7]
        0x00000420:    437d        }C      MULS     r5,r7,r5
        0x00000422:    2700        .'      MOVS     r7,#0
        0x00000424:    18aa        ..      ADDS     r2,r5,r2
        0x00000426:    417c        |A      ADCS     r4,r4,r7
        0x00000428:    1c49        I.      ADDS     r1,r1,#1
        0x0000042a:    1e5b        [.      SUBS     r3,r3,#1
        0x0000042c:    4561        aE      CMP      r1,r12
        0x0000042e:    ddf2        ..      BLE      0x416 ; __aeabi_dmul + 130
        0x00000430:    0041        A.      LSLS     r1,r0,#1
        0x00000432:    ab04        ..      ADD      r3,sp,#0x10
        0x00000434:    525a        ZR      STRH     r2,[r3,r1]
        0x00000436:    0421        !.      LSLS     r1,r4,#16
        0x00000438:    0c12        ..      LSRS     r2,r2,#16
        0x0000043a:    430a        .C      ORRS     r2,r2,r1
        0x0000043c:    0c24        $.      LSRS     r4,r4,#16
        0x0000043e:    1c40        @.      ADDS     r0,r0,#1
        0x00000440:    2808        .(      CMP      r0,#8
        0x00000442:    dbdf        ..      BLT      0x404 ; __aeabi_dmul + 112
        0x00000444:    9801        ..      LDR      r0,[sp,#4]
        0x00000446:    9002        ..      STR      r0,[sp,#8]
        0x00000448:    9900        ..      LDR      r1,[sp,#0]
        0x0000044a:    4670        pF      MOV      r0,lr
        0x0000044c:    9101        ..      STR      r1,[sp,#4]
        0x0000044e:    9000        ..      STR      r0,[sp,#0]
        0x00000450:    9b05        ..      LDR      r3,[sp,#0x14]
        0x00000452:    9a04        ..      LDR      r2,[sp,#0x10]
        0x00000454:    9907        ..      LDR      r1,[sp,#0x1c]
        0x00000456:    9806        ..      LDR      r0,[sp,#0x18]
        0x00000458:    f000f928    ..(.    BL       _double_epilogue ; 0x6ac
        0x0000045c:    e7d0        ..      B        0x400 ; __aeabi_dmul + 108
    $d
        0x0000045e:    0000        ..      DCW    0
        0x00000460:    fffffc0d    ....    DCD    4294966285
    $t
    .text
    __aeabi_ddiv
        0x00000464:    b5f0        ..      PUSH     {r4-r7,lr}
        0x00000466:    460c        .F      MOV      r4,r1
        0x00000468:    405c        \@      EORS     r4,r4,r3
        0x0000046a:    b085        ..      SUB      sp,sp,#0x14
        0x0000046c:    0fe4        ..      LSRS     r4,r4,#31
        0x0000046e:    07e4        ..      LSLS     r4,r4,#31
        0x00000470:    9403        ..      STR      r4,[sp,#0xc]
        0x00000472:    004c        L.      LSLS     r4,r1,#1
        0x00000474:    2600        .&      MOVS     r6,#0
        0x00000476:    0864        d.      LSRS     r4,r4,#1
        0x00000478:    0059        Y.      LSLS     r1,r3,#1
        0x0000047a:    4694        .F      MOV      r12,r2
        0x0000047c:    0849        I.      LSRS     r1,r1,#1
        0x0000047e:    4602        .F      MOV      r2,r0
        0x00000480:    9602        ..      STR      r6,[sp,#8]
        0x00000482:    4322        "C      ORRS     r2,r2,r4
        0x00000484:    d021        !.      BEQ      0x4ca ; __aeabi_ddiv + 102
        0x00000486:    4662        bF      MOV      r2,r12
        0x00000488:    430a        .C      ORRS     r2,r2,r1
        0x0000048a:    d01e        ..      BEQ      0x4ca ; __aeabi_ddiv + 102
        0x0000048c:    0062        b.      LSLS     r2,r4,#1
        0x0000048e:    0d57        W.      LSRS     r7,r2,#21
        0x00000490:    004a        J.      LSLS     r2,r1,#1
        0x00000492:    030e        ..      LSLS     r6,r1,#12
        0x00000494:    0323        #.      LSLS     r3,r4,#12
        0x00000496:    0d55        U.      LSRS     r5,r2,#21
        0x00000498:    2401        .$      MOVS     r4,#1
        0x0000049a:    4602        .F      MOV      r2,r0
        0x0000049c:    492c        ,I      LDR      r1,[pc,#176] ; [0x550] = 0x3fd
        0x0000049e:    0524        $.      LSLS     r4,r4,#20
        0x000004a0:    1b78        x.      SUBS     r0,r7,r5
        0x000004a2:    0b1b        ..      LSRS     r3,r3,#12
        0x000004a4:    0b36        6.      LSRS     r6,r6,#12
        0x000004a6:    1840        @.      ADDS     r0,r0,r1
        0x000004a8:    4323        #C      ORRS     r3,r3,r4
        0x000004aa:    4326        &C      ORRS     r6,r6,r4
        0x000004ac:    4661        aF      MOV      r1,r12
        0x000004ae:    9000        ..      STR      r0,[sp,#0]
        0x000004b0:    461c        .F      MOV      r4,r3
        0x000004b2:    1a50        P.      SUBS     r0,r2,r1
        0x000004b4:    41b4        .A      SBCS     r4,r4,r6
        0x000004b6:    d303        ..      BCC      0x4c0 ; __aeabi_ddiv + 92
        0x000004b8:    9800        ..      LDR      r0,[sp,#0]
        0x000004ba:    1c40        @.      ADDS     r0,r0,#1
        0x000004bc:    9000        ..      STR      r0,[sp,#0]
        0x000004be:    e002        ..      B        0x4c6 ; __aeabi_ddiv + 98
        0x000004c0:    1892        ..      ADDS     r2,r2,r2
        0x000004c2:    9800        ..      LDR      r0,[sp,#0]
        0x000004c4:    415b        [A      ADCS     r3,r3,r3
        0x000004c6:    2800        .(      CMP      r0,#0
        0x000004c8:    da03        ..      BGE      0x4d2 ; __aeabi_ddiv + 110
        0x000004ca:    2000        .       MOVS     r0,#0
        0x000004cc:    4601        .F      MOV      r1,r0
        0x000004ce:    b005        ..      ADD      sp,sp,#0x14
        0x000004d0:    bdf0        ..      POP      {r4-r7,pc}
        0x000004d2:    2000        .       MOVS     r0,#0
        0x000004d4:    2101        .!      MOVS     r1,#1
        0x000004d6:    0509        ..      LSLS     r1,r1,#20
        0x000004d8:    4607        .F      MOV      r7,r0
        0x000004da:    4686        .F      MOV      lr,r0
        0x000004dc:    e011        ..      B        0x502 ; __aeabi_ddiv + 158
        0x000004de:    4664        dF      MOV      r4,r12
        0x000004e0:    461d        .F      MOV      r5,r3
        0x000004e2:    1b14        ..      SUBS     r4,r2,r4
        0x000004e4:    41b5        .A      SBCS     r5,r5,r6
        0x000004e6:    d306        ..      BCC      0x4f6 ; __aeabi_ddiv + 146
        0x000004e8:    4665        eF      MOV      r5,r12
        0x000004ea:    1b52        R.      SUBS     r2,r2,r5
        0x000004ec:    41b3        .A      SBCS     r3,r3,r6
        0x000004ee:    4674        tF      MOV      r4,lr
        0x000004f0:    4307        .C      ORRS     r7,r7,r0
        0x000004f2:    430c        .C      ORRS     r4,r4,r1
        0x000004f4:    46a6        .F      MOV      lr,r4
        0x000004f6:    07cd        ..      LSLS     r5,r1,#31
        0x000004f8:    0840        @.      LSRS     r0,r0,#1
        0x000004fa:    0849        I.      LSRS     r1,r1,#1
        0x000004fc:    4328        (C      ORRS     r0,r0,r5
        0x000004fe:    1892        ..      ADDS     r2,r2,r2
        0x00000500:    415b        [A      ADCS     r3,r3,r3
        0x00000502:    4605        .F      MOV      r5,r0
        0x00000504:    430d        .C      ORRS     r5,r5,r1
        0x00000506:    d1ea        ..      BNE      0x4de ; __aeabi_ddiv + 122
        0x00000508:    4610        .F      MOV      r0,r2
        0x0000050a:    4318        .C      ORRS     r0,r0,r3
        0x0000050c:    d013        ..      BEQ      0x536 ; __aeabi_ddiv + 210
        0x0000050e:    4660        `F      MOV      r0,r12
        0x00000510:    4619        .F      MOV      r1,r3
        0x00000512:    4050        P@      EORS     r0,r0,r2
        0x00000514:    4071        q@      EORS     r1,r1,r6
        0x00000516:    4308        .C      ORRS     r0,r0,r1
        0x00000518:    d006        ..      BEQ      0x528 ; __aeabi_ddiv + 196
        0x0000051a:    4660        `F      MOV      r0,r12
        0x0000051c:    1a10        ..      SUBS     r0,r2,r0
        0x0000051e:    41b3        .A      SBCS     r3,r3,r6
        0x00000520:    d206        ..      BCS      0x530 ; __aeabi_ddiv + 204
        0x00000522:    2201        ."      MOVS     r2,#1
        0x00000524:    2300        .#      MOVS     r3,#0
        0x00000526:    e006        ..      B        0x536 ; __aeabi_ddiv + 210
        0x00000528:    2200        ."      MOVS     r2,#0
        0x0000052a:    2301        .#      MOVS     r3,#1
        0x0000052c:    07db        ..      LSLS     r3,r3,#31
        0x0000052e:    e002        ..      B        0x536 ; __aeabi_ddiv + 210
        0x00000530:    2201        ."      MOVS     r2,#1
        0x00000532:    43d2        .C      MVNS     r2,r2
        0x00000534:    1053        S.      ASRS     r3,r2,#1
        0x00000536:    9800        ..      LDR      r0,[sp,#0]
        0x00000538:    4674        tF      MOV      r4,lr
        0x0000053a:    0501        ..      LSLS     r1,r0,#20
        0x0000053c:    1c38        8.      ADDS     r0,r7,#0
        0x0000053e:    4161        aA      ADCS     r1,r1,r4
        0x00000540:    9c02        ..      LDR      r4,[sp,#8]
        0x00000542:    9d03        ..      LDR      r5,[sp,#0xc]
        0x00000544:    1900        ..      ADDS     r0,r0,r4
        0x00000546:    4169        iA      ADCS     r1,r1,r5
        0x00000548:    f000f8a3    ....    BL       _double_round ; 0x692
        0x0000054c:    e7bf        ..      B        0x4ce ; __aeabi_ddiv + 106
    $d
        0x0000054e:    0000        ..      DCW    0
        0x00000550:    000003fd    ....    DCD    1021
    $t
    .text
    __aeabi_d2ulz
        0x00000554:    004a        J.      LSLS     r2,r1,#1
        0x00000556:    0309        ..      LSLS     r1,r1,#12
        0x00000558:    2301        .#      MOVS     r3,#1
        0x0000055a:    0b09        ..      LSRS     r1,r1,#12
        0x0000055c:    051b        ..      LSLS     r3,r3,#20
        0x0000055e:    4319        .C      ORRS     r1,r1,r3
        0x00000560:    4b0a        .K      LDR      r3,[pc,#40] ; [0x58c] = 0x3ff
        0x00000562:    b510        ..      PUSH     {r4,lr}
        0x00000564:    0d52        R.      LSRS     r2,r2,#21
        0x00000566:    429a        .B      CMP      r2,r3
        0x00000568:    da02        ..      BGE      0x570 ; __aeabi_d2ulz + 28
        0x0000056a:    2000        .       MOVS     r0,#0
        0x0000056c:    4601        .F      MOV      r1,r0
        0x0000056e:    bd10        ..      POP      {r4,pc}
        0x00000570:    4b06        .K      LDR      r3,[pc,#24] ; [0x58c] = 0x3ff
        0x00000572:    3334        43      ADDS     r3,r3,#0x34
        0x00000574:    429a        .B      CMP      r2,r3
        0x00000576:    dc03        ..      BGT      0x580 ; __aeabi_d2ulz + 44
        0x00000578:    1a9a        ..      SUBS     r2,r3,r2
        0x0000057a:    f000f866    ..f.    BL       __aeabi_llsr ; 0x64a
        0x0000057e:    bd10        ..      POP      {r4,pc}
        0x00000580:    4b03        .K      LDR      r3,[pc,#12] ; [0x590] = 0xfffffbcd
        0x00000582:    18d2        ..      ADDS     r2,r2,r3
        0x00000584:    f000f851    ..Q.    BL       __aeabi_llsl ; 0x62a
        0x00000588:    bd10        ..      POP      {r4,pc}
    $d
        0x0000058a:    0000        ..      DCW    0
        0x0000058c:    000003ff    ....    DCD    1023
        0x00000590:    fffffbcd    ....    DCD    4294966221
    $t
    .text
    __aeabi_cdrcmple
        0x00000594:    b510        ..      PUSH     {r4,lr}
        0x00000596:    2900        .)      CMP      r1,#0
        0x00000598:    db04        ..      BLT      0x5a4 ; __aeabi_cdrcmple + 16
        0x0000059a:    2401        .$      MOVS     r4,#1
        0x0000059c:    07e4        ..      LSLS     r4,r4,#31
        0x0000059e:    4240        @B      RSBS     r0,r0,#0
        0x000005a0:    418c        .A      SBCS     r4,r4,r1
        0x000005a2:    4621        !F      MOV      r1,r4
        0x000005a4:    2b00        .+      CMP      r3,#0
        0x000005a6:    db04        ..      BLT      0x5b2 ; __aeabi_cdrcmple + 30
        0x000005a8:    461c        .F      MOV      r4,r3
        0x000005aa:    2301        .#      MOVS     r3,#1
        0x000005ac:    07db        ..      LSLS     r3,r3,#31
        0x000005ae:    4252        RB      RSBS     r2,r2,#0
        0x000005b0:    41a3        .A      SBCS     r3,r3,r4
        0x000005b2:    4299        .B      CMP      r1,r3
        0x000005b4:    d100        ..      BNE      0x5b8 ; __aeabi_cdrcmple + 36
        0x000005b6:    4290        .B      CMP      r0,r2
        0x000005b8:    bd10        ..      POP      {r4,pc}
    $d
        0x000005ba:    0000        ..      DCW    0
    $t
    .text
    __scatterload
    __scatterload_rt2
        0x000005bc:    b51c        ..      PUSH     {r2-r4,lr}
        0x000005be:    4809        .H      LDR      r0,[pc,#36] ; [0x5e4] = 0x31e8
        0x000005c0:    9000        ..      STR      r0,[sp,#0]
        0x000005c2:    4809        .H      LDR      r0,[pc,#36] ; [0x5e8] = 0x3208
        0x000005c4:    9001        ..      STR      r0,[sp,#4]
        0x000005c6:    4605        .F      MOV      r5,r0
        0x000005c8:    2601        .&      MOVS     r6,#1
        0x000005ca:    9c00        ..      LDR      r4,[sp,#0]
        0x000005cc:    e005        ..      B        0x5da ; __scatterload + 30
        0x000005ce:    68e3        .h      LDR      r3,[r4,#0xc]
        0x000005d0:    cc07        ..      LDM      r4!,{r0-r2}
        0x000005d2:    4333        3C      ORRS     r3,r3,r6
        0x000005d4:    3c0c        .<      SUBS     r4,r4,#0xc
        0x000005d6:    4798        .G      BLX      r3
        0x000005d8:    3410        .4      ADDS     r4,r4,#0x10
        0x000005da:    42ac        .B      CMP      r4,r5
        0x000005dc:    d3f7        ..      BCC      0x5ce ; __scatterload + 18
        0x000005de:    f7fffdb3    ....    BL       __main_after_scatterload ; 0x148
    $d
        0x000005e2:    0000        ..      DCW    0
        0x000005e4:    000031e8    .1..    DCD    12776
        0x000005e8:    00003208    .2..    DCD    12808
    $t
    .text
    __aeabi_uidiv$div0
    __aeabi_uidivmod
        0x000005ec:    b570        p.      PUSH     {r4-r6,lr}
        0x000005ee:    4604        .F      MOV      r4,r0
        0x000005f0:    2900        .)      CMP      r1,#0
        0x000005f2:    d003        ..      BEQ      0x5fc ; __aeabi_uidiv$div0 + 16
        0x000005f4:    2000        .       MOVS     r0,#0
        0x000005f6:    2220         "      MOVS     r2,#0x20
        0x000005f8:    2301        .#      MOVS     r3,#1
        0x000005fa:    e010        ..      B        0x61e ; __aeabi_uidiv$div0 + 50
        0x000005fc:    2800        .(      CMP      r0,#0
        0x000005fe:    d001        ..      BEQ      0x604 ; __aeabi_uidiv$div0 + 24
        0x00000600:    2000        .       MOVS     r0,#0
        0x00000602:    43c0        .C      MVNS     r0,r0
        0x00000604:    46c0        .F      MOV      r8,r8
        0x00000606:    46c0        .F      MOV      r8,r8
        0x00000608:    e00d        ..      B        0x626 ; __aeabi_uidiv$div0 + 58
        0x0000060a:    4625        %F      MOV      r5,r4
        0x0000060c:    40d5        .@      LSRS     r5,r5,r2
        0x0000060e:    428d        .B      CMP      r5,r1
        0x00000610:    d305        ..      BCC      0x61e ; __aeabi_uidiv$div0 + 50
        0x00000612:    460d        .F      MOV      r5,r1
        0x00000614:    4095        .@      LSLS     r5,r5,r2
        0x00000616:    1b64        d.      SUBS     r4,r4,r5
        0x00000618:    461d        .F      MOV      r5,r3
        0x0000061a:    4095        .@      LSLS     r5,r5,r2
        0x0000061c:    1940        @.      ADDS     r0,r0,r5
        0x0000061e:    4615        .F      MOV      r5,r2
        0x00000620:    1e52        R.      SUBS     r2,r2,#1
        0x00000622:    2d00        .-      CMP      r5,#0
        0x00000624:    dcf1        ..      BGT      0x60a ; __aeabi_uidiv$div0 + 30
        0x00000626:    4621        !F      MOV      r1,r4
        0x00000628:    bd70        p.      POP      {r4-r6,pc}
    .text
    __aeabi_llsl
    _ll_shift_l
        0x0000062a:    b510        ..      PUSH     {r4,lr}
        0x0000062c:    2a20         *      CMP      r2,#0x20
        0x0000062e:    db04        ..      BLT      0x63a ; __aeabi_llsl + 16
        0x00000630:    4601        .F      MOV      r1,r0
        0x00000632:    3a20         :      SUBS     r2,r2,#0x20
        0x00000634:    4091        .@      LSLS     r1,r1,r2
        0x00000636:    2000        .       MOVS     r0,#0
        0x00000638:    bd10        ..      POP      {r4,pc}
        0x0000063a:    4091        .@      LSLS     r1,r1,r2
        0x0000063c:    2320         #      MOVS     r3,#0x20
        0x0000063e:    1a9c        ..      SUBS     r4,r3,r2
        0x00000640:    4603        .F      MOV      r3,r0
        0x00000642:    40e3        .@      LSRS     r3,r3,r4
        0x00000644:    4319        .C      ORRS     r1,r1,r3
        0x00000646:    4090        .@      LSLS     r0,r0,r2
        0x00000648:    bd10        ..      POP      {r4,pc}
    .text
    __aeabi_llsr
    _ll_ushift_r
        0x0000064a:    b510        ..      PUSH     {r4,lr}
        0x0000064c:    2a20         *      CMP      r2,#0x20
        0x0000064e:    db04        ..      BLT      0x65a ; __aeabi_llsr + 16
        0x00000650:    4608        .F      MOV      r0,r1
        0x00000652:    3a20         :      SUBS     r2,r2,#0x20
        0x00000654:    40d0        .@      LSRS     r0,r0,r2
        0x00000656:    2100        .!      MOVS     r1,#0
        0x00000658:    bd10        ..      POP      {r4,pc}
        0x0000065a:    460b        .F      MOV      r3,r1
        0x0000065c:    40d3        .@      LSRS     r3,r3,r2
        0x0000065e:    40d0        .@      LSRS     r0,r0,r2
        0x00000660:    2420         $      MOVS     r4,#0x20
        0x00000662:    1aa2        ..      SUBS     r2,r4,r2
        0x00000664:    4091        .@      LSLS     r1,r1,r2
        0x00000666:    4308        .C      ORRS     r0,r0,r1
        0x00000668:    4619        .F      MOV      r1,r3
        0x0000066a:    bd10        ..      POP      {r4,pc}
    .text
    __aeabi_lasr
    _ll_sshift_r
        0x0000066c:    b510        ..      PUSH     {r4,lr}
        0x0000066e:    2a20         *      CMP      r2,#0x20
        0x00000670:    db06        ..      BLT      0x680 ; __aeabi_lasr + 20
        0x00000672:    17cb        ..      ASRS     r3,r1,#31
        0x00000674:    4608        .F      MOV      r0,r1
        0x00000676:    3a20         :      SUBS     r2,r2,#0x20
        0x00000678:    4110        .A      ASRS     r0,r0,r2
        0x0000067a:    17c1        ..      ASRS     r1,r0,#31
        0x0000067c:    430b        .C      ORRS     r3,r3,r1
        0x0000067e:    e006        ..      B        0x68e ; __aeabi_lasr + 34
        0x00000680:    460b        .F      MOV      r3,r1
        0x00000682:    4113        .A      ASRS     r3,r3,r2
        0x00000684:    40d0        .@      LSRS     r0,r0,r2
        0x00000686:    2420         $      MOVS     r4,#0x20
        0x00000688:    1aa2        ..      SUBS     r2,r4,r2
        0x0000068a:    4091        .@      LSLS     r1,r1,r2
        0x0000068c:    4308        .C      ORRS     r0,r0,r1
        0x0000068e:    4619        .F      MOV      r1,r3
        0x00000690:    bd10        ..      POP      {r4,pc}
    .text
    _double_round
        0x00000692:    b510        ..      PUSH     {r4,lr}
        0x00000694:    2b00        .+      CMP      r3,#0
        0x00000696:    da08        ..      BGE      0x6aa ; _double_round + 24
        0x00000698:    2400        .$      MOVS     r4,#0
        0x0000069a:    1c40        @.      ADDS     r0,r0,#1
        0x0000069c:    4161        aA      ADCS     r1,r1,r4
        0x0000069e:    1892        ..      ADDS     r2,r2,r2
        0x000006a0:    415b        [A      ADCS     r3,r3,r3
        0x000006a2:    431a        .C      ORRS     r2,r2,r3
        0x000006a4:    d101        ..      BNE      0x6aa ; _double_round + 24
        0x000006a6:    0840        @.      LSRS     r0,r0,#1
        0x000006a8:    0040        @.      LSLS     r0,r0,#1
        0x000006aa:    bd10        ..      POP      {r4,pc}
    _double_epilogue
        0x000006ac:    b5f0        ..      PUSH     {r4-r7,lr}
        0x000006ae:    b41f        ..      PUSH     {r0-r4}
        0x000006b0:    b082        ..      SUB      sp,sp,#8
        0x000006b2:    4605        .F      MOV      r5,r0
        0x000006b4:    000c        ..      MOVS     r4,r1
        0x000006b6:    d003        ..      BEQ      0x6c0 ; _double_epilogue + 20
        0x000006b8:    4608        .F      MOV      r0,r1
        0x000006ba:    f001ff51    ..Q.    BL       __ARM_clz ; 0x2560
        0x000006be:    e002        ..      B        0x6c6 ; _double_epilogue + 26
        0x000006c0:    f001ff4e    ..N.    BL       __ARM_clz ; 0x2560
        0x000006c4:    3020         0      ADDS     r0,r0,#0x20
        0x000006c6:    4602        .F      MOV      r2,r0
        0x000006c8:    9000        ..      STR      r0,[sp,#0]
        0x000006ca:    4621        !F      MOV      r1,r4
        0x000006cc:    4628        (F      MOV      r0,r5
        0x000006ce:    f7ffffac    ....    BL       __aeabi_llsl ; 0x62a
        0x000006d2:    9b04        ..      LDR      r3,[sp,#0x10]
        0x000006d4:    9a05        ..      LDR      r2,[sp,#0x14]
        0x000006d6:    4604        .F      MOV      r4,r0
        0x000006d8:    460f        .F      MOV      r7,r1
        0x000006da:    4318        .C      ORRS     r0,r0,r3
        0x000006dc:    4311        .C      ORRS     r1,r1,r2
        0x000006de:    4308        .C      ORRS     r0,r0,r1
        0x000006e0:    d014        ..      BEQ      0x70c ; _double_epilogue + 96
        0x000006e2:    4618        .F      MOV      r0,r3
        0x000006e4:    4310        .C      ORRS     r0,r0,r2
        0x000006e6:    d01b        ..      BEQ      0x720 ; _double_epilogue + 116
        0x000006e8:    9800        ..      LDR      r0,[sp,#0]
        0x000006ea:    2140        @!      MOVS     r1,#0x40
        0x000006ec:    1a0a        ..      SUBS     r2,r1,r0
        0x000006ee:    4618        .F      MOV      r0,r3
        0x000006f0:    9905        ..      LDR      r1,[sp,#0x14]
        0x000006f2:    f7ffffaa    ....    BL       __aeabi_llsr ; 0x64a
        0x000006f6:    4605        .F      MOV      r5,r0
        0x000006f8:    460e        .F      MOV      r6,r1
        0x000006fa:    9a00        ..      LDR      r2,[sp,#0]
        0x000006fc:    9905        ..      LDR      r1,[sp,#0x14]
        0x000006fe:    9804        ..      LDR      r0,[sp,#0x10]
        0x00000700:    f7ffff93    ....    BL       __aeabi_llsl ; 0x62a
        0x00000704:    4308        .C      ORRS     r0,r0,r1
        0x00000706:    d005        ..      BEQ      0x714 ; _double_epilogue + 104
        0x00000708:    2001        .       MOVS     r0,#1
        0x0000070a:    e004        ..      B        0x716 ; _double_epilogue + 106
        0x0000070c:    4620         F      MOV      r0,r4
        0x0000070e:    4639        9F      MOV      r1,r7
        0x00000710:    b007        ..      ADD      sp,sp,#0x1c
        0x00000712:    bdf0        ..      POP      {r4-r7,pc}
        0x00000714:    2000        .       MOVS     r0,#0
        0x00000716:    17c1        ..      ASRS     r1,r0,#31
        0x00000718:    4305        .C      ORRS     r5,r5,r0
        0x0000071a:    430e        .C      ORRS     r6,r6,r1
        0x0000071c:    432c        ,C      ORRS     r4,r4,r5
        0x0000071e:    4337        7C      ORRS     r7,r7,r6
        0x00000720:    9900        ..      LDR      r1,[sp,#0]
        0x00000722:    980e        ..      LDR      r0,[sp,#0x38]
        0x00000724:    0563        c.      LSLS     r3,r4,#21
        0x00000726:    1a40        @.      SUBS     r0,r0,r1
        0x00000728:    0579        y.      LSLS     r1,r7,#21
        0x0000072a:    0ae4        ..      LSRS     r4,r4,#11
        0x0000072c:    2200        ."      MOVS     r2,#0
        0x0000072e:    430c        .C      ORRS     r4,r4,r1
        0x00000730:    0afd        ..      LSRS     r5,r7,#11
        0x00000732:    300a        .0      ADDS     r0,r0,#0xa
        0x00000734:    d502        ..      BPL      0x73c ; _double_epilogue + 144
        0x00000736:    2000        .       MOVS     r0,#0
        0x00000738:    4601        .F      MOV      r1,r0
        0x0000073a:    e7e9        ..      B        0x710 ; _double_epilogue + 100
        0x0000073c:    0501        ..      LSLS     r1,r0,#20
        0x0000073e:    1910        ..      ADDS     r0,r2,r4
        0x00000740:    4169        iA      ADCS     r1,r1,r5
        0x00000742:    9c0c        ..      LDR      r4,[sp,#0x30]
        0x00000744:    9d0d        ..      LDR      r5,[sp,#0x34]
        0x00000746:    1900        ..      ADDS     r0,r0,r4
        0x00000748:    4169        iA      ADCS     r1,r1,r5
        0x0000074a:    f7ffffa2    ....    BL       _double_round ; 0x692
        0x0000074e:    e7df        ..      B        0x710 ; _double_epilogue + 100
    $t.32
    CLK_EnableModuleClock
        0x00000750:    b083        ..      SUB      sp,sp,#0xc
        0x00000752:    9002        ..      STR      r0,[sp,#8]
        0x00000754:    2000        .       MOVS     r0,#0
        0x00000756:    9001        ..      STR      r0,[sp,#4]
        0x00000758:    9000        ..      STR      r0,[sp,#0]
        0x0000075a:    9902        ..      LDR      r1,[sp,#8]
        0x0000075c:    201f        .       MOVS     r0,#0x1f
        0x0000075e:    4001        .@      ANDS     r1,r1,r0
        0x00000760:    2001        .       MOVS     r0,#1
        0x00000762:    4088        .@      LSLS     r0,r0,r1
        0x00000764:    9001        ..      STR      r0,[sp,#4]
        0x00000766:    4807        .H      LDR      r0,[pc,#28] ; [0x784] = 0x40000204
        0x00000768:    9000        ..      STR      r0,[sp,#0]
        0x0000076a:    9802        ..      LDR      r0,[sp,#8]
        0x0000076c:    0f80        ..      LSRS     r0,r0,#30
        0x0000076e:    0081        ..      LSLS     r1,r0,#2
        0x00000770:    9800        ..      LDR      r0,[sp,#0]
        0x00000772:    1840        @.      ADDS     r0,r0,r1
        0x00000774:    9000        ..      STR      r0,[sp,#0]
        0x00000776:    9a01        ..      LDR      r2,[sp,#4]
        0x00000778:    9900        ..      LDR      r1,[sp,#0]
        0x0000077a:    6808        .h      LDR      r0,[r1,#0]
        0x0000077c:    4310        .C      ORRS     r0,r0,r2
        0x0000077e:    6008        .`      STR      r0,[r1,#0]
        0x00000780:    b003        ..      ADD      sp,sp,#0xc
        0x00000782:    4770        pG      BX       lr
    $d.33
    __arm_cp.16_0
        0x00000784:    40000204    ...@    DCD    1073742340
    $t.28
    CLK_EnableXtalRC
        0x00000788:    b081        ..      SUB      sp,sp,#4
        0x0000078a:    9000        ..      STR      r0,[sp,#0]
        0x0000078c:    9a00        ..      LDR      r2,[sp,#0]
        0x0000078e:    4955        UI      LDR      r1,[pc,#340] ; [0x8e4] = 0x40000200
        0x00000790:    6808        .h      LDR      r0,[r1,#0]
        0x00000792:    4310        .C      ORRS     r0,r0,r2
        0x00000794:    6008        .`      STR      r0,[r1,#0]
        0x00000796:    b001        ..      ADD      sp,sp,#4
        0x00000798:    4770        pG      BX       lr
        0x0000079a:    46c0        .F      MOV      r8,r8
    CLK_GetCPUFreq
        0x0000079c:    b580        ..      PUSH     {r7,lr}
        0x0000079e:    f000ff49    ..I.    BL       SystemCoreClockUpdate ; 0x1634
        0x000007a2:    4894        .H      LDR      r0,[pc,#592] ; [0x9f4] = 0x20000004
        0x000007a4:    6800        .h      LDR      r0,[r0,#0]
        0x000007a6:    bd80        ..      POP      {r7,pc}
    CLK_GetHCLKFreq
        0x000007a8:    b580        ..      PUSH     {r7,lr}
        0x000007aa:    f000ff43    ..C.    BL       SystemCoreClockUpdate ; 0x1634
        0x000007ae:    4891        .H      LDR      r0,[pc,#580] ; [0x9f4] = 0x20000004
        0x000007b0:    6800        .h      LDR      r0,[r0,#0]
        0x000007b2:    bd80        ..      POP      {r7,pc}
    CLK_GetPCLK0Freq
        0x000007b4:    b580        ..      PUSH     {r7,lr}
        0x000007b6:    b082        ..      SUB      sp,sp,#8
        0x000007b8:    f000ff3c    ..<.    BL       SystemCoreClockUpdate ; 0x1634
        0x000007bc:    480d        .H      LDR      r0,[pc,#52] ; [0x7f4] = 0x40000234
        0x000007be:    6800        .h      LDR      r0,[r0,#0]
        0x000007c0:    2107        .!      MOVS     r1,#7
        0x000007c2:    4008        .@      ANDS     r0,r0,r1
        0x000007c4:    9001        ..      STR      r0,[sp,#4]
        0x000007c6:    488b        .H      LDR      r0,[pc,#556] ; [0x9f4] = 0x20000004
        0x000007c8:    6800        .h      LDR      r0,[r0,#0]
        0x000007ca:    9901        ..      LDR      r1,[sp,#4]
        0x000007cc:    40c8        .@      LSRS     r0,r0,r1
        0x000007ce:    b002        ..      ADD      sp,sp,#8
        0x000007d0:    bd80        ..      POP      {r7,pc}
        0x000007d2:    46c0        .F      MOV      r8,r8
    CLK_GetPCLK1Freq
        0x000007d4:    b580        ..      PUSH     {r7,lr}
        0x000007d6:    b082        ..      SUB      sp,sp,#8
        0x000007d8:    f000ff2c    ..,.    BL       SystemCoreClockUpdate ; 0x1634
        0x000007dc:    4805        .H      LDR      r0,[pc,#20] ; [0x7f4] = 0x40000234
        0x000007de:    6800        .h      LDR      r0,[r0,#0]
        0x000007e0:    2170        p!      MOVS     r1,#0x70
        0x000007e2:    4008        .@      ANDS     r0,r0,r1
        0x000007e4:    0900        ..      LSRS     r0,r0,#4
        0x000007e6:    9001        ..      STR      r0,[sp,#4]
        0x000007e8:    4882        .H      LDR      r0,[pc,#520] ; [0x9f4] = 0x20000004
        0x000007ea:    6800        .h      LDR      r0,[r0,#0]
        0x000007ec:    9901        ..      LDR      r1,[sp,#4]
        0x000007ee:    40c8        .@      LSRS     r0,r0,r1
        0x000007f0:    b002        ..      ADD      sp,sp,#8
        0x000007f2:    bd80        ..      POP      {r7,pc}
    $d.13
    __arm_cp.6_0
        0x000007f4:    40000234    4..@    DCD    1073742388
    $t.20
    CLK_SetHCLK
        0x000007f8:    b580        ..      PUSH     {r7,lr}
        0x000007fa:    b084        ..      SUB      sp,sp,#0x10
        0x000007fc:    9003        ..      STR      r0,[sp,#0xc]
        0x000007fe:    9102        ..      STR      r1,[sp,#8]
        0x00000800:    487e        ~H      LDR      r0,[pc,#504] ; [0x9fc] = 0x40000250
        0x00000802:    6801        .h      LDR      r1,[r0,#0]
        0x00000804:    2010        .       MOVS     r0,#0x10
        0x00000806:    4001        .@      ANDS     r1,r1,r0
        0x00000808:    9101        ..      STR      r1,[sp,#4]
        0x0000080a:    4a36        6J      LDR      r2,[pc,#216] ; [0x8e4] = 0x40000200
        0x0000080c:    6811        .h      LDR      r1,[r2,#0]
        0x0000080e:    2304        .#      MOVS     r3,#4
        0x00000810:    9300        ..      STR      r3,[sp,#0]
        0x00000812:    4319        .C      ORRS     r1,r1,r3
        0x00000814:    6011        .`      STR      r1,[r2,#0]
        0x00000816:    f000f8c5    ....    BL       CLK_WaitClockReady ; 0x9a4
        0x0000081a:    9b00        ..      LDR      r3,[sp,#0]
        0x0000081c:    4960        `I      LDR      r1,[pc,#384] ; [0x9a0] = 0x40000210
        0x0000081e:    6808        .h      LDR      r0,[r1,#0]
        0x00000820:    2205        ."      MOVS     r2,#5
        0x00000822:    4310        .C      ORRS     r0,r0,r2
        0x00000824:    2202        ."      MOVS     r2,#2
        0x00000826:    4390        .C      BICS     r0,r0,r2
        0x00000828:    6008        .`      STR      r0,[r1,#0]
        0x0000082a:    4a2f        /J      LDR      r2,[pc,#188] ; [0x8e8] = 0x4000c04c
        0x0000082c:    6810        .h      LDR      r0,[r2,#0]
        0x0000082e:    4318        .C      ORRS     r0,r0,r3
        0x00000830:    230b        .#      MOVS     r3,#0xb
        0x00000832:    4398        .C      BICS     r0,r0,r3
        0x00000834:    6010        .`      STR      r0,[r2,#0]
        0x00000836:    4a59        YJ      LDR      r2,[pc,#356] ; [0x99c] = 0x40000220
        0x00000838:    6810        .h      LDR      r0,[r2,#0]
        0x0000083a:    230f        .#      MOVS     r3,#0xf
        0x0000083c:    4398        .C      BICS     r0,r0,r3
        0x0000083e:    9b02        ..      LDR      r3,[sp,#8]
        0x00000840:    4318        .C      ORRS     r0,r0,r3
        0x00000842:    6010        .`      STR      r0,[r2,#0]
        0x00000844:    6808        .h      LDR      r0,[r1,#0]
        0x00000846:    2207        ."      MOVS     r2,#7
        0x00000848:    4390        .C      BICS     r0,r0,r2
        0x0000084a:    9a03        ..      LDR      r2,[sp,#0xc]
        0x0000084c:    4310        .C      ORRS     r0,r0,r2
        0x0000084e:    6008        .`      STR      r0,[r1,#0]
        0x00000850:    f000fef0    ....    BL       SystemCoreClockUpdate ; 0x1634
        0x00000854:    4867        gH      LDR      r0,[pc,#412] ; [0x9f4] = 0x20000004
        0x00000856:    6800        .h      LDR      r0,[r0,#0]
        0x00000858:    4924        $I      LDR      r1,[pc,#144] ; [0x8ec] = 0x2faf080
        0x0000085a:    4288        .B      CMP      r0,r1
        0x0000085c:    d30e        ..      BCC      0x87c ; CLK_SetHCLK + 132
        0x0000085e:    e7ff        ..      B        0x860 ; CLK_SetHCLK + 104
        0x00000860:    4864        dH      LDR      r0,[pc,#400] ; [0x9f4] = 0x20000004
        0x00000862:    6800        .h      LDR      r0,[r0,#0]
        0x00000864:    4922        "I      LDR      r1,[pc,#136] ; [0x8f0] = 0x47868bf
        0x00000866:    4288        .B      CMP      r0,r1
        0x00000868:    d808        ..      BHI      0x87c ; CLK_SetHCLK + 132
        0x0000086a:    e7ff        ..      B        0x86c ; CLK_SetHCLK + 116
        0x0000086c:    491e        .I      LDR      r1,[pc,#120] ; [0x8e8] = 0x4000c04c
        0x0000086e:    6808        .h      LDR      r0,[r1,#0]
        0x00000870:    2203        ."      MOVS     r2,#3
        0x00000872:    4310        .C      ORRS     r0,r0,r2
        0x00000874:    220c        ."      MOVS     r2,#0xc
        0x00000876:    4390        .C      BICS     r0,r0,r2
        0x00000878:    6008        .`      STR      r0,[r1,#0]
        0x0000087a:    e014        ..      B        0x8a6 ; CLK_SetHCLK + 174
        0x0000087c:    485d        ]H      LDR      r0,[pc,#372] ; [0x9f4] = 0x20000004
        0x0000087e:    6800        .h      LDR      r0,[r0,#0]
        0x00000880:    491c        .I      LDR      r1,[pc,#112] ; [0x8f4] = 0x17d7840
        0x00000882:    4288        .B      CMP      r0,r1
        0x00000884:    d30e        ..      BCC      0x8a4 ; CLK_SetHCLK + 172
        0x00000886:    e7ff        ..      B        0x888 ; CLK_SetHCLK + 144
        0x00000888:    485a        ZH      LDR      r0,[pc,#360] ; [0x9f4] = 0x20000004
        0x0000088a:    6800        .h      LDR      r0,[r0,#0]
        0x0000088c:    491a        .I      LDR      r1,[pc,#104] ; [0x8f8] = 0x2faf07f
        0x0000088e:    4288        .B      CMP      r0,r1
        0x00000890:    d808        ..      BHI      0x8a4 ; CLK_SetHCLK + 172
        0x00000892:    e7ff        ..      B        0x894 ; CLK_SetHCLK + 156
        0x00000894:    4914        .I      LDR      r1,[pc,#80] ; [0x8e8] = 0x4000c04c
        0x00000896:    6808        .h      LDR      r0,[r1,#0]
        0x00000898:    2202        ."      MOVS     r2,#2
        0x0000089a:    4310        .C      ORRS     r0,r0,r2
        0x0000089c:    220d        ."      MOVS     r2,#0xd
        0x0000089e:    4390        .C      BICS     r0,r0,r2
        0x000008a0:    6008        .`      STR      r0,[r1,#0]
        0x000008a2:    e7ff        ..      B        0x8a4 ; CLK_SetHCLK + 172
        0x000008a4:    e7ff        ..      B        0x8a6 ; CLK_SetHCLK + 174
        0x000008a6:    4853        SH      LDR      r0,[pc,#332] ; [0x9f4] = 0x20000004
        0x000008a8:    6800        .h      LDR      r0,[r0,#0]
        0x000008aa:    4914        .I      LDR      r1,[pc,#80] ; [0x8fc] = 0x17d783f
        0x000008ac:    4288        .B      CMP      r0,r1
        0x000008ae:    d808        ..      BHI      0x8c2 ; CLK_SetHCLK + 202
        0x000008b0:    e7ff        ..      B        0x8b2 ; CLK_SetHCLK + 186
        0x000008b2:    490d        .I      LDR      r1,[pc,#52] ; [0x8e8] = 0x4000c04c
        0x000008b4:    6808        .h      LDR      r0,[r1,#0]
        0x000008b6:    2201        ."      MOVS     r2,#1
        0x000008b8:    4310        .C      ORRS     r0,r0,r2
        0x000008ba:    220e        ."      MOVS     r2,#0xe
        0x000008bc:    4390        .C      BICS     r0,r0,r2
        0x000008be:    6008        .`      STR      r0,[r1,#0]
        0x000008c0:    e7ff        ..      B        0x8c2 ; CLK_SetHCLK + 202
        0x000008c2:    9803        ..      LDR      r0,[sp,#0xc]
        0x000008c4:    2805        .(      CMP      r0,#5
        0x000008c6:    d00a        ..      BEQ      0x8de ; CLK_SetHCLK + 230
        0x000008c8:    e7ff        ..      B        0x8ca ; CLK_SetHCLK + 210
        0x000008ca:    9801        ..      LDR      r0,[sp,#4]
        0x000008cc:    b930        0.      CBNZ     r0,0x8dc ; CLK_SetHCLK + 228
        0x000008ce:    e7ff        ..      B        0x8d0 ; CLK_SetHCLK + 216
        0x000008d0:    4904        .I      LDR      r1,[pc,#16] ; [0x8e4] = 0x40000200
        0x000008d2:    6808        .h      LDR      r0,[r1,#0]
        0x000008d4:    2204        ."      MOVS     r2,#4
        0x000008d6:    4390        .C      BICS     r0,r0,r2
        0x000008d8:    6008        .`      STR      r0,[r1,#0]
        0x000008da:    e7ff        ..      B        0x8dc ; CLK_SetHCLK + 228
        0x000008dc:    e7ff        ..      B        0x8de ; CLK_SetHCLK + 230
        0x000008de:    b004        ..      ADD      sp,sp,#0x10
        0x000008e0:    bd80        ..      POP      {r7,pc}
        0x000008e2:    46c0        .F      MOV      r8,r8
    $d.21
    __arm_cp.10_1
        0x000008e4:    40000200    ...@    DCD    1073742336
    __arm_cp.10_3
        0x000008e8:    4000c04c    L..@    DCD    1073791052
    __arm_cp.10_6
        0x000008ec:    02faf080    ....    DCD    50000000
    __arm_cp.10_7
        0x000008f0:    047868bf    .hx.    DCD    74999999
    __arm_cp.10_8
        0x000008f4:    017d7840    @x}.    DCD    25000000
    __arm_cp.10_9
        0x000008f8:    02faf07f    ....    DCD    49999999
    __arm_cp.10_10
        0x000008fc:    017d783f    ?x}.    DCD    24999999
    $t.24
    CLK_SetModuleClock
        0x00000900:    b08d        ..      SUB      sp,sp,#0x34
        0x00000902:    900c        ..      STR      r0,[sp,#0x30]
        0x00000904:    910b        ..      STR      r1,[sp,#0x2c]
        0x00000906:    920a        ..      STR      r2,[sp,#0x28]
        0x00000908:    2000        .       MOVS     r0,#0
        0x0000090a:    9009        ..      STR      r0,[sp,#0x24]
        0x0000090c:    9008        ..      STR      r0,[sp,#0x20]
        0x0000090e:    210c        .!      MOVS     r1,#0xc
        0x00000910:    9107        ..      STR      r1,[sp,#0x1c]
        0x00000912:    2208        ."      MOVS     r2,#8
        0x00000914:    9206        ..      STR      r2,[sp,#0x18]
        0x00000916:    2104        .!      MOVS     r1,#4
        0x00000918:    9105        ..      STR      r1,[sp,#0x14]
        0x0000091a:    9004        ..      STR      r0,[sp,#0x10]
        0x0000091c:    2310        .#      MOVS     r3,#0x10
        0x0000091e:    9303        ..      STR      r3,[sp,#0xc]
        0x00000920:    9202        ..      STR      r2,[sp,#8]
        0x00000922:    9101        ..      STR      r1,[sp,#4]
        0x00000924:    9000        ..      STR      r0,[sp,#0]
        0x00000926:    980c        ..      LDR      r0,[sp,#0x30]
        0x00000928:    0a80        ..      LSRS     r0,r0,#10
        0x0000092a:    0600        ..      LSLS     r0,r0,#24
        0x0000092c:    b1b8        ..      CBZ      r0,0x95e ; CLK_SetModuleClock + 94
        0x0000092e:    e7ff        ..      B        0x930 ; CLK_SetModuleClock + 48
        0x00000930:    a80c        ..      ADD      r0,sp,#0x30
        0x00000932:    8841        A.      LDRH     r1,[r0,#2]
        0x00000934:    200c        .       MOVS     r0,#0xc
        0x00000936:    4001        .@      ANDS     r1,r1,r0
        0x00000938:    4668        hF      MOV      r0,sp
        0x0000093a:    5840        @X      LDR      r0,[r0,r1]
        0x0000093c:    4917        .I      LDR      r1,[pc,#92] ; [0x99c] = 0x40000220
        0x0000093e:    1840        @.      ADDS     r0,r0,r1
        0x00000940:    9008        ..      STR      r0,[sp,#0x20]
        0x00000942:    9808        ..      LDR      r0,[sp,#0x20]
        0x00000944:    6800        .h      LDR      r0,[r0,#0]
        0x00000946:    9a0c        ..      LDR      r2,[sp,#0x30]
        0x00000948:    0a91        ..      LSRS     r1,r2,#10
        0x0000094a:    b2c9        ..      UXTB     r1,r1
        0x0000094c:    0592        ..      LSLS     r2,r2,#22
        0x0000094e:    0ed2        ..      LSRS     r2,r2,#27
        0x00000950:    4091        .@      LSLS     r1,r1,r2
        0x00000952:    4388        .C      BICS     r0,r0,r1
        0x00000954:    990a        ..      LDR      r1,[sp,#0x28]
        0x00000956:    4308        .C      ORRS     r0,r0,r1
        0x00000958:    9908        ..      LDR      r1,[sp,#0x20]
        0x0000095a:    6008        .`      STR      r0,[r1,#0]
        0x0000095c:    e7ff        ..      B        0x95e ; CLK_SetModuleClock + 94
        0x0000095e:    980c        ..      LDR      r0,[sp,#0x30]
        0x00000960:    0100        ..      LSLS     r0,r0,#4
        0x00000962:    0f40        @.      LSRS     r0,r0,#29
        0x00000964:    b1b8        ..      CBZ      r0,0x996 ; CLK_SetModuleClock + 150
        0x00000966:    e7ff        ..      B        0x968 ; CLK_SetModuleClock + 104
        0x00000968:    980c        ..      LDR      r0,[sp,#0x30]
        0x0000096a:    0e81        ..      LSRS     r1,r0,#26
        0x0000096c:    200c        .       MOVS     r0,#0xc
        0x0000096e:    4001        .@      ANDS     r1,r1,r0
        0x00000970:    a804        ..      ADD      r0,sp,#0x10
        0x00000972:    5840        @X      LDR      r0,[r0,r1]
        0x00000974:    490a        .I      LDR      r1,[pc,#40] ; [0x9a0] = 0x40000210
        0x00000976:    1840        @.      ADDS     r0,r0,r1
        0x00000978:    9009        ..      STR      r0,[sp,#0x24]
        0x0000097a:    9809        ..      LDR      r0,[sp,#0x24]
        0x0000097c:    6800        .h      LDR      r0,[r0,#0]
        0x0000097e:    9a0c        ..      LDR      r2,[sp,#0x30]
        0x00000980:    0111        ..      LSLS     r1,r2,#4
        0x00000982:    0f49        I.      LSRS     r1,r1,#29
        0x00000984:    01d2        ..      LSLS     r2,r2,#7
        0x00000986:    0ed2        ..      LSRS     r2,r2,#27
        0x00000988:    4091        .@      LSLS     r1,r1,r2
        0x0000098a:    4388        .C      BICS     r0,r0,r1
        0x0000098c:    990b        ..      LDR      r1,[sp,#0x2c]
        0x0000098e:    4308        .C      ORRS     r0,r0,r1
        0x00000990:    9909        ..      LDR      r1,[sp,#0x24]
        0x00000992:    6008        .`      STR      r0,[r1,#0]
        0x00000994:    e7ff        ..      B        0x996 ; CLK_SetModuleClock + 150
        0x00000996:    b00d        ..      ADD      sp,sp,#0x34
        0x00000998:    4770        pG      BX       lr
        0x0000099a:    46c0        .F      MOV      r8,r8
    $d.25
    __arm_cp.12_0
        0x0000099c:    40000220     ..@    DCD    1073742368
    __arm_cp.12_1
        0x000009a0:    40000210    ...@    DCD    1073742352
    $t.22
    CLK_WaitClockReady
        0x000009a4:    b083        ..      SUB      sp,sp,#0xc
        0x000009a6:    9002        ..      STR      r0,[sp,#8]
        0x000009a8:    48b9        .H      LDR      r0,[pc,#740] ; [0xc90] = 0x20000004
        0x000009aa:    6800        .h      LDR      r0,[r0,#0]
        0x000009ac:    0840        @.      LSRS     r0,r0,#1
        0x000009ae:    9001        ..      STR      r0,[sp,#4]
        0x000009b0:    2001        .       MOVS     r0,#1
        0x000009b2:    9000        ..      STR      r0,[sp,#0]
        0x000009b4:    4910        .I      LDR      r1,[pc,#64] ; [0x9f8] = 0x2000010c
        0x000009b6:    2000        .       MOVS     r0,#0
        0x000009b8:    6008        .`      STR      r0,[r1,#0]
        0x000009ba:    e7ff        ..      B        0x9bc ; CLK_WaitClockReady + 24
        0x000009bc:    480f        .H      LDR      r0,[pc,#60] ; [0x9fc] = 0x40000250
        0x000009be:    6800        .h      LDR      r0,[r0,#0]
        0x000009c0:    9902        ..      LDR      r1,[sp,#8]
        0x000009c2:    4008        .@      ANDS     r0,r0,r1
        0x000009c4:    4288        .B      CMP      r0,r1
        0x000009c6:    d009        ..      BEQ      0x9dc ; CLK_WaitClockReady + 56
        0x000009c8:    e7ff        ..      B        0x9ca ; CLK_WaitClockReady + 38
        0x000009ca:    9801        ..      LDR      r0,[sp,#4]
        0x000009cc:    1e40        @.      SUBS     r0,r0,#1
        0x000009ce:    9001        ..      STR      r0,[sp,#4]
        0x000009d0:    b918        ..      CBNZ     r0,0x9da ; CLK_WaitClockReady + 54
        0x000009d2:    e7ff        ..      B        0x9d4 ; CLK_WaitClockReady + 48
        0x000009d4:    2000        .       MOVS     r0,#0
        0x000009d6:    9000        ..      STR      r0,[sp,#0]
        0x000009d8:    e000        ..      B        0x9dc ; CLK_WaitClockReady + 56
        0x000009da:    e7ef        ..      B        0x9bc ; CLK_WaitClockReady + 24
        0x000009dc:    9801        ..      LDR      r0,[sp,#4]
        0x000009de:    b928        (.      CBNZ     r0,0x9ec ; CLK_WaitClockReady + 72
        0x000009e0:    e7ff        ..      B        0x9e2 ; CLK_WaitClockReady + 62
        0x000009e2:    4905        .I      LDR      r1,[pc,#20] ; [0x9f8] = 0x2000010c
        0x000009e4:    2000        .       MOVS     r0,#0
        0x000009e6:    43c0        .C      MVNS     r0,r0
        0x000009e8:    6008        .`      STR      r0,[r1,#0]
        0x000009ea:    e7ff        ..      B        0x9ec ; CLK_WaitClockReady + 72
        0x000009ec:    9800        ..      LDR      r0,[sp,#0]
        0x000009ee:    b003        ..      ADD      sp,sp,#0xc
        0x000009f0:    4770        pG      BX       lr
        0x000009f2:    46c0        .F      MOV      r8,r8
    $d.23
    __arm_cp.11_0
        0x000009f4:    20000004    ...     DCD    536870916
    __arm_cp.11_1
        0x000009f8:    2000010c    ...     DCD    536871180
    __arm_cp.11_2
        0x000009fc:    40000250    P..@    DCD    1073742416
    $t.3
    DumpStack
        0x00000a00:    b081        ..      SUB      sp,sp,#4
        0x00000a02:    9000        ..      STR      r0,[sp,#0]
        0x00000a04:    b001        ..      ADD      sp,sp,#4
        0x00000a06:    4770        pG      BX       lr
    Emulate_EEPROM
        0x00000a08:    b580        ..      PUSH     {r7,lr}
        0x00000a0a:    b082        ..      SUB      sp,sp,#8
        0x00000a0c:    2018        .       MOVS     r0,#0x18
        0x00000a0e:    2104        .!      MOVS     r1,#4
        0x00000a10:    f000fa9e    ....    BL       Init_EEPROM ; 0xf50
        0x00000a14:    9001        ..      STR      r0,[sp,#4]
        0x00000a16:    9801        ..      LDR      r0,[sp,#4]
        0x00000a18:    b128        (.      CBZ      r0,0xa26 ; Emulate_EEPROM + 30
        0x00000a1a:    e7ff        ..      B        0xa1c ; Emulate_EEPROM + 20
        0x00000a1c:    9901        ..      LDR      r1,[sp,#4]
        0x00000a1e:    4804        .H      LDR      r0,[pc,#16] ; [0xa30] = 0x2f2b
        0x00000a20:    f001fd8e    ....    BL       __0printf ; 0x2540
        0x00000a24:    e002        ..      B        0xa2c ; Emulate_EEPROM + 36
        0x00000a26:    f000fcb9    ....    BL       Search_Valid_Page ; 0x139c
        0x00000a2a:    e7ff        ..      B        0xa2c ; Emulate_EEPROM + 36
        0x00000a2c:    b002        ..      ADD      sp,sp,#8
        0x00000a2e:    bd80        ..      POP      {r7,pc}
    $d.29
    __arm_cp.15_0
        0x00000a30:    00002f2b    +/..    DCD    12075
    $t.18
    Emulate_EEPROM_EraseTest
        0x00000a34:    b580        ..      PUSH     {r7,lr}
        0x00000a36:    b084        ..      SUB      sp,sp,#0x10
        0x00000a38:    a903        ..      ADD      r1,sp,#0xc
        0x00000a3a:    9101        ..      STR      r1,[sp,#4]
        0x00000a3c:    2000        .       MOVS     r0,#0
        0x00000a3e:    9002        ..      STR      r0,[sp,#8]
        0x00000a40:    7008        .p      STRB     r0,[r1,#0]
        0x00000a42:    4813        .H      LDR      r0,[pc,#76] ; [0xa90] = 0x2ed2
        0x00000a44:    4913        .I      LDR      r1,[pc,#76] ; [0xa94] = 0x31b4
        0x00000a46:    f001fd7b    ..{.    BL       __0printf ; 0x2540
        0x00000a4a:    f000fc85    ....    BL       SYS_UnlockReg ; 0x1358
        0x00000a4e:    f000f9af    ....    BL       FMC_Open ; 0xdb0
        0x00000a52:    9901        ..      LDR      r1,[sp,#4]
        0x00000a54:    9802        ..      LDR      r0,[sp,#8]
        0x00000a56:    7008        .p      STRB     r0,[r1,#0]
        0x00000a58:    e7ff        ..      B        0xa5a ; Emulate_EEPROM_EraseTest + 38
        0x00000a5a:    a803        ..      ADD      r0,sp,#0xc
        0x00000a5c:    7800        .x      LDRB     r0,[r0,#0]
        0x00000a5e:    2817        .(      CMP      r0,#0x17
        0x00000a60:    dc10        ..      BGT      0xa84 ; Emulate_EEPROM_EraseTest + 80
        0x00000a62:    e7ff        ..      B        0xa64 ; Emulate_EEPROM_EraseTest + 48
        0x00000a64:    a803        ..      ADD      r0,sp,#0xc
        0x00000a66:    7800        .x      LDRB     r0,[r0,#0]
        0x00000a68:    2118        .!      MOVS     r1,#0x18
        0x00000a6a:    fbb0f2f1    ....    UDIV     r2,r0,r1
        0x00000a6e:    4351        QC      MULS     r1,r2,r1
        0x00000a70:    1a40        @.      SUBS     r0,r0,r1
        0x00000a72:    21ff        .!      MOVS     r1,#0xff
        0x00000a74:    f001facc    ....    BL       Write_Data ; 0x2010
        0x00000a78:    e7ff        ..      B        0xa7a ; Emulate_EEPROM_EraseTest + 70
        0x00000a7a:    9803        ..      LDR      r0,[sp,#0xc]
        0x00000a7c:    1c40        @.      ADDS     r0,r0,#1
        0x00000a7e:    a903        ..      ADD      r1,sp,#0xc
        0x00000a80:    7008        .p      STRB     r0,[r1,#0]
        0x00000a82:    e7ea        ..      B        0xa5a ; Emulate_EEPROM_EraseTest + 38
        0x00000a84:    f000f896    ....    BL       FMC_Close ; 0xbb4
        0x00000a88:    f000fc24    ..$.    BL       SYS_LockReg ; 0x12d4
        0x00000a8c:    b004        ..      ADD      sp,sp,#0x10
        0x00000a8e:    bd80        ..      POP      {r7,pc}
    $d.19
    __arm_cp.10_0
        0x00000a90:    00002ed2    ....    DCD    11986
    __arm_cp.10_1
        0x00000a94:    000031b4    .1..    DCD    12724
    $t.26
    Emulate_EEPROM_ReadTest
        0x00000a98:    b580        ..      PUSH     {r7,lr}
        0x00000a9a:    b086        ..      SUB      sp,sp,#0x18
        0x00000a9c:    a905        ..      ADD      r1,sp,#0x14
        0x00000a9e:    9102        ..      STR      r1,[sp,#8]
        0x00000aa0:    2000        .       MOVS     r0,#0
        0x00000aa2:    9003        ..      STR      r0,[sp,#0xc]
        0x00000aa4:    7008        .p      STRB     r0,[r1,#0]
        0x00000aa6:    a904        ..      ADD      r1,sp,#0x10
        0x00000aa8:    7008        .p      STRB     r0,[r1,#0]
        0x00000aaa:    481b        .H      LDR      r0,[pc,#108] ; [0xb18] = 0x30cf
        0x00000aac:    491b        .I      LDR      r1,[pc,#108] ; [0xb1c] = 0x319c
        0x00000aae:    f001fd47    ..G.    BL       __0printf ; 0x2540
        0x00000ab2:    f000fc51    ..Q.    BL       SYS_UnlockReg ; 0x1358
        0x00000ab6:    f000f97b    ..{.    BL       FMC_Open ; 0xdb0
        0x00000aba:    9902        ..      LDR      r1,[sp,#8]
        0x00000abc:    9803        ..      LDR      r0,[sp,#0xc]
        0x00000abe:    7008        .p      STRB     r0,[r1,#0]
        0x00000ac0:    e7ff        ..      B        0xac2 ; Emulate_EEPROM_ReadTest + 42
        0x00000ac2:    a805        ..      ADD      r0,sp,#0x14
        0x00000ac4:    7800        .x      LDRB     r0,[r0,#0]
        0x00000ac6:    2817        .(      CMP      r0,#0x17
        0x00000ac8:    dc1f        ..      BGT      0xb0a ; Emulate_EEPROM_ReadTest + 114
        0x00000aca:    e7ff        ..      B        0xacc ; Emulate_EEPROM_ReadTest + 52
        0x00000acc:    a805        ..      ADD      r0,sp,#0x14
        0x00000ace:    7800        .x      LDRB     r0,[r0,#0]
        0x00000ad0:    2118        .!      MOVS     r1,#0x18
        0x00000ad2:    fbb0f2f1    ....    UDIV     r2,r0,r1
        0x00000ad6:    4351        QC      MULS     r1,r2,r1
        0x00000ad8:    1a40        @.      SUBS     r0,r0,r1
        0x00000ada:    a904        ..      ADD      r1,sp,#0x10
        0x00000adc:    9101        ..      STR      r1,[sp,#4]
        0x00000ade:    f000fb8f    ....    BL       Read_Data ; 0x1200
        0x00000ae2:    9801        ..      LDR      r0,[sp,#4]
        0x00000ae4:    7801        .x      LDRB     r1,[r0,#0]
        0x00000ae6:    480e        .H      LDR      r0,[pc,#56] ; [0xb20] = 0x3193
        0x00000ae8:    f001fd2a    ..*.    BL       __0printf ; 0x2540
        0x00000aec:    9805        ..      LDR      r0,[sp,#0x14]
        0x00000aee:    1c40        @.      ADDS     r0,r0,#1
        0x00000af0:    0740        @.      LSLS     r0,r0,#29
        0x00000af2:    b920         .      CBNZ     r0,0xafe ; Emulate_EEPROM_ReadTest + 102
        0x00000af4:    e7ff        ..      B        0xaf6 ; Emulate_EEPROM_ReadTest + 94
        0x00000af6:    480b        .H      LDR      r0,[pc,#44] ; [0xb24] = 0x3177
        0x00000af8:    f001fd22    ..".    BL       __0printf ; 0x2540
        0x00000afc:    e7ff        ..      B        0xafe ; Emulate_EEPROM_ReadTest + 102
        0x00000afe:    e7ff        ..      B        0xb00 ; Emulate_EEPROM_ReadTest + 104
        0x00000b00:    9805        ..      LDR      r0,[sp,#0x14]
        0x00000b02:    1c40        @.      ADDS     r0,r0,#1
        0x00000b04:    a905        ..      ADD      r1,sp,#0x14
        0x00000b06:    7008        .p      STRB     r0,[r1,#0]
        0x00000b08:    e7db        ..      B        0xac2 ; Emulate_EEPROM_ReadTest + 42
        0x00000b0a:    f000f853    ..S.    BL       FMC_Close ; 0xbb4
        0x00000b0e:    f000fbe1    ....    BL       SYS_LockReg ; 0x12d4
        0x00000b12:    b006        ..      ADD      sp,sp,#0x18
        0x00000b14:    bd80        ..      POP      {r7,pc}
        0x00000b16:    46c0        .F      MOV      r8,r8
    $d.27
    __arm_cp.14_0
        0x00000b18:    000030cf    .0..    DCD    12495
    __arm_cp.14_1
        0x00000b1c:    0000319c    .1..    DCD    12700
    __arm_cp.14_2
        0x00000b20:    00003193    .1..    DCD    12691
    __arm_cp.14_3
        0x00000b24:    00003177    w1..    DCD    12663
    $t.24
    Emulate_EEPROM_WriteTest
        0x00000b28:    b510        ..      PUSH     {r4,lr}
        0x00000b2a:    b084        ..      SUB      sp,sp,#0x10
        0x00000b2c:    a903        ..      ADD      r1,sp,#0xc
        0x00000b2e:    2000        .       MOVS     r0,#0
        0x00000b30:    9001        ..      STR      r0,[sp,#4]
        0x00000b32:    7008        .p      STRB     r0,[r1,#0]
        0x00000b34:    a902        ..      ADD      r1,sp,#8
        0x00000b36:    9100        ..      STR      r1,[sp,#0]
        0x00000b38:    7008        .p      STRB     r0,[r1,#0]
        0x00000b3a:    481b        .H      LDR      r0,[pc,#108] ; [0xba8] = 0x20000028
        0x00000b3c:    7802        .x      LDRB     r2,[r0,#0]
        0x00000b3e:    481b        .H      LDR      r0,[pc,#108] ; [0xbac] = 0x2f12
        0x00000b40:    491b        .I      LDR      r1,[pc,#108] ; [0xbb0] = 0x31cd
        0x00000b42:    f001fcfd    ....    BL       __0printf ; 0x2540
        0x00000b46:    f000fc07    ....    BL       SYS_UnlockReg ; 0x1358
        0x00000b4a:    f000f931    ..1.    BL       FMC_Open ; 0xdb0
        0x00000b4e:    9900        ..      LDR      r1,[sp,#0]
        0x00000b50:    9801        ..      LDR      r0,[sp,#4]
        0x00000b52:    7008        .p      STRB     r0,[r1,#0]
        0x00000b54:    e7ff        ..      B        0xb56 ; Emulate_EEPROM_WriteTest + 46
        0x00000b56:    a802        ..      ADD      r0,sp,#8
        0x00000b58:    7800        .x      LDRB     r0,[r0,#0]
        0x00000b5a:    2817        .(      CMP      r0,#0x17
        0x00000b5c:    dc17        ..      BGT      0xb8e ; Emulate_EEPROM_WriteTest + 102
        0x00000b5e:    e7ff        ..      B        0xb60 ; Emulate_EEPROM_WriteTest + 56
        0x00000b60:    a802        ..      ADD      r0,sp,#8
        0x00000b62:    7800        .x      LDRB     r0,[r0,#0]
        0x00000b64:    2118        .!      MOVS     r1,#0x18
        0x00000b66:    fbb0f2f1    ....    UDIV     r2,r0,r1
        0x00000b6a:    4351        QC      MULS     r1,r2,r1
        0x00000b6c:    1a40        @.      SUBS     r0,r0,r1
        0x00000b6e:    490e        .I      LDR      r1,[pc,#56] ; [0xba8] = 0x20000028
        0x00000b70:    7809        .x      LDRB     r1,[r1,#0]
        0x00000b72:    9a03        ..      LDR      r2,[sp,#0xc]
        0x00000b74:    1c53        S.      ADDS     r3,r2,#1
        0x00000b76:    ac03        ..      ADD      r4,sp,#0xc
        0x00000b78:    7023        #p      STRB     r3,[r4,#0]
        0x00000b7a:    1889        ..      ADDS     r1,r1,r2
        0x00000b7c:    b2c9        ..      UXTB     r1,r1
        0x00000b7e:    f001fa47    ..G.    BL       Write_Data ; 0x2010
        0x00000b82:    e7ff        ..      B        0xb84 ; Emulate_EEPROM_WriteTest + 92
        0x00000b84:    9802        ..      LDR      r0,[sp,#8]
        0x00000b86:    1c40        @.      ADDS     r0,r0,#1
        0x00000b88:    a902        ..      ADD      r1,sp,#8
        0x00000b8a:    7008        .p      STRB     r0,[r1,#0]
        0x00000b8c:    e7e3        ..      B        0xb56 ; Emulate_EEPROM_WriteTest + 46
        0x00000b8e:    4906        .I      LDR      r1,[pc,#24] ; [0xba8] = 0x20000028
        0x00000b90:    7808        .x      LDRB     r0,[r1,#0]
        0x00000b92:    1c40        @.      ADDS     r0,r0,#1
        0x00000b94:    7008        .p      STRB     r0,[r1,#0]
        0x00000b96:    f000f80d    ....    BL       FMC_Close ; 0xbb4
        0x00000b9a:    f000fb9b    ....    BL       SYS_LockReg ; 0x12d4
        0x00000b9e:    f7ffff7b    ..{.    BL       Emulate_EEPROM_ReadTest ; 0xa98
        0x00000ba2:    b004        ..      ADD      sp,sp,#0x10
        0x00000ba4:    bd10        ..      POP      {r4,pc}
        0x00000ba6:    46c0        .F      MOV      r8,r8
    $d.25
    __arm_cp.13_0
        0x00000ba8:    20000028    (..     DCD    536870952
    __arm_cp.13_1
        0x00000bac:    00002f12    ./..    DCD    12050
    __arm_cp.13_2
        0x00000bb0:    000031cd    .1..    DCD    12749
    $t.0
    FMC_Close
        0x00000bb4:    4981        .I      LDR      r1,[pc,#516] ; [0xdbc] = 0x4000c000
        0x00000bb6:    6808        .h      LDR      r0,[r1,#0]
        0x00000bb8:    2201        ."      MOVS     r2,#1
        0x00000bba:    4390        .C      BICS     r0,r0,r2
        0x00000bbc:    6008        .`      STR      r0,[r1,#0]
        0x00000bbe:    4770        pG      BX       lr
    FMC_Enable
        0x00000bc0:    b580        ..      PUSH     {r7,lr}
        0x00000bc2:    f000fbd9    ....    BL       SYS_UnlockReg ; 0x1378
        0x00000bc6:    4907        .I      LDR      r1,[pc,#28] ; [0xbe4] = 0x40000204
        0x00000bc8:    6808        .h      LDR      r0,[r1,#0]
        0x00000bca:    2202        ."      MOVS     r2,#2
        0x00000bcc:    4310        .C      ORRS     r0,r0,r2
        0x00000bce:    6008        .`      STR      r0,[r1,#0]
        0x00000bd0:    497a        zI      LDR      r1,[pc,#488] ; [0xdbc] = 0x4000c000
        0x00000bd2:    6808        .h      LDR      r0,[r1,#0]
        0x00000bd4:    2201        ."      MOVS     r2,#1
        0x00000bd6:    4310        .C      ORRS     r0,r0,r2
        0x00000bd8:    6008        .`      STR      r0,[r1,#0]
        0x00000bda:    6808        .h      LDR      r0,[r1,#0]
        0x00000bdc:    2208        ."      MOVS     r2,#8
        0x00000bde:    4310        .C      ORRS     r0,r0,r2
        0x00000be0:    6008        .`      STR      r0,[r1,#0]
        0x00000be2:    bd80        ..      POP      {r7,pc}
    $d.1
    __arm_cp.0_0
        0x00000be4:    40000204    ...@    DCD    1073742340
    $t.2
    FMC_Erase
        0x00000be8:    b580        ..      PUSH     {r7,lr}
        0x00000bea:    b084        ..      SUB      sp,sp,#0x10
        0x00000bec:    9002        ..      STR      r0,[sp,#8]
        0x00000bee:    49b6        .I      LDR      r1,[pc,#728] ; [0xec8] = 0x20000110
        0x00000bf0:    2000        .       MOVS     r0,#0
        0x00000bf2:    6008        .`      STR      r0,[r1,#0]
        0x00000bf4:    9802        ..      LDR      r0,[sp,#8]
        0x00000bf6:    2101        .!      MOVS     r1,#1
        0x00000bf8:    0549        I.      LSLS     r1,r1,#21
        0x00000bfa:    4288        .B      CMP      r0,r1
        0x00000bfc:    d104        ..      BNE      0xc08 ; FMC_Erase + 32
        0x00000bfe:    e7ff        ..      B        0xc00 ; FMC_Erase + 24
        0x00000c00:    f000f848    ..H.    BL       FMC_Erase_SPROM ; 0xc94
        0x00000c04:    9003        ..      STR      r0,[sp,#0xc]
        0x00000c06:    e03f        ?.      B        0xc88 ; FMC_Erase + 160
        0x00000c08:    49b0        .I      LDR      r1,[pc,#704] ; [0xecc] = 0x4000c00c
        0x00000c0a:    2022        "       MOVS     r0,#0x22
        0x00000c0c:    6008        .`      STR      r0,[r1,#0]
        0x00000c0e:    9802        ..      LDR      r0,[sp,#8]
        0x00000c10:    49af        .I      LDR      r1,[pc,#700] ; [0xed0] = 0x4000c004
        0x00000c12:    6008        .`      STR      r0,[r1,#0]
        0x00000c14:    49b0        .I      LDR      r1,[pc,#704] ; [0xed8] = 0x4000c010
        0x00000c16:    2001        .       MOVS     r0,#1
        0x00000c18:    6008        .`      STR      r0,[r1,#0]
        0x00000c1a:    48b0        .H      LDR      r0,[pc,#704] ; [0xedc] = 0x20000004
        0x00000c1c:    6800        .h      LDR      r0,[r0,#0]
        0x00000c1e:    210a        .!      MOVS     r1,#0xa
        0x00000c20:    fbb0f0f1    ....    UDIV     r0,r0,r1
        0x00000c24:    0840        @.      LSRS     r0,r0,#1
        0x00000c26:    9001        ..      STR      r0,[sp,#4]
        0x00000c28:    e7ff        ..      B        0xc2a ; FMC_Erase + 66
        0x00000c2a:    9801        ..      LDR      r0,[sp,#4]
        0x00000c2c:    1e41        A.      SUBS     r1,r0,#1
        0x00000c2e:    9101        ..      STR      r1,[sp,#4]
        0x00000c30:    2000        .       MOVS     r0,#0
        0x00000c32:    9000        ..      STR      r0,[sp,#0]
        0x00000c34:    b131        1.      CBZ      r1,0xc44 ; FMC_Erase + 92
        0x00000c36:    e7ff        ..      B        0xc38 ; FMC_Erase + 80
        0x00000c38:    48a7        .H      LDR      r0,[pc,#668] ; [0xed8] = 0x4000c010
        0x00000c3a:    6800        .h      LDR      r0,[r0,#0]
        0x00000c3c:    2101        .!      MOVS     r1,#1
        0x00000c3e:    4008        .@      ANDS     r0,r0,r1
        0x00000c40:    9000        ..      STR      r0,[sp,#0]
        0x00000c42:    e7ff        ..      B        0xc44 ; FMC_Erase + 92
        0x00000c44:    9800        ..      LDR      r0,[sp,#0]
        0x00000c46:    07c0        ..      LSLS     r0,r0,#31
        0x00000c48:    b108        ..      CBZ      r0,0xc4e ; FMC_Erase + 102
        0x00000c4a:    e7ff        ..      B        0xc4c ; FMC_Erase + 100
        0x00000c4c:    e7ed        ..      B        0xc2a ; FMC_Erase + 66
        0x00000c4e:    9801        ..      LDR      r0,[sp,#4]
        0x00000c50:    b930        0.      CBNZ     r0,0xc60 ; FMC_Erase + 120
        0x00000c52:    e7ff        ..      B        0xc54 ; FMC_Erase + 108
        0x00000c54:    499c        .I      LDR      r1,[pc,#624] ; [0xec8] = 0x20000110
        0x00000c56:    2000        .       MOVS     r0,#0
        0x00000c58:    43c0        .C      MVNS     r0,r0
        0x00000c5a:    6008        .`      STR      r0,[r1,#0]
        0x00000c5c:    9003        ..      STR      r0,[sp,#0xc]
        0x00000c5e:    e013        ..      B        0xc88 ; FMC_Erase + 160
        0x00000c60:    4856        VH      LDR      r0,[pc,#344] ; [0xdbc] = 0x4000c000
        0x00000c62:    6800        .h      LDR      r0,[r0,#0]
        0x00000c64:    0640        @.      LSLS     r0,r0,#25
        0x00000c66:    2800        .(      CMP      r0,#0
        0x00000c68:    d50b        ..      BPL      0xc82 ; FMC_Erase + 154
        0x00000c6a:    e7ff        ..      B        0xc6c ; FMC_Erase + 132
        0x00000c6c:    4953        SI      LDR      r1,[pc,#332] ; [0xdbc] = 0x4000c000
        0x00000c6e:    6808        .h      LDR      r0,[r1,#0]
        0x00000c70:    2240        @"      MOVS     r2,#0x40
        0x00000c72:    4310        .C      ORRS     r0,r0,r2
        0x00000c74:    6008        .`      STR      r0,[r1,#0]
        0x00000c76:    4994        .I      LDR      r1,[pc,#592] ; [0xec8] = 0x20000110
        0x00000c78:    2000        .       MOVS     r0,#0
        0x00000c7a:    43c0        .C      MVNS     r0,r0
        0x00000c7c:    6008        .`      STR      r0,[r1,#0]
        0x00000c7e:    9003        ..      STR      r0,[sp,#0xc]
        0x00000c80:    e002        ..      B        0xc88 ; FMC_Erase + 160
        0x00000c82:    2000        .       MOVS     r0,#0
        0x00000c84:    9003        ..      STR      r0,[sp,#0xc]
        0x00000c86:    e7ff        ..      B        0xc88 ; FMC_Erase + 160
        0x00000c88:    9803        ..      LDR      r0,[sp,#0xc]
        0x00000c8a:    b004        ..      ADD      sp,sp,#0x10
        0x00000c8c:    bd80        ..      POP      {r7,pc}
        0x00000c8e:    46c0        .F      MOV      r8,r8
    $d.3
    __arm_cp.1_4
        0x00000c90:    20000004    ...     DCD    536870916
    $t.4
    FMC_Erase_SPROM
        0x00000c94:    b084        ..      SUB      sp,sp,#0x10
        0x00000c96:    498c        .I      LDR      r1,[pc,#560] ; [0xec8] = 0x20000110
        0x00000c98:    2000        .       MOVS     r0,#0
        0x00000c9a:    6008        .`      STR      r0,[r1,#0]
        0x00000c9c:    498b        .I      LDR      r1,[pc,#556] ; [0xecc] = 0x4000c00c
        0x00000c9e:    2022        "       MOVS     r0,#0x22
        0x00000ca0:    6008        .`      STR      r0,[r1,#0]
        0x00000ca2:    2001        .       MOVS     r0,#1
        0x00000ca4:    0541        A.      LSLS     r1,r0,#21
        0x00000ca6:    4a8a        .J      LDR      r2,[pc,#552] ; [0xed0] = 0x4000c004
        0x00000ca8:    6011        .`      STR      r1,[r2,#0]
        0x00000caa:    4a8a        .J      LDR      r2,[pc,#552] ; [0xed4] = 0x4000c008
        0x00000cac:    493e        >I      LDR      r1,[pc,#248] ; [0xda8] = 0x55aa03
        0x00000cae:    6011        .`      STR      r1,[r2,#0]
        0x00000cb0:    4989        .I      LDR      r1,[pc,#548] ; [0xed8] = 0x4000c010
        0x00000cb2:    6008        .`      STR      r0,[r1,#0]
        0x00000cb4:    4889        .H      LDR      r0,[pc,#548] ; [0xedc] = 0x20000004
        0x00000cb6:    6800        .h      LDR      r0,[r0,#0]
        0x00000cb8:    210a        .!      MOVS     r1,#0xa
        0x00000cba:    fbb0f0f1    ....    UDIV     r0,r0,r1
        0x00000cbe:    0840        @.      LSRS     r0,r0,#1
        0x00000cc0:    9002        ..      STR      r0,[sp,#8]
        0x00000cc2:    e7ff        ..      B        0xcc4 ; FMC_Erase_SPROM + 48
        0x00000cc4:    9802        ..      LDR      r0,[sp,#8]
        0x00000cc6:    1e41        A.      SUBS     r1,r0,#1
        0x00000cc8:    9102        ..      STR      r1,[sp,#8]
        0x00000cca:    2000        .       MOVS     r0,#0
        0x00000ccc:    9001        ..      STR      r0,[sp,#4]
        0x00000cce:    b131        1.      CBZ      r1,0xcde ; FMC_Erase_SPROM + 74
        0x00000cd0:    e7ff        ..      B        0xcd2 ; FMC_Erase_SPROM + 62
        0x00000cd2:    4881        .H      LDR      r0,[pc,#516] ; [0xed8] = 0x4000c010
        0x00000cd4:    6800        .h      LDR      r0,[r0,#0]
        0x00000cd6:    2101        .!      MOVS     r1,#1
        0x00000cd8:    4008        .@      ANDS     r0,r0,r1
        0x00000cda:    9001        ..      STR      r0,[sp,#4]
        0x00000cdc:    e7ff        ..      B        0xcde ; FMC_Erase_SPROM + 74
        0x00000cde:    9801        ..      LDR      r0,[sp,#4]
        0x00000ce0:    07c0        ..      LSLS     r0,r0,#31
        0x00000ce2:    b108        ..      CBZ      r0,0xce8 ; FMC_Erase_SPROM + 84
        0x00000ce4:    e7ff        ..      B        0xce6 ; FMC_Erase_SPROM + 82
        0x00000ce6:    e7ed        ..      B        0xcc4 ; FMC_Erase_SPROM + 48
        0x00000ce8:    9802        ..      LDR      r0,[sp,#8]
        0x00000cea:    b930        0.      CBNZ     r0,0xcfa ; FMC_Erase_SPROM + 102
        0x00000cec:    e7ff        ..      B        0xcee ; FMC_Erase_SPROM + 90
        0x00000cee:    4976        vI      LDR      r1,[pc,#472] ; [0xec8] = 0x20000110
        0x00000cf0:    2000        .       MOVS     r0,#0
        0x00000cf2:    43c0        .C      MVNS     r0,r0
        0x00000cf4:    6008        .`      STR      r0,[r1,#0]
        0x00000cf6:    9003        ..      STR      r0,[sp,#0xc]
        0x00000cf8:    e053        S.      B        0xda2 ; FMC_Erase_SPROM + 270
        0x00000cfa:    4830        0H      LDR      r0,[pc,#192] ; [0xdbc] = 0x4000c000
        0x00000cfc:    6800        .h      LDR      r0,[r0,#0]
        0x00000cfe:    0640        @.      LSLS     r0,r0,#25
        0x00000d00:    2800        .(      CMP      r0,#0
        0x00000d02:    d50b        ..      BPL      0xd1c ; FMC_Erase_SPROM + 136
        0x00000d04:    e7ff        ..      B        0xd06 ; FMC_Erase_SPROM + 114
        0x00000d06:    492d        -I      LDR      r1,[pc,#180] ; [0xdbc] = 0x4000c000
        0x00000d08:    6808        .h      LDR      r0,[r1,#0]
        0x00000d0a:    2240        @"      MOVS     r2,#0x40
        0x00000d0c:    4310        .C      ORRS     r0,r0,r2
        0x00000d0e:    6008        .`      STR      r0,[r1,#0]
        0x00000d10:    496d        mI      LDR      r1,[pc,#436] ; [0xec8] = 0x20000110
        0x00000d12:    2000        .       MOVS     r0,#0
        0x00000d14:    43c0        .C      MVNS     r0,r0
        0x00000d16:    6008        .`      STR      r0,[r1,#0]
        0x00000d18:    9003        ..      STR      r0,[sp,#0xc]
        0x00000d1a:    e042        B.      B        0xda2 ; FMC_Erase_SPROM + 270
        0x00000d1c:    496b        kI      LDR      r1,[pc,#428] ; [0xecc] = 0x4000c00c
        0x00000d1e:    2022        "       MOVS     r0,#0x22
        0x00000d20:    6008        .`      STR      r0,[r1,#0]
        0x00000d22:    496b        kI      LDR      r1,[pc,#428] ; [0xed0] = 0x4000c004
        0x00000d24:    4821        !H      LDR      r0,[pc,#132] ; [0xdac] = 0x200200
        0x00000d26:    6008        .`      STR      r0,[r1,#0]
        0x00000d28:    496a        jI      LDR      r1,[pc,#424] ; [0xed4] = 0x4000c008
        0x00000d2a:    481f        .H      LDR      r0,[pc,#124] ; [0xda8] = 0x55aa03
        0x00000d2c:    6008        .`      STR      r0,[r1,#0]
        0x00000d2e:    496a        jI      LDR      r1,[pc,#424] ; [0xed8] = 0x4000c010
        0x00000d30:    2001        .       MOVS     r0,#1
        0x00000d32:    6008        .`      STR      r0,[r1,#0]
        0x00000d34:    4869        iH      LDR      r0,[pc,#420] ; [0xedc] = 0x20000004
        0x00000d36:    6800        .h      LDR      r0,[r0,#0]
        0x00000d38:    210a        .!      MOVS     r1,#0xa
        0x00000d3a:    fbb0f0f1    ....    UDIV     r0,r0,r1
        0x00000d3e:    0840        @.      LSRS     r0,r0,#1
        0x00000d40:    9002        ..      STR      r0,[sp,#8]
        0x00000d42:    e7ff        ..      B        0xd44 ; FMC_Erase_SPROM + 176
        0x00000d44:    9802        ..      LDR      r0,[sp,#8]
        0x00000d46:    1e41        A.      SUBS     r1,r0,#1
        0x00000d48:    9102        ..      STR      r1,[sp,#8]
        0x00000d4a:    2000        .       MOVS     r0,#0
        0x00000d4c:    9000        ..      STR      r0,[sp,#0]
        0x00000d4e:    b131        1.      CBZ      r1,0xd5e ; FMC_Erase_SPROM + 202
        0x00000d50:    e7ff        ..      B        0xd52 ; FMC_Erase_SPROM + 190
        0x00000d52:    4861        aH      LDR      r0,[pc,#388] ; [0xed8] = 0x4000c010
        0x00000d54:    6800        .h      LDR      r0,[r0,#0]
        0x00000d56:    2101        .!      MOVS     r1,#1
        0x00000d58:    4008        .@      ANDS     r0,r0,r1
        0x00000d5a:    9000        ..      STR      r0,[sp,#0]
        0x00000d5c:    e7ff        ..      B        0xd5e ; FMC_Erase_SPROM + 202
        0x00000d5e:    9800        ..      LDR      r0,[sp,#0]
        0x00000d60:    07c0        ..      LSLS     r0,r0,#31
        0x00000d62:    b108        ..      CBZ      r0,0xd68 ; FMC_Erase_SPROM + 212
        0x00000d64:    e7ff        ..      B        0xd66 ; FMC_Erase_SPROM + 210
        0x00000d66:    e7ed        ..      B        0xd44 ; FMC_Erase_SPROM + 176
        0x00000d68:    9802        ..      LDR      r0,[sp,#8]
        0x00000d6a:    b930        0.      CBNZ     r0,0xd7a ; FMC_Erase_SPROM + 230
        0x00000d6c:    e7ff        ..      B        0xd6e ; FMC_Erase_SPROM + 218
        0x00000d6e:    4956        VI      LDR      r1,[pc,#344] ; [0xec8] = 0x20000110
        0x00000d70:    2000        .       MOVS     r0,#0
        0x00000d72:    43c0        .C      MVNS     r0,r0
        0x00000d74:    6008        .`      STR      r0,[r1,#0]
        0x00000d76:    9003        ..      STR      r0,[sp,#0xc]
        0x00000d78:    e013        ..      B        0xda2 ; FMC_Erase_SPROM + 270
        0x00000d7a:    4810        .H      LDR      r0,[pc,#64] ; [0xdbc] = 0x4000c000
        0x00000d7c:    6800        .h      LDR      r0,[r0,#0]
        0x00000d7e:    0640        @.      LSLS     r0,r0,#25
        0x00000d80:    2800        .(      CMP      r0,#0
        0x00000d82:    d50b        ..      BPL      0xd9c ; FMC_Erase_SPROM + 264
        0x00000d84:    e7ff        ..      B        0xd86 ; FMC_Erase_SPROM + 242
        0x00000d86:    490d        .I      LDR      r1,[pc,#52] ; [0xdbc] = 0x4000c000
        0x00000d88:    6808        .h      LDR      r0,[r1,#0]
        0x00000d8a:    2240        @"      MOVS     r2,#0x40
        0x00000d8c:    4310        .C      ORRS     r0,r0,r2
        0x00000d8e:    6008        .`      STR      r0,[r1,#0]
        0x00000d90:    494d        MI      LDR      r1,[pc,#308] ; [0xec8] = 0x20000110
        0x00000d92:    2000        .       MOVS     r0,#0
        0x00000d94:    43c0        .C      MVNS     r0,r0
        0x00000d96:    6008        .`      STR      r0,[r1,#0]
        0x00000d98:    9003        ..      STR      r0,[sp,#0xc]
        0x00000d9a:    e002        ..      B        0xda2 ; FMC_Erase_SPROM + 270
        0x00000d9c:    2000        .       MOVS     r0,#0
        0x00000d9e:    9003        ..      STR      r0,[sp,#0xc]
        0x00000da0:    e7ff        ..      B        0xda2 ; FMC_Erase_SPROM + 270
        0x00000da2:    9803        ..      LDR      r0,[sp,#0xc]
        0x00000da4:    b004        ..      ADD      sp,sp,#0x10
        0x00000da6:    4770        pG      BX       lr
    $d.5
    __arm_cp.2_4
        0x00000da8:    0055aa03    ..U.    DCD    5614083
    __arm_cp.2_8
        0x00000dac:    00200200    .. .    DCD    2097664
    $t.6
    FMC_Open
        0x00000db0:    4902        .I      LDR      r1,[pc,#8] ; [0xdbc] = 0x4000c000
        0x00000db2:    6808        .h      LDR      r0,[r1,#0]
        0x00000db4:    2201        ."      MOVS     r2,#1
        0x00000db6:    4310        .C      ORRS     r0,r0,r2
        0x00000db8:    6008        .`      STR      r0,[r1,#0]
        0x00000dba:    4770        pG      BX       lr
    $d.7
    __arm_cp.3_0
        0x00000dbc:    4000c000    ...@    DCD    1073790976
    $t.8
    FMC_Read
        0x00000dc0:    b084        ..      SUB      sp,sp,#0x10
        0x00000dc2:    9002        ..      STR      r0,[sp,#8]
        0x00000dc4:    4940        @I      LDR      r1,[pc,#256] ; [0xec8] = 0x20000110
        0x00000dc6:    2000        .       MOVS     r0,#0
        0x00000dc8:    6008        .`      STR      r0,[r1,#0]
        0x00000dca:    4940        @I      LDR      r1,[pc,#256] ; [0xecc] = 0x4000c00c
        0x00000dcc:    6008        .`      STR      r0,[r1,#0]
        0x00000dce:    9802        ..      LDR      r0,[sp,#8]
        0x00000dd0:    493f        ?I      LDR      r1,[pc,#252] ; [0xed0] = 0x4000c004
        0x00000dd2:    6008        .`      STR      r0,[r1,#0]
        0x00000dd4:    4940        @I      LDR      r1,[pc,#256] ; [0xed8] = 0x4000c010
        0x00000dd6:    2001        .       MOVS     r0,#1
        0x00000dd8:    6008        .`      STR      r0,[r1,#0]
        0x00000dda:    4840        @H      LDR      r0,[pc,#256] ; [0xedc] = 0x20000004
        0x00000ddc:    6800        .h      LDR      r0,[r0,#0]
        0x00000dde:    210a        .!      MOVS     r1,#0xa
        0x00000de0:    fbb0f0f1    ....    UDIV     r0,r0,r1
        0x00000de4:    0880        ..      LSRS     r0,r0,#2
        0x00000de6:    9001        ..      STR      r0,[sp,#4]
        0x00000de8:    e7ff        ..      B        0xdea ; FMC_Read + 42
        0x00000dea:    9801        ..      LDR      r0,[sp,#4]
        0x00000dec:    1e41        A.      SUBS     r1,r0,#1
        0x00000dee:    9101        ..      STR      r1,[sp,#4]
        0x00000df0:    2000        .       MOVS     r0,#0
        0x00000df2:    9000        ..      STR      r0,[sp,#0]
        0x00000df4:    b131        1.      CBZ      r1,0xe04 ; FMC_Read + 68
        0x00000df6:    e7ff        ..      B        0xdf8 ; FMC_Read + 56
        0x00000df8:    4837        7H      LDR      r0,[pc,#220] ; [0xed8] = 0x4000c010
        0x00000dfa:    6800        .h      LDR      r0,[r0,#0]
        0x00000dfc:    2101        .!      MOVS     r1,#1
        0x00000dfe:    4008        .@      ANDS     r0,r0,r1
        0x00000e00:    9000        ..      STR      r0,[sp,#0]
        0x00000e02:    e7ff        ..      B        0xe04 ; FMC_Read + 68
        0x00000e04:    9800        ..      LDR      r0,[sp,#0]
        0x00000e06:    07c0        ..      LSLS     r0,r0,#31
        0x00000e08:    b108        ..      CBZ      r0,0xe0e ; FMC_Read + 78
        0x00000e0a:    e7ff        ..      B        0xe0c ; FMC_Read + 76
        0x00000e0c:    e7ed        ..      B        0xdea ; FMC_Read + 42
        0x00000e0e:    9801        ..      LDR      r0,[sp,#4]
        0x00000e10:    b930        0.      CBNZ     r0,0xe20 ; FMC_Read + 96
        0x00000e12:    e7ff        ..      B        0xe14 ; FMC_Read + 84
        0x00000e14:    492c        ,I      LDR      r1,[pc,#176] ; [0xec8] = 0x20000110
        0x00000e16:    2000        .       MOVS     r0,#0
        0x00000e18:    43c0        .C      MVNS     r0,r0
        0x00000e1a:    6008        .`      STR      r0,[r1,#0]
        0x00000e1c:    9003        ..      STR      r0,[sp,#0xc]
        0x00000e1e:    e003        ..      B        0xe28 ; FMC_Read + 104
        0x00000e20:    482c        ,H      LDR      r0,[pc,#176] ; [0xed4] = 0x4000c008
        0x00000e22:    6800        .h      LDR      r0,[r0,#0]
        0x00000e24:    9003        ..      STR      r0,[sp,#0xc]
        0x00000e26:    e7ff        ..      B        0xe28 ; FMC_Read + 104
        0x00000e28:    9803        ..      LDR      r0,[sp,#0xc]
        0x00000e2a:    b004        ..      ADD      sp,sp,#0x10
        0x00000e2c:    4770        pG      BX       lr
        0x00000e2e:    46c0        .F      MOV      r8,r8
    FMC_Write
        0x00000e30:    b085        ..      SUB      sp,sp,#0x14
        0x00000e32:    9003        ..      STR      r0,[sp,#0xc]
        0x00000e34:    9102        ..      STR      r1,[sp,#8]
        0x00000e36:    4924        $I      LDR      r1,[pc,#144] ; [0xec8] = 0x20000110
        0x00000e38:    2000        .       MOVS     r0,#0
        0x00000e3a:    6008        .`      STR      r0,[r1,#0]
        0x00000e3c:    4923        #I      LDR      r1,[pc,#140] ; [0xecc] = 0x4000c00c
        0x00000e3e:    2021        !       MOVS     r0,#0x21
        0x00000e40:    6008        .`      STR      r0,[r1,#0]
        0x00000e42:    9803        ..      LDR      r0,[sp,#0xc]
        0x00000e44:    4922        "I      LDR      r1,[pc,#136] ; [0xed0] = 0x4000c004
        0x00000e46:    6008        .`      STR      r0,[r1,#0]
        0x00000e48:    9802        ..      LDR      r0,[sp,#8]
        0x00000e4a:    4922        "I      LDR      r1,[pc,#136] ; [0xed4] = 0x4000c008
        0x00000e4c:    6008        .`      STR      r0,[r1,#0]
        0x00000e4e:    4922        "I      LDR      r1,[pc,#136] ; [0xed8] = 0x4000c010
        0x00000e50:    2001        .       MOVS     r0,#1
        0x00000e52:    6008        .`      STR      r0,[r1,#0]
        0x00000e54:    4821        !H      LDR      r0,[pc,#132] ; [0xedc] = 0x20000004
        0x00000e56:    6800        .h      LDR      r0,[r0,#0]
        0x00000e58:    210a        .!      MOVS     r1,#0xa
        0x00000e5a:    fbb0f0f1    ....    UDIV     r0,r0,r1
        0x00000e5e:    0880        ..      LSRS     r0,r0,#2
        0x00000e60:    9001        ..      STR      r0,[sp,#4]
        0x00000e62:    e7ff        ..      B        0xe64 ; FMC_Write + 52
        0x00000e64:    9801        ..      LDR      r0,[sp,#4]
        0x00000e66:    1e41        A.      SUBS     r1,r0,#1
        0x00000e68:    9101        ..      STR      r1,[sp,#4]
        0x00000e6a:    2000        .       MOVS     r0,#0
        0x00000e6c:    9000        ..      STR      r0,[sp,#0]
        0x00000e6e:    b131        1.      CBZ      r1,0xe7e ; FMC_Write + 78
        0x00000e70:    e7ff        ..      B        0xe72 ; FMC_Write + 66
        0x00000e72:    4819        .H      LDR      r0,[pc,#100] ; [0xed8] = 0x4000c010
        0x00000e74:    6800        .h      LDR      r0,[r0,#0]
        0x00000e76:    2101        .!      MOVS     r1,#1
        0x00000e78:    4008        .@      ANDS     r0,r0,r1
        0x00000e7a:    9000        ..      STR      r0,[sp,#0]
        0x00000e7c:    e7ff        ..      B        0xe7e ; FMC_Write + 78
        0x00000e7e:    9800        ..      LDR      r0,[sp,#0]
        0x00000e80:    07c0        ..      LSLS     r0,r0,#31
        0x00000e82:    b108        ..      CBZ      r0,0xe88 ; FMC_Write + 88
        0x00000e84:    e7ff        ..      B        0xe86 ; FMC_Write + 86
        0x00000e86:    e7ed        ..      B        0xe64 ; FMC_Write + 52
        0x00000e88:    9801        ..      LDR      r0,[sp,#4]
        0x00000e8a:    b930        0.      CBNZ     r0,0xe9a ; FMC_Write + 106
        0x00000e8c:    e7ff        ..      B        0xe8e ; FMC_Write + 94
        0x00000e8e:    490e        .I      LDR      r1,[pc,#56] ; [0xec8] = 0x20000110
        0x00000e90:    2000        .       MOVS     r0,#0
        0x00000e92:    43c0        .C      MVNS     r0,r0
        0x00000e94:    6008        .`      STR      r0,[r1,#0]
        0x00000e96:    9004        ..      STR      r0,[sp,#0x10]
        0x00000e98:    e013        ..      B        0xec2 ; FMC_Write + 146
        0x00000e9a:    4811        .H      LDR      r0,[pc,#68] ; [0xee0] = 0x4000c040
        0x00000e9c:    6800        .h      LDR      r0,[r0,#0]
        0x00000e9e:    0640        @.      LSLS     r0,r0,#25
        0x00000ea0:    2800        .(      CMP      r0,#0
        0x00000ea2:    d50b        ..      BPL      0xebc ; FMC_Write + 140
        0x00000ea4:    e7ff        ..      B        0xea6 ; FMC_Write + 118
        0x00000ea6:    490e        .I      LDR      r1,[pc,#56] ; [0xee0] = 0x4000c040
        0x00000ea8:    6808        .h      LDR      r0,[r1,#0]
        0x00000eaa:    2240        @"      MOVS     r2,#0x40
        0x00000eac:    4310        .C      ORRS     r0,r0,r2
        0x00000eae:    6008        .`      STR      r0,[r1,#0]
        0x00000eb0:    4905        .I      LDR      r1,[pc,#20] ; [0xec8] = 0x20000110
        0x00000eb2:    2000        .       MOVS     r0,#0
        0x00000eb4:    43c0        .C      MVNS     r0,r0
        0x00000eb6:    6008        .`      STR      r0,[r1,#0]
        0x00000eb8:    9004        ..      STR      r0,[sp,#0x10]
        0x00000eba:    e002        ..      B        0xec2 ; FMC_Write + 146
        0x00000ebc:    2000        .       MOVS     r0,#0
        0x00000ebe:    9004        ..      STR      r0,[sp,#0x10]
        0x00000ec0:    e7ff        ..      B        0xec2 ; FMC_Write + 146
        0x00000ec2:    9804        ..      LDR      r0,[sp,#0x10]
        0x00000ec4:    b005        ..      ADD      sp,sp,#0x14
        0x00000ec6:    4770        pG      BX       lr
    $d.11
    __arm_cp.5_0
        0x00000ec8:    20000110    ...     DCD    536871184
    __arm_cp.5_1
        0x00000ecc:    4000c00c    ...@    DCD    1073790988
    __arm_cp.5_2
        0x00000ed0:    4000c004    ...@    DCD    1073790980
    __arm_cp.5_3
        0x00000ed4:    4000c008    ...@    DCD    1073790984
    __arm_cp.5_4
        0x00000ed8:    4000c010    ...@    DCD    1073790992
    __arm_cp.5_5
        0x00000edc:    20000004    ...     DCD    536870916
    __arm_cp.5_6
        0x00000ee0:    4000c040    @..@    DCD    1073791040
    $t.57
    GPIO_Init
        0x00000ee4:    b580        ..      PUSH     {r7,lr}
        0x00000ee6:    4905        .I      LDR      r1,[pc,#20] ; [0xefc] = 0x40000038
        0x00000ee8:    6808        .h      LDR      r0,[r1,#0]
        0x00000eea:    22f0        ."      MOVS     r2,#0xf0
        0x00000eec:    4390        .C      BICS     r0,r0,r2
        0x00000eee:    6008        .`      STR      r0,[r1,#0]
        0x00000ef0:    4803        .H      LDR      r0,[pc,#12] ; [0xf00] = 0x40004040
        0x00000ef2:    2102        .!      MOVS     r1,#2
        0x00000ef4:    2201        ."      MOVS     r2,#1
        0x00000ef6:    f000f805    ....    BL       GPIO_SetMode ; 0xf04
        0x00000efa:    bd80        ..      POP      {r7,pc}
    $d.58
    __arm_cp.33_0
        0x00000efc:    40000038    8..@    DCD    1073741880
    __arm_cp.33_1
        0x00000f00:    40004040    @@.@    DCD    1073758272
    $t.0
    GPIO_SetMode
        0x00000f04:    b084        ..      SUB      sp,sp,#0x10
        0x00000f06:    9003        ..      STR      r0,[sp,#0xc]
        0x00000f08:    9102        ..      STR      r1,[sp,#8]
        0x00000f0a:    9201        ..      STR      r2,[sp,#4]
        0x00000f0c:    2000        .       MOVS     r0,#0
        0x00000f0e:    9000        ..      STR      r0,[sp,#0]
        0x00000f10:    e7ff        ..      B        0xf12 ; GPIO_SetMode + 14
        0x00000f12:    9800        ..      LDR      r0,[sp,#0]
        0x00000f14:    280f        .(      CMP      r0,#0xf
        0x00000f16:    d818        ..      BHI      0xf4a ; GPIO_SetMode + 70
        0x00000f18:    e7ff        ..      B        0xf1a ; GPIO_SetMode + 22
        0x00000f1a:    9802        ..      LDR      r0,[sp,#8]
        0x00000f1c:    9900        ..      LDR      r1,[sp,#0]
        0x00000f1e:    40c8        .@      LSRS     r0,r0,r1
        0x00000f20:    07c0        ..      LSLS     r0,r0,#31
        0x00000f22:    b168        h.      CBZ      r0,0xf40 ; GPIO_SetMode + 60
        0x00000f24:    e7ff        ..      B        0xf26 ; GPIO_SetMode + 34
        0x00000f26:    9803        ..      LDR      r0,[sp,#0xc]
        0x00000f28:    6800        .h      LDR      r0,[r0,#0]
        0x00000f2a:    9900        ..      LDR      r1,[sp,#0]
        0x00000f2c:    004a        J.      LSLS     r2,r1,#1
        0x00000f2e:    2103        .!      MOVS     r1,#3
        0x00000f30:    4091        .@      LSLS     r1,r1,r2
        0x00000f32:    4388        .C      BICS     r0,r0,r1
        0x00000f34:    9901        ..      LDR      r1,[sp,#4]
        0x00000f36:    4091        .@      LSLS     r1,r1,r2
        0x00000f38:    4308        .C      ORRS     r0,r0,r1
        0x00000f3a:    9903        ..      LDR      r1,[sp,#0xc]
        0x00000f3c:    6008        .`      STR      r0,[r1,#0]
        0x00000f3e:    e7ff        ..      B        0xf40 ; GPIO_SetMode + 60
        0x00000f40:    e7ff        ..      B        0xf42 ; GPIO_SetMode + 62
        0x00000f42:    9800        ..      LDR      r0,[sp,#0]
        0x00000f44:    1c40        @.      ADDS     r0,r0,#1
        0x00000f46:    9000        ..      STR      r0,[sp,#0]
        0x00000f48:    e7e3        ..      B        0xf12 ; GPIO_SetMode + 14
        0x00000f4a:    b004        ..      ADD      sp,sp,#0x10
        0x00000f4c:    4770        pG      BX       lr
        0x00000f4e:    0000        ..      MOVS     r0,r0
    Init_EEPROM
        0x00000f50:    b084        ..      SUB      sp,sp,#0x10
        0x00000f52:    9002        ..      STR      r0,[sp,#8]
        0x00000f54:    9101        ..      STR      r1,[sp,#4]
        0x00000f56:    9902        ..      LDR      r1,[sp,#8]
        0x00000f58:    48b6        .H      LDR      r0,[pc,#728] ; [0x1234] = 0x2000001c
        0x00000f5a:    6001        .`      STR      r1,[r0,#0]
        0x00000f5c:    9901        ..      LDR      r1,[sp,#4]
        0x00000f5e:    4a85        .J      LDR      r2,[pc,#532] ; [0x1174] = 0x20000018
        0x00000f60:    6011        .`      STR      r1,[r2,#0]
        0x00000f62:    6800        .h      LDR      r0,[r0,#0]
        0x00000f64:    2881        .(      CMP      r0,#0x81
        0x00000f66:    d303        ..      BCC      0xf70 ; Init_EEPROM + 32
        0x00000f68:    e7ff        ..      B        0xf6a ; Init_EEPROM + 26
        0x00000f6a:    2001        .       MOVS     r0,#1
        0x00000f6c:    9003        ..      STR      r0,[sp,#0xc]
        0x00000f6e:    e01e        ..      B        0xfae ; Init_EEPROM + 94
        0x00000f70:    4880        .H      LDR      r0,[pc,#512] ; [0x1174] = 0x20000018
        0x00000f72:    6800        .h      LDR      r0,[r0,#0]
        0x00000f74:    b128        (.      CBZ      r0,0xf82 ; Init_EEPROM + 50
        0x00000f76:    e7ff        ..      B        0xf78 ; Init_EEPROM + 40
        0x00000f78:    487e        ~H      LDR      r0,[pc,#504] ; [0x1174] = 0x20000018
        0x00000f7a:    6800        .h      LDR      r0,[r0,#0]
        0x00000f7c:    2809        .(      CMP      r0,#9
        0x00000f7e:    d303        ..      BCC      0xf88 ; Init_EEPROM + 56
        0x00000f80:    e7ff        ..      B        0xf82 ; Init_EEPROM + 50
        0x00000f82:    2002        .       MOVS     r0,#2
        0x00000f84:    9003        ..      STR      r0,[sp,#0xc]
        0x00000f86:    e012        ..      B        0xfae ; Init_EEPROM + 94
        0x00000f88:    2000        .       MOVS     r0,#0
        0x00000f8a:    9000        ..      STR      r0,[sp,#0]
        0x00000f8c:    e7ff        ..      B        0xf8e ; Init_EEPROM + 62
        0x00000f8e:    9800        ..      LDR      r0,[sp,#0]
        0x00000f90:    287f        .(      CMP      r0,#0x7f
        0x00000f92:    d809        ..      BHI      0xfa8 ; Init_EEPROM + 88
        0x00000f94:    e7ff        ..      B        0xf96 ; Init_EEPROM + 70
        0x00000f96:    9a00        ..      LDR      r2,[sp,#0]
        0x00000f98:    49a7        .I      LDR      r1,[pc,#668] ; [0x1238] = 0x20000029
        0x00000f9a:    20ff        .       MOVS     r0,#0xff
        0x00000f9c:    5488        .T      STRB     r0,[r1,r2]
        0x00000f9e:    e7ff        ..      B        0xfa0 ; Init_EEPROM + 80
        0x00000fa0:    9800        ..      LDR      r0,[sp,#0]
        0x00000fa2:    1c40        @.      ADDS     r0,r0,#1
        0x00000fa4:    9000        ..      STR      r0,[sp,#0]
        0x00000fa6:    e7f2        ..      B        0xf8e ; Init_EEPROM + 62
        0x00000fa8:    2000        .       MOVS     r0,#0
        0x00000faa:    9003        ..      STR      r0,[sp,#0xc]
        0x00000fac:    e7ff        ..      B        0xfae ; Init_EEPROM + 94
        0x00000fae:    9803        ..      LDR      r0,[sp,#0xc]
        0x00000fb0:    b004        ..      ADD      sp,sp,#0x10
        0x00000fb2:    4770        pG      BX       lr
    Manage_Next_Page
        0x00000fb4:    b580        ..      PUSH     {r7,lr}
        0x00000fb6:    b08c        ..      SUB      sp,sp,#0x30
        0x00000fb8:    2000        .       MOVS     r0,#0
        0x00000fba:    900b        ..      STR      r0,[sp,#0x2c]
        0x00000fbc:    9008        ..      STR      r0,[sp,#0x20]
        0x00000fbe:    9007        ..      STR      r0,[sp,#0x1c]
        0x00000fc0:    486b        kH      LDR      r0,[pc,#428] ; [0x1170] = 0x20000024
        0x00000fc2:    9005        ..      STR      r0,[sp,#0x14]
        0x00000fc4:    6800        .h      LDR      r0,[r0,#0]
        0x00000fc6:    0240        @.      LSLS     r0,r0,#9
        0x00000fc8:    f6470100    G...    MOVW     r1,#0x7800
        0x00000fcc:    1840        @.      ADDS     r0,r0,r1
        0x00000fce:    f7fffef7    ....    BL       FMC_Read ; 0xdc0
        0x00000fd2:    4601        .F      MOV      r1,r0
        0x00000fd4:    9805        ..      LDR      r0,[sp,#0x14]
        0x00000fd6:    9109        ..      STR      r1,[sp,#0x24]
        0x00000fd8:    6800        .h      LDR      r0,[r0,#0]
        0x00000fda:    1c40        @.      ADDS     r0,r0,#1
        0x00000fdc:    4965        eI      LDR      r1,[pc,#404] ; [0x1174] = 0x20000018
        0x00000fde:    6809        .h      LDR      r1,[r1,#0]
        0x00000fe0:    4288        .B      CMP      r0,r1
        0x00000fe2:    d106        ..      BNE      0xff2 ; Manage_Next_Page + 62
        0x00000fe4:    e7ff        ..      B        0xfe6 ; Manage_Next_Page + 50
        0x00000fe6:    2000        .       MOVS     r0,#0
        0x00000fe8:    9006        ..      STR      r0,[sp,#0x18]
        0x00000fea:    9809        ..      LDR      r0,[sp,#0x24]
        0x00000fec:    1c40        @.      ADDS     r0,r0,#1
        0x00000fee:    9009        ..      STR      r0,[sp,#0x24]
        0x00000ff0:    e004        ..      B        0xffc ; Manage_Next_Page + 72
        0x00000ff2:    485f        _H      LDR      r0,[pc,#380] ; [0x1170] = 0x20000024
        0x00000ff4:    6800        .h      LDR      r0,[r0,#0]
        0x00000ff6:    1c40        @.      ADDS     r0,r0,#1
        0x00000ff8:    9006        ..      STR      r0,[sp,#0x18]
        0x00000ffa:    e7ff        ..      B        0xffc ; Manage_Next_Page + 72
        0x00000ffc:    f7fffde0    ....    BL       FMC_Enable ; 0xbc0
        0x00001000:    e7ff        ..      B        0x1002 ; Manage_Next_Page + 78
        0x00001002:    990b        ..      LDR      r1,[sp,#0x2c]
        0x00001004:    488b        .H      LDR      r0,[pc,#556] ; [0x1234] = 0x2000001c
        0x00001006:    6802        .h      LDR      r2,[r0,#0]
        0x00001008:    2000        .       MOVS     r0,#0
        0x0000100a:    4291        .B      CMP      r1,r2
        0x0000100c:    9004        ..      STR      r0,[sp,#0x10]
        0x0000100e:    d208        ..      BCS      0x1022 ; Manage_Next_Page + 110
        0x00001010:    e7ff        ..      B        0x1012 ; Manage_Next_Page + 94
        0x00001012:    990b        ..      LDR      r1,[sp,#0x2c]
        0x00001014:    4888        .H      LDR      r0,[pc,#544] ; [0x1238] = 0x20000029
        0x00001016:    5c40        @\      LDRB     r0,[r0,r1]
        0x00001018:    38ff        .8      SUBS     r0,r0,#0xff
        0x0000101a:    4241        AB      RSBS     r1,r0,#0
        0x0000101c:    4148        HA      ADCS     r0,r0,r1
        0x0000101e:    9004        ..      STR      r0,[sp,#0x10]
        0x00001020:    e7ff        ..      B        0x1022 ; Manage_Next_Page + 110
        0x00001022:    9804        ..      LDR      r0,[sp,#0x10]
        0x00001024:    07c0        ..      LSLS     r0,r0,#31
        0x00001026:    b120         .      CBZ      r0,0x1032 ; Manage_Next_Page + 126
        0x00001028:    e7ff        ..      B        0x102a ; Manage_Next_Page + 118
        0x0000102a:    980b        ..      LDR      r0,[sp,#0x2c]
        0x0000102c:    1c40        @.      ADDS     r0,r0,#1
        0x0000102e:    900b        ..      STR      r0,[sp,#0x2c]
        0x00001030:    e7e7        ..      B        0x1002 ; Manage_Next_Page + 78
        0x00001032:    980b        ..      LDR      r0,[sp,#0x2c]
        0x00001034:    497f        .I      LDR      r1,[pc,#508] ; [0x1234] = 0x2000001c
        0x00001036:    6809        .h      LDR      r1,[r1,#0]
        0x00001038:    4288        .B      CMP      r0,r1
        0x0000103a:    d31b        ..      BCC      0x1074 ; Manage_Next_Page + 192
        0x0000103c:    e7ff        ..      B        0x103e ; Manage_Next_Page + 138
        0x0000103e:    a909        ..      ADD      r1,sp,#0x24
        0x00001040:    484f        OH      LDR      r0,[pc,#316] ; [0x1180] = 0xffff
        0x00001042:    8048        H.      STRH     r0,[r1,#2]
        0x00001044:    9806        ..      LDR      r0,[sp,#0x18]
        0x00001046:    0240        @.      LSLS     r0,r0,#9
        0x00001048:    f6470100    G...    MOVW     r1,#0x7800
        0x0000104c:    9102        ..      STR      r1,[sp,#8]
        0x0000104e:    1840        @.      ADDS     r0,r0,r1
        0x00001050:    9909        ..      LDR      r1,[sp,#0x24]
        0x00001052:    f7fffeed    ....    BL       FMC_Write ; 0xe30
        0x00001056:    9902        ..      LDR      r1,[sp,#8]
        0x00001058:    4a47        GJ      LDR      r2,[pc,#284] ; [0x1178] = 0x20000020
        0x0000105a:    2002        .       MOVS     r0,#2
        0x0000105c:    6010        .`      STR      r0,[r2,#0]
        0x0000105e:    4844        DH      LDR      r0,[pc,#272] ; [0x1170] = 0x20000024
        0x00001060:    9003        ..      STR      r0,[sp,#0xc]
        0x00001062:    6800        .h      LDR      r0,[r0,#0]
        0x00001064:    0240        @.      LSLS     r0,r0,#9
        0x00001066:    1840        @.      ADDS     r0,r0,r1
        0x00001068:    f7fffdbe    ....    BL       FMC_Erase ; 0xbe8
        0x0000106c:    9903        ..      LDR      r1,[sp,#0xc]
        0x0000106e:    9806        ..      LDR      r0,[sp,#0x18]
        0x00001070:    6008        .`      STR      r0,[r1,#0]
        0x00001072:    e07b        {.      B        0x116c ; Manage_Next_Page + 440
        0x00001074:    a809        ..      ADD      r0,sp,#0x24
        0x00001076:    8800        ..      LDRH     r0,[r0,#0]
        0x00001078:    9009        ..      STR      r0,[sp,#0x24]
        0x0000107a:    9a0b        ..      LDR      r2,[sp,#0x2c]
        0x0000107c:    0411        ..      LSLS     r1,r2,#16
        0x0000107e:    486e        nH      LDR      r0,[pc,#440] ; [0x1238] = 0x20000029
        0x00001080:    5c80        .\      LDRB     r0,[r0,r2]
        0x00001082:    0600        ..      LSLS     r0,r0,#24
        0x00001084:    4301        .C      ORRS     r1,r1,r0
        0x00001086:    9809        ..      LDR      r0,[sp,#0x24]
        0x00001088:    4308        .C      ORRS     r0,r0,r1
        0x0000108a:    9009        ..      STR      r0,[sp,#0x24]
        0x0000108c:    9806        ..      LDR      r0,[sp,#0x18]
        0x0000108e:    0240        @.      LSLS     r0,r0,#9
        0x00001090:    f6470100    G...    MOVW     r1,#0x7800
        0x00001094:    1840        @.      ADDS     r0,r0,r1
        0x00001096:    9909        ..      LDR      r1,[sp,#0x24]
        0x00001098:    f7fffeca    ....    BL       FMC_Write ; 0xe30
        0x0000109c:    980b        ..      LDR      r0,[sp,#0x2c]
        0x0000109e:    1c40        @.      ADDS     r0,r0,#1
        0x000010a0:    900b        ..      STR      r0,[sp,#0x2c]
        0x000010a2:    2004        .       MOVS     r0,#4
        0x000010a4:    900a        ..      STR      r0,[sp,#0x28]
        0x000010a6:    e7ff        ..      B        0x10a8 ; Manage_Next_Page + 244
        0x000010a8:    980b        ..      LDR      r0,[sp,#0x2c]
        0x000010aa:    4962        bI      LDR      r1,[pc,#392] ; [0x1234] = 0x2000001c
        0x000010ac:    6809        .h      LDR      r1,[r1,#0]
        0x000010ae:    4288        .B      CMP      r0,r1
        0x000010b0:    d235        5.      BCS      0x111e ; Manage_Next_Page + 362
        0x000010b2:    e7ff        ..      B        0x10b4 ; Manage_Next_Page + 256
        0x000010b4:    990b        ..      LDR      r1,[sp,#0x2c]
        0x000010b6:    4860        `H      LDR      r0,[pc,#384] ; [0x1238] = 0x20000029
        0x000010b8:    5c40        @\      LDRB     r0,[r0,r1]
        0x000010ba:    28ff        .(      CMP      r0,#0xff
        0x000010bc:    d101        ..      BNE      0x10c2 ; Manage_Next_Page + 270
        0x000010be:    e7ff        ..      B        0x10c0 ; Manage_Next_Page + 268
        0x000010c0:    e029        ).      B        0x1116 ; Manage_Next_Page + 354
        0x000010c2:    9807        ..      LDR      r0,[sp,#0x1c]
        0x000010c4:    b958        X.      CBNZ     r0,0x10de ; Manage_Next_Page + 298
        0x000010c6:    e7ff        ..      B        0x10c8 ; Manage_Next_Page + 276
        0x000010c8:    990b        ..      LDR      r1,[sp,#0x2c]
        0x000010ca:    485b        [H      LDR      r0,[pc,#364] ; [0x1238] = 0x20000029
        0x000010cc:    5c40        @\      LDRB     r0,[r0,r1]
        0x000010ce:    0200        ..      LSLS     r0,r0,#8
        0x000010d0:    4301        .C      ORRS     r1,r1,r0
        0x000010d2:    9808        ..      LDR      r0,[sp,#0x20]
        0x000010d4:    4308        .C      ORRS     r0,r0,r1
        0x000010d6:    9008        ..      STR      r0,[sp,#0x20]
        0x000010d8:    2001        .       MOVS     r0,#1
        0x000010da:    9007        ..      STR      r0,[sp,#0x1c]
        0x000010dc:    e019        ..      B        0x1112 ; Manage_Next_Page + 350
        0x000010de:    9a0b        ..      LDR      r2,[sp,#0x2c]
        0x000010e0:    0411        ..      LSLS     r1,r2,#16
        0x000010e2:    4855        UH      LDR      r0,[pc,#340] ; [0x1238] = 0x20000029
        0x000010e4:    5c80        .\      LDRB     r0,[r0,r2]
        0x000010e6:    0600        ..      LSLS     r0,r0,#24
        0x000010e8:    4301        .C      ORRS     r1,r1,r0
        0x000010ea:    9808        ..      LDR      r0,[sp,#0x20]
        0x000010ec:    4308        .C      ORRS     r0,r0,r1
        0x000010ee:    9008        ..      STR      r0,[sp,#0x20]
        0x000010f0:    9806        ..      LDR      r0,[sp,#0x18]
        0x000010f2:    0240        @.      LSLS     r0,r0,#9
        0x000010f4:    990a        ..      LDR      r1,[sp,#0x28]
        0x000010f6:    1840        @.      ADDS     r0,r0,r1
        0x000010f8:    f6470100    G...    MOVW     r1,#0x7800
        0x000010fc:    1840        @.      ADDS     r0,r0,r1
        0x000010fe:    9908        ..      LDR      r1,[sp,#0x20]
        0x00001100:    f7fffe96    ....    BL       FMC_Write ; 0xe30
        0x00001104:    2000        .       MOVS     r0,#0
        0x00001106:    9008        ..      STR      r0,[sp,#0x20]
        0x00001108:    9007        ..      STR      r0,[sp,#0x1c]
        0x0000110a:    980a        ..      LDR      r0,[sp,#0x28]
        0x0000110c:    1d00        ..      ADDS     r0,r0,#4
        0x0000110e:    900a        ..      STR      r0,[sp,#0x28]
        0x00001110:    e7ff        ..      B        0x1112 ; Manage_Next_Page + 350
        0x00001112:    e7ff        ..      B        0x1114 ; Manage_Next_Page + 352
        0x00001114:    e7ff        ..      B        0x1116 ; Manage_Next_Page + 354
        0x00001116:    980b        ..      LDR      r0,[sp,#0x2c]
        0x00001118:    1c40        @.      ADDS     r0,r0,#1
        0x0000111a:    900b        ..      STR      r0,[sp,#0x2c]
        0x0000111c:    e7c4        ..      B        0x10a8 ; Manage_Next_Page + 244
        0x0000111e:    980a        ..      LDR      r0,[sp,#0x28]
        0x00001120:    4915        .I      LDR      r1,[pc,#84] ; [0x1178] = 0x20000020
        0x00001122:    6008        .`      STR      r0,[r1,#0]
        0x00001124:    9807        ..      LDR      r0,[sp,#0x1c]
        0x00001126:    2801        .(      CMP      r0,#1
        0x00001128:    d113        ..      BNE      0x1152 ; Manage_Next_Page + 414
        0x0000112a:    e7ff        ..      B        0x112c ; Manage_Next_Page + 376
        0x0000112c:    9808        ..      LDR      r0,[sp,#0x20]
        0x0000112e:    4913        .I      LDR      r1,[pc,#76] ; [0x117c] = 0xffff0000
        0x00001130:    4308        .C      ORRS     r0,r0,r1
        0x00001132:    9008        ..      STR      r0,[sp,#0x20]
        0x00001134:    9806        ..      LDR      r0,[sp,#0x18]
        0x00001136:    0240        @.      LSLS     r0,r0,#9
        0x00001138:    990a        ..      LDR      r1,[sp,#0x28]
        0x0000113a:    1840        @.      ADDS     r0,r0,r1
        0x0000113c:    f6470100    G...    MOVW     r1,#0x7800
        0x00001140:    1840        @.      ADDS     r0,r0,r1
        0x00001142:    9908        ..      LDR      r1,[sp,#0x20]
        0x00001144:    f7fffe74    ..t.    BL       FMC_Write ; 0xe30
        0x00001148:    490b        .I      LDR      r1,[pc,#44] ; [0x1178] = 0x20000020
        0x0000114a:    6808        .h      LDR      r0,[r1,#0]
        0x0000114c:    1c80        ..      ADDS     r0,r0,#2
        0x0000114e:    6008        .`      STR      r0,[r1,#0]
        0x00001150:    e7ff        ..      B        0x1152 ; Manage_Next_Page + 414
        0x00001152:    4807        .H      LDR      r0,[pc,#28] ; [0x1170] = 0x20000024
        0x00001154:    9001        ..      STR      r0,[sp,#4]
        0x00001156:    6800        .h      LDR      r0,[r0,#0]
        0x00001158:    0240        @.      LSLS     r0,r0,#9
        0x0000115a:    f6470100    G...    MOVW     r1,#0x7800
        0x0000115e:    1840        @.      ADDS     r0,r0,r1
        0x00001160:    f7fffd42    ..B.    BL       FMC_Erase ; 0xbe8
        0x00001164:    9901        ..      LDR      r1,[sp,#4]
        0x00001166:    9806        ..      LDR      r0,[sp,#0x18]
        0x00001168:    6008        .`      STR      r0,[r1,#0]
        0x0000116a:    e7ff        ..      B        0x116c ; Manage_Next_Page + 440
        0x0000116c:    b00c        ..      ADD      sp,sp,#0x30
        0x0000116e:    bd80        ..      POP      {r7,pc}
    $d.13
    __arm_cp.6_0
        0x00001170:    20000024    $..     DCD    536870948
    __arm_cp.6_1
        0x00001174:    20000018    ...     DCD    536870936
    __arm_cp.6_4
        0x00001178:    20000020     ..     DCD    536870944
    __arm_cp.6_5
        0x0000117c:    ffff0000    ....    DCD    4294901760
    __arm_cp.6_6
        0x00001180:    0000ffff    ....    DCD    65535
    $t.1
    ProcessHardFault
        0x00001184:    b580        ..      PUSH     {r7,lr}
        0x00001186:    b086        ..      SUB      sp,sp,#0x18
        0x00001188:    9004        ..      STR      r0,[sp,#0x10]
        0x0000118a:    9103        ..      STR      r1,[sp,#0xc]
        0x0000118c:    9202        ..      STR      r2,[sp,#8]
        0x0000118e:    a804        ..      ADD      r0,sp,#0x10
        0x00001190:    7800        .x      LDRB     r0,[r0,#0]
        0x00001192:    0740        @.      LSLS     r0,r0,#29
        0x00001194:    2800        .(      CMP      r0,#0
        0x00001196:    d503        ..      BPL      0x11a0 ; ProcessHardFault + 28
        0x00001198:    e7ff        ..      B        0x119a ; ProcessHardFault + 22
        0x0000119a:    9802        ..      LDR      r0,[sp,#8]
        0x0000119c:    9001        ..      STR      r0,[sp,#4]
        0x0000119e:    e002        ..      B        0x11a6 ; ProcessHardFault + 34
        0x000011a0:    9803        ..      LDR      r0,[sp,#0xc]
        0x000011a2:    9001        ..      STR      r0,[sp,#4]
        0x000011a4:    e7ff        ..      B        0x11a6 ; ProcessHardFault + 34
        0x000011a6:    9801        ..      LDR      r0,[sp,#4]
        0x000011a8:    6980        .i      LDR      r0,[r0,#0x18]
        0x000011aa:    8800        ..      LDRH     r0,[r0,#0]
        0x000011ac:    9000        ..      STR      r0,[sp,#0]
        0x000011ae:    9800        ..      LDR      r0,[sp,#0]
        0x000011b0:    4910        .I      LDR      r1,[pc,#64] ; [0x11f4] = 0xbeab
        0x000011b2:    4288        .B      CMP      r0,r1
        0x000011b4:    d10a        ..      BNE      0x11cc ; ProcessHardFault + 72
        0x000011b6:    e7ff        ..      B        0x11b8 ; ProcessHardFault + 52
        0x000011b8:    4910        .I      LDR      r1,[pc,#64] ; [0x11fc] = 0x20000008
        0x000011ba:    2000        .       MOVS     r0,#0
        0x000011bc:    6008        .`      STR      r0,[r1,#0]
        0x000011be:    9901        ..      LDR      r1,[sp,#4]
        0x000011c0:    6988        .i      LDR      r0,[r1,#0x18]
        0x000011c2:    1c80        ..      ADDS     r0,r0,#2
        0x000011c4:    6188        .a      STR      r0,[r1,#0x18]
        0x000011c6:    9804        ..      LDR      r0,[sp,#0x10]
        0x000011c8:    9005        ..      STR      r0,[sp,#0x14]
        0x000011ca:    e010        ..      B        0x11ee ; ProcessHardFault + 106
        0x000011cc:    480a        .H      LDR      r0,[pc,#40] ; [0x11f8] = 0x2eac
        0x000011ce:    f001f9b7    ....    BL       __0printf ; 0x2540
        0x000011d2:    9801        ..      LDR      r0,[sp,#4]
        0x000011d4:    f7fffc14    ....    BL       DumpStack ; 0xa00
        0x000011d8:    e7ff        ..      B        0x11da ; ProcessHardFault + 86
        0x000011da:    9801        ..      LDR      r0,[sp,#4]
        0x000011dc:    6800        .h      LDR      r0,[r0,#0]
        0x000011de:    2101        .!      MOVS     r1,#1
        0x000011e0:    4308        .C      ORRS     r0,r0,r1
        0x000011e2:    b108        ..      CBZ      r0,0x11e8 ; ProcessHardFault + 100
        0x000011e4:    e7ff        ..      B        0x11e6 ; ProcessHardFault + 98
        0x000011e6:    e7f8        ..      B        0x11da ; ProcessHardFault + 86
        0x000011e8:    9804        ..      LDR      r0,[sp,#0x10]
        0x000011ea:    9005        ..      STR      r0,[sp,#0x14]
        0x000011ec:    e7ff        ..      B        0x11ee ; ProcessHardFault + 106
        0x000011ee:    9805        ..      LDR      r0,[sp,#0x14]
        0x000011f0:    b006        ..      ADD      sp,sp,#0x18
        0x000011f2:    bd80        ..      POP      {r7,pc}
    $d.2
    __arm_cp.1_0
        0x000011f4:    0000beab    ....    DCD    48811
    __arm_cp.1_1
        0x000011f8:    00002eac    ....    DCD    11948
    __arm_cp.1_2
        0x000011fc:    20000008    ...     DCD    536870920
    $t.8
    Read_Data
        0x00001200:    b083        ..      SUB      sp,sp,#0xc
        0x00001202:    4602        .F      MOV      r2,r0
        0x00001204:    a801        ..      ADD      r0,sp,#4
        0x00001206:    7002        .p      STRB     r2,[r0,#0]
        0x00001208:    9100        ..      STR      r1,[sp,#0]
        0x0000120a:    7800        .x      LDRB     r0,[r0,#0]
        0x0000120c:    49ce        .I      LDR      r1,[pc,#824] ; [0x1548] = 0x2000001c
        0x0000120e:    6809        .h      LDR      r1,[r1,#0]
        0x00001210:    4288        .B      CMP      r0,r1
        0x00001212:    d303        ..      BCC      0x121c ; Read_Data + 28
        0x00001214:    e7ff        ..      B        0x1216 ; Read_Data + 22
        0x00001216:    2003        .       MOVS     r0,#3
        0x00001218:    9002        ..      STR      r0,[sp,#8]
        0x0000121a:    e008        ..      B        0x122e ; Read_Data + 46
        0x0000121c:    a801        ..      ADD      r0,sp,#4
        0x0000121e:    7801        .x      LDRB     r1,[r0,#0]
        0x00001220:    48ca        .H      LDR      r0,[pc,#808] ; [0x154c] = 0x20000029
        0x00001222:    5c40        @\      LDRB     r0,[r0,r1]
        0x00001224:    9900        ..      LDR      r1,[sp,#0]
        0x00001226:    7008        .p      STRB     r0,[r1,#0]
        0x00001228:    2000        .       MOVS     r0,#0
        0x0000122a:    9002        ..      STR      r0,[sp,#8]
        0x0000122c:    e7ff        ..      B        0x122e ; Read_Data + 46
        0x0000122e:    9802        ..      LDR      r0,[sp,#8]
        0x00001230:    b003        ..      ADD      sp,sp,#0xc
        0x00001232:    4770        pG      BX       lr
    $d.9
    __arm_cp.4_0
        0x00001234:    2000001c    ...     DCD    536870940
    __arm_cp.4_1
        0x00001238:    20000029    )..     DCD    536870953
    $t.0
    SH_Return
        0x0000123c:    b083        ..      SUB      sp,sp,#0xc
        0x0000123e:    9002        ..      STR      r0,[sp,#8]
        0x00001240:    9101        ..      STR      r1,[sp,#4]
        0x00001242:    9200        ..      STR      r2,[sp,#0]
        0x00001244:    2000        .       MOVS     r0,#0
        0x00001246:    b003        ..      ADD      sp,sp,#0xc
        0x00001248:    4770        pG      BX       lr
        0x0000124a:    0000        ..      MOVS     r0,r0
    SYS_ClearResetSrc
        0x0000124c:    b081        ..      SUB      sp,sp,#4
        0x0000124e:    9000        ..      STR      r0,[sp,#0]
        0x00001250:    9800        ..      LDR      r0,[sp,#0]
        0x00001252:    4904        .I      LDR      r1,[pc,#16] ; [0x1264] = 0x40000004
        0x00001254:    6008        .`      STR      r0,[r1,#0]
        0x00001256:    b001        ..      ADD      sp,sp,#4
        0x00001258:    4770        pG      BX       lr
        0x0000125a:    46c0        .F      MOV      r8,r8
    SYS_GetResetSrc
        0x0000125c:    4801        .H      LDR      r0,[pc,#4] ; [0x1264] = 0x40000004
        0x0000125e:    6800        .h      LDR      r0,[r0,#0]
        0x00001260:    4770        pG      BX       lr
        0x00001262:    46c0        .F      MOV      r8,r8
    $d.5
    __arm_cp.2_0
        0x00001264:    40000004    ...@    DCD    1073741828
    $t.59
    SYS_Init
        0x00001268:    b580        ..      PUSH     {r7,lr}
        0x0000126a:    b084        ..      SUB      sp,sp,#0x10
        0x0000126c:    f000f874    ..t.    BL       SYS_UnlockReg ; 0x1358
        0x00001270:    2004        .       MOVS     r0,#4
        0x00001272:    f7fffa89    ....    BL       CLK_EnableXtalRC ; 0x788
        0x00001276:    2010        .       MOVS     r0,#0x10
        0x00001278:    f7fffb94    ....    BL       CLK_WaitClockReady ; 0x9a4
        0x0000127c:    2005        .       MOVS     r0,#5
        0x0000127e:    2100        .!      MOVS     r1,#0
        0x00001280:    9103        ..      STR      r1,[sp,#0xc]
        0x00001282:    f7fffab9    ....    BL       CLK_SetHCLK ; 0x7f8
        0x00001286:    480f        .H      LDR      r0,[pc,#60] ; [0x12c4] = 0x5ec00003
        0x00001288:    9001        ..      STR      r0,[sp,#4]
        0x0000128a:    f7fffa61    ..a.    BL       CLK_EnableModuleClock ; 0x750
        0x0000128e:    9801        ..      LDR      r0,[sp,#4]
        0x00001290:    9a03        ..      LDR      r2,[sp,#0xc]
        0x00001292:    f2450100    E...    MOVW     r1,#0x5000
        0x00001296:    f7fffb33    ..3.    BL       CLK_SetModuleClock ; 0x900
        0x0000129a:    480b        .H      LDR      r0,[pc,#44] ; [0x12c8] = 0x6f003d10
        0x0000129c:    9002        ..      STR      r0,[sp,#8]
        0x0000129e:    f7fffa57    ..W.    BL       CLK_EnableModuleClock ; 0x750
        0x000012a2:    9802        ..      LDR      r0,[sp,#8]
        0x000012a4:    9a03        ..      LDR      r2,[sp,#0xc]
        0x000012a6:    2103        .!      MOVS     r1,#3
        0x000012a8:    0409        ..      LSLS     r1,r1,#16
        0x000012aa:    f7fffb29    ..).    BL       CLK_SetModuleClock ; 0x900
        0x000012ae:    f000fe9b    ....    BL       Uart0DefaultMPF ; 0x1fe8
        0x000012b2:    f000f9bf    ....    BL       SystemCoreClockUpdate ; 0x1634
        0x000012b6:    f000fe97    ....    BL       Uart0DefaultMPF ; 0x1fe8
        0x000012ba:    f000f80b    ....    BL       SYS_LockReg ; 0x12d4
        0x000012be:    b004        ..      ADD      sp,sp,#0x10
        0x000012c0:    bd80        ..      POP      {r7,pc}
        0x000012c2:    46c0        .F      MOV      r8,r8
    $d.60
    __arm_cp.34_0
        0x000012c4:    5ec00003    ...^    DCD    1589641219
    __arm_cp.34_1
        0x000012c8:    6f003d10    .=.o    DCD    1862286608
    $t.6
    SYS_LockReg
        0x000012cc:    4932        2I      LDR      r1,[pc,#200] ; [0x1398] = 0x40000100
        0x000012ce:    2000        .       MOVS     r0,#0
        0x000012d0:    6008        .`      STR      r0,[r1,#0]
        0x000012d2:    4770        pG      BX       lr
    SYS_LockReg
        0x000012d4:    4930        0I      LDR      r1,[pc,#192] ; [0x1398] = 0x40000100
        0x000012d6:    2000        .       MOVS     r0,#0
        0x000012d8:    6008        .`      STR      r0,[r1,#0]
        0x000012da:    4770        pG      BX       lr
    SYS_ResetChip
        0x000012dc:    4915        .I      LDR      r1,[pc,#84] ; [0x1334] = 0x40000008
        0x000012de:    6808        .h      LDR      r0,[r1,#0]
        0x000012e0:    2201        ."      MOVS     r2,#1
        0x000012e2:    4310        .C      ORRS     r0,r0,r2
        0x000012e4:    6008        .`      STR      r0,[r1,#0]
        0x000012e6:    4770        pG      BX       lr
    SYS_ResetModule
        0x000012e8:    b510        ..      PUSH     {r4,lr}
        0x000012ea:    b083        ..      SUB      sp,sp,#0xc
        0x000012ec:    9002        ..      STR      r0,[sp,#8]
        0x000012ee:    2000        .       MOVS     r0,#0
        0x000012f0:    9001        ..      STR      r0,[sp,#4]
        0x000012f2:    9000        ..      STR      r0,[sp,#0]
        0x000012f4:    9b02        ..      LDR      r3,[sp,#8]
        0x000012f6:    4a0e        .J      LDR      r2,[pc,#56] ; [0x1330] = 0xffffff
        0x000012f8:    4013        .@      ANDS     r3,r3,r2
        0x000012fa:    2001        .       MOVS     r0,#1
        0x000012fc:    4601        .F      MOV      r1,r0
        0x000012fe:    4099        .@      LSLS     r1,r1,r3
        0x00001300:    9101        ..      STR      r1,[sp,#4]
        0x00001302:    a902        ..      ADD      r1,sp,#8
        0x00001304:    78c9        .x      LDRB     r1,[r1,#3]
        0x00001306:    4b0b        .K      LDR      r3,[pc,#44] ; [0x1334] = 0x40000008
        0x00001308:    18c9        ..      ADDS     r1,r1,r3
        0x0000130a:    9100        ..      STR      r1,[sp,#0]
        0x0000130c:    9c01        ..      LDR      r4,[sp,#4]
        0x0000130e:    9b00        ..      LDR      r3,[sp,#0]
        0x00001310:    6819        .h      LDR      r1,[r3,#0]
        0x00001312:    4321        !C      ORRS     r1,r1,r4
        0x00001314:    6019        .`      STR      r1,[r3,#0]
        0x00001316:    9902        ..      LDR      r1,[sp,#8]
        0x00001318:    4011        .@      ANDS     r1,r1,r2
        0x0000131a:    4088        .@      LSLS     r0,r0,r1
        0x0000131c:    43c0        .C      MVNS     r0,r0
        0x0000131e:    9001        ..      STR      r0,[sp,#4]
        0x00001320:    9a01        ..      LDR      r2,[sp,#4]
        0x00001322:    9900        ..      LDR      r1,[sp,#0]
        0x00001324:    6808        .h      LDR      r0,[r1,#0]
        0x00001326:    4010        .@      ANDS     r0,r0,r2
        0x00001328:    6008        .`      STR      r0,[r1,#0]
        0x0000132a:    b003        ..      ADD      sp,sp,#0xc
        0x0000132c:    bd10        ..      POP      {r4,pc}
        0x0000132e:    46c0        .F      MOV      r8,r8
    $d.14
    __arm_cp.7_0
        0x00001330:    00ffffff    ....    DCD    16777215
    __arm_cp.7_1
        0x00001334:    40000008    ...@    DCD    1073741832
    $t.4
    SYS_UnlockReg
        0x00001338:    e7ff        ..      B        0x133a ; SYS_UnlockReg + 2
        0x0000133a:    4917        .I      LDR      r1,[pc,#92] ; [0x1398] = 0x40000100
        0x0000133c:    2059        Y       MOVS     r0,#0x59
        0x0000133e:    6008        .`      STR      r0,[r1,#0]
        0x00001340:    2016        .       MOVS     r0,#0x16
        0x00001342:    6008        .`      STR      r0,[r1,#0]
        0x00001344:    2088        .       MOVS     r0,#0x88
        0x00001346:    6008        .`      STR      r0,[r1,#0]
        0x00001348:    e7ff        ..      B        0x134a ; SYS_UnlockReg + 18
        0x0000134a:    4813        .H      LDR      r0,[pc,#76] ; [0x1398] = 0x40000100
        0x0000134c:    6800        .h      LDR      r0,[r0,#0]
        0x0000134e:    2800        .(      CMP      r0,#0
        0x00001350:    d0f3        ..      BEQ      0x133a ; SYS_UnlockReg + 2
        0x00001352:    e7ff        ..      B        0x1354 ; SYS_UnlockReg + 28
        0x00001354:    4770        pG      BX       lr
        0x00001356:    46c0        .F      MOV      r8,r8
    SYS_UnlockReg
        0x00001358:    e7ff        ..      B        0x135a ; SYS_UnlockReg + 2
        0x0000135a:    490f        .I      LDR      r1,[pc,#60] ; [0x1398] = 0x40000100
        0x0000135c:    2059        Y       MOVS     r0,#0x59
        0x0000135e:    6008        .`      STR      r0,[r1,#0]
        0x00001360:    2016        .       MOVS     r0,#0x16
        0x00001362:    6008        .`      STR      r0,[r1,#0]
        0x00001364:    2088        .       MOVS     r0,#0x88
        0x00001366:    6008        .`      STR      r0,[r1,#0]
        0x00001368:    e7ff        ..      B        0x136a ; SYS_UnlockReg + 18
        0x0000136a:    480b        .H      LDR      r0,[pc,#44] ; [0x1398] = 0x40000100
        0x0000136c:    6800        .h      LDR      r0,[r0,#0]
        0x0000136e:    2800        .(      CMP      r0,#0
        0x00001370:    d0f3        ..      BEQ      0x135a ; SYS_UnlockReg + 2
        0x00001372:    e7ff        ..      B        0x1374 ; SYS_UnlockReg + 28
        0x00001374:    4770        pG      BX       lr
        0x00001376:    46c0        .F      MOV      r8,r8
    SYS_UnlockReg
        0x00001378:    e7ff        ..      B        0x137a ; SYS_UnlockReg + 2
        0x0000137a:    4907        .I      LDR      r1,[pc,#28] ; [0x1398] = 0x40000100
        0x0000137c:    2059        Y       MOVS     r0,#0x59
        0x0000137e:    6008        .`      STR      r0,[r1,#0]
        0x00001380:    2016        .       MOVS     r0,#0x16
        0x00001382:    6008        .`      STR      r0,[r1,#0]
        0x00001384:    2088        .       MOVS     r0,#0x88
        0x00001386:    6008        .`      STR      r0,[r1,#0]
        0x00001388:    e7ff        ..      B        0x138a ; SYS_UnlockReg + 18
        0x0000138a:    4803        .H      LDR      r0,[pc,#12] ; [0x1398] = 0x40000100
        0x0000138c:    6800        .h      LDR      r0,[r0,#0]
        0x0000138e:    2800        .(      CMP      r0,#0
        0x00001390:    d0f3        ..      BEQ      0x137a ; SYS_UnlockReg + 2
        0x00001392:    e7ff        ..      B        0x1394 ; SYS_UnlockReg + 28
        0x00001394:    4770        pG      BX       lr
        0x00001396:    46c0        .F      MOV      r8,r8
    $d.3
    __arm_cp.1_0
        0x00001398:    40000100    ...@    DCD    1073742080
    $t.6
    Search_Valid_Page
        0x0000139c:    b580        ..      PUSH     {r7,lr}
        0x0000139e:    b088        ..      SUB      sp,sp,#0x20
        0x000013a0:    f7fffc0e    ....    BL       FMC_Enable ; 0xbc0
        0x000013a4:    4965        eI      LDR      r1,[pc,#404] ; [0x153c] = 0x20000024
        0x000013a6:    2000        .       MOVS     r0,#0
        0x000013a8:    6008        .`      STR      r0,[r1,#0]
        0x000013aa:    9007        ..      STR      r0,[sp,#0x1c]
        0x000013ac:    e7ff        ..      B        0x13ae ; Search_Valid_Page + 18
        0x000013ae:    9807        ..      LDR      r0,[sp,#0x1c]
        0x000013b0:    4963        cI      LDR      r1,[pc,#396] ; [0x1540] = 0x20000018
        0x000013b2:    6809        .h      LDR      r1,[r1,#0]
        0x000013b4:    4288        .B      CMP      r0,r1
        0x000013b6:    d210        ..      BCS      0x13da ; Search_Valid_Page + 62
        0x000013b8:    e7ff        ..      B        0x13ba ; Search_Valid_Page + 30
        0x000013ba:    9807        ..      LDR      r0,[sp,#0x1c]
        0x000013bc:    0240        @.      LSLS     r0,r0,#9
        0x000013be:    f6470100    G...    MOVW     r1,#0x7800
        0x000013c2:    1840        @.      ADDS     r0,r0,r1
        0x000013c4:    f7fffcfc    ....    BL       FMC_Read ; 0xdc0
        0x000013c8:    9907        ..      LDR      r1,[sp,#0x1c]
        0x000013ca:    004a        J.      LSLS     r2,r1,#1
        0x000013cc:    4669        iF      MOV      r1,sp
        0x000013ce:    5288        .R      STRH     r0,[r1,r2]
        0x000013d0:    e7ff        ..      B        0x13d2 ; Search_Valid_Page + 54
        0x000013d2:    9807        ..      LDR      r0,[sp,#0x1c]
        0x000013d4:    1c40        @.      ADDS     r0,r0,#1
        0x000013d6:    9007        ..      STR      r0,[sp,#0x1c]
        0x000013d8:    e7e9        ..      B        0x13ae ; Search_Valid_Page + 18
        0x000013da:    2000        .       MOVS     r0,#0
        0x000013dc:    9007        ..      STR      r0,[sp,#0x1c]
        0x000013de:    e7ff        ..      B        0x13e0 ; Search_Valid_Page + 68
        0x000013e0:    9807        ..      LDR      r0,[sp,#0x1c]
        0x000013e2:    4957        WI      LDR      r1,[pc,#348] ; [0x1540] = 0x20000018
        0x000013e4:    6809        .h      LDR      r1,[r1,#0]
        0x000013e6:    4288        .B      CMP      r0,r1
        0x000013e8:    d211        ..      BCS      0x140e ; Search_Valid_Page + 114
        0x000013ea:    e7ff        ..      B        0x13ec ; Search_Valid_Page + 80
        0x000013ec:    9807        ..      LDR      r0,[sp,#0x1c]
        0x000013ee:    0041        A.      LSLS     r1,r0,#1
        0x000013f0:    4668        hF      MOV      r0,sp
        0x000013f2:    5a40        @Z      LDRH     r0,[r0,r1]
        0x000013f4:    4953        SI      LDR      r1,[pc,#332] ; [0x1544] = 0xffff
        0x000013f6:    4288        .B      CMP      r0,r1
        0x000013f8:    d004        ..      BEQ      0x1404 ; Search_Valid_Page + 104
        0x000013fa:    e7ff        ..      B        0x13fc ; Search_Valid_Page + 96
        0x000013fc:    9807        ..      LDR      r0,[sp,#0x1c]
        0x000013fe:    494f        OI      LDR      r1,[pc,#316] ; [0x153c] = 0x20000024
        0x00001400:    6008        .`      STR      r0,[r1,#0]
        0x00001402:    e7ff        ..      B        0x1404 ; Search_Valid_Page + 104
        0x00001404:    e7ff        ..      B        0x1406 ; Search_Valid_Page + 106
        0x00001406:    9807        ..      LDR      r0,[sp,#0x1c]
        0x00001408:    1c40        @.      ADDS     r0,r0,#1
        0x0000140a:    9007        ..      STR      r0,[sp,#0x1c]
        0x0000140c:    e7e8        ..      B        0x13e0 ; Search_Valid_Page + 68
        0x0000140e:    484b        KH      LDR      r0,[pc,#300] ; [0x153c] = 0x20000024
        0x00001410:    6800        .h      LDR      r0,[r0,#0]
        0x00001412:    0041        A.      LSLS     r1,r0,#1
        0x00001414:    4668        hF      MOV      r0,sp
        0x00001416:    5a40        @Z      LDRH     r0,[r0,r1]
        0x00001418:    494a        JI      LDR      r1,[pc,#296] ; [0x1544] = 0xffff
        0x0000141a:    4288        .B      CMP      r0,r1
        0x0000141c:    d10d        ..      BNE      0x143a ; Search_Valid_Page + 158
        0x0000141e:    e7ff        ..      B        0x1420 ; Search_Valid_Page + 132
        0x00001420:    4846        FH      LDR      r0,[pc,#280] ; [0x153c] = 0x20000024
        0x00001422:    6800        .h      LDR      r0,[r0,#0]
        0x00001424:    0240        @.      LSLS     r0,r0,#9
        0x00001426:    f6470100    G...    MOVW     r1,#0x7800
        0x0000142a:    1840        @.      ADDS     r0,r0,r1
        0x0000142c:    4949        II      LDR      r1,[pc,#292] ; [0x1554] = 0xffff0000
        0x0000142e:    f7fffcff    ....    BL       FMC_Write ; 0xe30
        0x00001432:    4947        GI      LDR      r1,[pc,#284] ; [0x1550] = 0x20000020
        0x00001434:    2002        .       MOVS     r0,#2
        0x00001436:    6008        .`      STR      r0,[r1,#0]
        0x00001438:    e07d        }.      B        0x1536 ; Search_Valid_Page + 410
        0x0000143a:    4840        @H      LDR      r0,[pc,#256] ; [0x153c] = 0x20000024
        0x0000143c:    6800        .h      LDR      r0,[r0,#0]
        0x0000143e:    0240        @.      LSLS     r0,r0,#9
        0x00001440:    f6470100    G...    MOVW     r1,#0x7800
        0x00001444:    1840        @.      ADDS     r0,r0,r1
        0x00001446:    f7fffcbb    ....    BL       FMC_Read ; 0xdc0
        0x0000144a:    9006        ..      STR      r0,[sp,#0x18]
        0x0000144c:    a906        ..      ADD      r1,sp,#0x18
        0x0000144e:    884a        J.      LDRH     r2,[r1,#2]
        0x00001450:    a805        ..      ADD      r0,sp,#0x14
        0x00001452:    7002        .p      STRB     r2,[r0,#0]
        0x00001454:    78c9        .x      LDRB     r1,[r1,#3]
        0x00001456:    aa04        ..      ADD      r2,sp,#0x10
        0x00001458:    7011        .p      STRB     r1,[r2,#0]
        0x0000145a:    7800        .x      LDRB     r0,[r0,#0]
        0x0000145c:    28ff        .(      CMP      r0,#0xff
        0x0000145e:    d104        ..      BNE      0x146a ; Search_Valid_Page + 206
        0x00001460:    e7ff        ..      B        0x1462 ; Search_Valid_Page + 198
        0x00001462:    493b        ;I      LDR      r1,[pc,#236] ; [0x1550] = 0x20000020
        0x00001464:    2002        .       MOVS     r0,#2
        0x00001466:    6008        .`      STR      r0,[r1,#0]
        0x00001468:    e064        d.      B        0x1534 ; Search_Valid_Page + 408
        0x0000146a:    a805        ..      ADD      r0,sp,#0x14
        0x0000146c:    7800        .x      LDRB     r0,[r0,#0]
        0x0000146e:    4936        6I      LDR      r1,[pc,#216] ; [0x1548] = 0x2000001c
        0x00001470:    6809        .h      LDR      r1,[r1,#0]
        0x00001472:    4288        .B      CMP      r0,r1
        0x00001474:    d206        ..      BCS      0x1484 ; Search_Valid_Page + 232
        0x00001476:    e7ff        ..      B        0x1478 ; Search_Valid_Page + 220
        0x00001478:    9804        ..      LDR      r0,[sp,#0x10]
        0x0000147a:    a905        ..      ADD      r1,sp,#0x14
        0x0000147c:    780a        .x      LDRB     r2,[r1,#0]
        0x0000147e:    4933        3I      LDR      r1,[pc,#204] ; [0x154c] = 0x20000029
        0x00001480:    5488        .T      STRB     r0,[r1,r2]
        0x00001482:    e7ff        ..      B        0x1484 ; Search_Valid_Page + 232
        0x00001484:    4932        2I      LDR      r1,[pc,#200] ; [0x1550] = 0x20000020
        0x00001486:    f2402000    @..     MOVW     r0,#0x200
        0x0000148a:    6008        .`      STR      r0,[r1,#0]
        0x0000148c:    2004        .       MOVS     r0,#4
        0x0000148e:    9007        ..      STR      r0,[sp,#0x1c]
        0x00001490:    e7ff        ..      B        0x1492 ; Search_Valid_Page + 246
        0x00001492:    9807        ..      LDR      r0,[sp,#0x1c]
        0x00001494:    0a40        @.      LSRS     r0,r0,#9
        0x00001496:    2800        .(      CMP      r0,#0
        0x00001498:    d14b        K.      BNE      0x1532 ; Search_Valid_Page + 406
        0x0000149a:    e7ff        ..      B        0x149c ; Search_Valid_Page + 256
        0x0000149c:    4827        'H      LDR      r0,[pc,#156] ; [0x153c] = 0x20000024
        0x0000149e:    6800        .h      LDR      r0,[r0,#0]
        0x000014a0:    0240        @.      LSLS     r0,r0,#9
        0x000014a2:    9907        ..      LDR      r1,[sp,#0x1c]
        0x000014a4:    1840        @.      ADDS     r0,r0,r1
        0x000014a6:    f6470100    G...    MOVW     r1,#0x7800
        0x000014aa:    1840        @.      ADDS     r0,r0,r1
        0x000014ac:    f7fffc88    ....    BL       FMC_Read ; 0xdc0
        0x000014b0:    9006        ..      STR      r0,[sp,#0x18]
        0x000014b2:    9906        ..      LDR      r1,[sp,#0x18]
        0x000014b4:    a805        ..      ADD      r0,sp,#0x14
        0x000014b6:    7001        .p      STRB     r1,[r0,#0]
        0x000014b8:    9906        ..      LDR      r1,[sp,#0x18]
        0x000014ba:    0a09        ..      LSRS     r1,r1,#8
        0x000014bc:    aa04        ..      ADD      r2,sp,#0x10
        0x000014be:    7011        .p      STRB     r1,[r2,#0]
        0x000014c0:    7800        .x      LDRB     r0,[r0,#0]
        0x000014c2:    28ff        .(      CMP      r0,#0xff
        0x000014c4:    d104        ..      BNE      0x14d0 ; Search_Valid_Page + 308
        0x000014c6:    e7ff        ..      B        0x14c8 ; Search_Valid_Page + 300
        0x000014c8:    9807        ..      LDR      r0,[sp,#0x1c]
        0x000014ca:    4921        !I      LDR      r1,[pc,#132] ; [0x1550] = 0x20000020
        0x000014cc:    6008        .`      STR      r0,[r1,#0]
        0x000014ce:    e030        0.      B        0x1532 ; Search_Valid_Page + 406
        0x000014d0:    a805        ..      ADD      r0,sp,#0x14
        0x000014d2:    7800        .x      LDRB     r0,[r0,#0]
        0x000014d4:    491c        .I      LDR      r1,[pc,#112] ; [0x1548] = 0x2000001c
        0x000014d6:    6809        .h      LDR      r1,[r1,#0]
        0x000014d8:    4288        .B      CMP      r0,r1
        0x000014da:    d206        ..      BCS      0x14ea ; Search_Valid_Page + 334
        0x000014dc:    e7ff        ..      B        0x14de ; Search_Valid_Page + 322
        0x000014de:    9804        ..      LDR      r0,[sp,#0x10]
        0x000014e0:    a905        ..      ADD      r1,sp,#0x14
        0x000014e2:    780a        .x      LDRB     r2,[r1,#0]
        0x000014e4:    4919        .I      LDR      r1,[pc,#100] ; [0x154c] = 0x20000029
        0x000014e6:    5488        .T      STRB     r0,[r1,r2]
        0x000014e8:    e7ff        ..      B        0x14ea ; Search_Valid_Page + 334
        0x000014ea:    e7ff        ..      B        0x14ec ; Search_Valid_Page + 336
        0x000014ec:    a906        ..      ADD      r1,sp,#0x18
        0x000014ee:    884a        J.      LDRH     r2,[r1,#2]
        0x000014f0:    a805        ..      ADD      r0,sp,#0x14
        0x000014f2:    7002        .p      STRB     r2,[r0,#0]
        0x000014f4:    78c9        .x      LDRB     r1,[r1,#3]
        0x000014f6:    aa04        ..      ADD      r2,sp,#0x10
        0x000014f8:    7011        .p      STRB     r1,[r2,#0]
        0x000014fa:    7800        .x      LDRB     r0,[r0,#0]
        0x000014fc:    28ff        .(      CMP      r0,#0xff
        0x000014fe:    d105        ..      BNE      0x150c ; Search_Valid_Page + 368
        0x00001500:    e7ff        ..      B        0x1502 ; Search_Valid_Page + 358
        0x00001502:    9807        ..      LDR      r0,[sp,#0x1c]
        0x00001504:    1c80        ..      ADDS     r0,r0,#2
        0x00001506:    4912        .I      LDR      r1,[pc,#72] ; [0x1550] = 0x20000020
        0x00001508:    6008        .`      STR      r0,[r1,#0]
        0x0000150a:    e012        ..      B        0x1532 ; Search_Valid_Page + 406
        0x0000150c:    a805        ..      ADD      r0,sp,#0x14
        0x0000150e:    7800        .x      LDRB     r0,[r0,#0]
        0x00001510:    490d        .I      LDR      r1,[pc,#52] ; [0x1548] = 0x2000001c
        0x00001512:    6809        .h      LDR      r1,[r1,#0]
        0x00001514:    4288        .B      CMP      r0,r1
        0x00001516:    d206        ..      BCS      0x1526 ; Search_Valid_Page + 394
        0x00001518:    e7ff        ..      B        0x151a ; Search_Valid_Page + 382
        0x0000151a:    9804        ..      LDR      r0,[sp,#0x10]
        0x0000151c:    a905        ..      ADD      r1,sp,#0x14
        0x0000151e:    780a        .x      LDRB     r2,[r1,#0]
        0x00001520:    490a        .I      LDR      r1,[pc,#40] ; [0x154c] = 0x20000029
        0x00001522:    5488        .T      STRB     r0,[r1,r2]
        0x00001524:    e7ff        ..      B        0x1526 ; Search_Valid_Page + 394
        0x00001526:    e7ff        ..      B        0x1528 ; Search_Valid_Page + 396
        0x00001528:    e7ff        ..      B        0x152a ; Search_Valid_Page + 398
        0x0000152a:    9807        ..      LDR      r0,[sp,#0x1c]
        0x0000152c:    1d00        ..      ADDS     r0,r0,#4
        0x0000152e:    9007        ..      STR      r0,[sp,#0x1c]
        0x00001530:    e7af        ..      B        0x1492 ; Search_Valid_Page + 246
        0x00001532:    e7ff        ..      B        0x1534 ; Search_Valid_Page + 408
        0x00001534:    e7ff        ..      B        0x1536 ; Search_Valid_Page + 410
        0x00001536:    b008        ..      ADD      sp,sp,#0x20
        0x00001538:    bd80        ..      POP      {r7,pc}
        0x0000153a:    46c0        .F      MOV      r8,r8
    $d.7
    __arm_cp.3_0
        0x0000153c:    20000024    $..     DCD    536870948
    __arm_cp.3_1
        0x00001540:    20000018    ...     DCD    536870936
    __arm_cp.3_2
        0x00001544:    0000ffff    ....    DCD    65535
    __arm_cp.3_3
        0x00001548:    2000001c    ...     DCD    536870940
    __arm_cp.3_4
        0x0000154c:    20000029    )..     DCD    536870953
    __arm_cp.3_5
        0x00001550:    20000020     ..     DCD    536870944
    __arm_cp.3_6
        0x00001554:    ffff0000    ....    DCD    4294901760
    $t.6
    SendChar
        0x00001558:    b580        ..      PUSH     {r7,lr}
        0x0000155a:    b082        ..      SUB      sp,sp,#8
        0x0000155c:    9001        ..      STR      r0,[sp,#4]
        0x0000155e:    9801        ..      LDR      r0,[sp,#4]
        0x00001560:    f000f802    ....    BL       SendChar_ToUART ; 0x1568
        0x00001564:    b002        ..      ADD      sp,sp,#8
        0x00001566:    bd80        ..      POP      {r7,pc}
    SendChar_ToUART
        0x00001568:    b081        ..      SUB      sp,sp,#4
        0x0000156a:    9000        ..      STR      r0,[sp,#0]
        0x0000156c:    e7ff        ..      B        0x156e ; SendChar_ToUART + 6
        0x0000156e:    480e        .H      LDR      r0,[pc,#56] ; [0x15a8] = 0x40070018
        0x00001570:    6800        .h      LDR      r0,[r0,#0]
        0x00001572:    0200        ..      LSLS     r0,r0,#8
        0x00001574:    2800        .(      CMP      r0,#0
        0x00001576:    d501        ..      BPL      0x157c ; SendChar_ToUART + 20
        0x00001578:    e7ff        ..      B        0x157a ; SendChar_ToUART + 18
        0x0000157a:    e7f8        ..      B        0x156e ; SendChar_ToUART + 6
        0x0000157c:    4668        hF      MOV      r0,sp
        0x0000157e:    7800        .x      LDRB     r0,[r0,#0]
        0x00001580:    280a        .(      CMP      r0,#0xa
        0x00001582:    d10c        ..      BNE      0x159e ; SendChar_ToUART + 54
        0x00001584:    e7ff        ..      B        0x1586 ; SendChar_ToUART + 30
        0x00001586:    4909        .I      LDR      r1,[pc,#36] ; [0x15ac] = 0x40070000
        0x00001588:    200d        .       MOVS     r0,#0xd
        0x0000158a:    6008        .`      STR      r0,[r1,#0]
        0x0000158c:    e7ff        ..      B        0x158e ; SendChar_ToUART + 38
        0x0000158e:    4806        .H      LDR      r0,[pc,#24] ; [0x15a8] = 0x40070018
        0x00001590:    6800        .h      LDR      r0,[r0,#0]
        0x00001592:    0200        ..      LSLS     r0,r0,#8
        0x00001594:    2800        .(      CMP      r0,#0
        0x00001596:    d501        ..      BPL      0x159c ; SendChar_ToUART + 52
        0x00001598:    e7ff        ..      B        0x159a ; SendChar_ToUART + 50
        0x0000159a:    e7f8        ..      B        0x158e ; SendChar_ToUART + 38
        0x0000159c:    e7ff        ..      B        0x159e ; SendChar_ToUART + 54
        0x0000159e:    9800        ..      LDR      r0,[sp,#0]
        0x000015a0:    4902        .I      LDR      r1,[pc,#8] ; [0x15ac] = 0x40070000
        0x000015a2:    6008        .`      STR      r0,[r1,#0]
        0x000015a4:    b001        ..      ADD      sp,sp,#4
        0x000015a6:    4770        pG      BX       lr
    $d.5
    __arm_cp.3_0
        0x000015a8:    40070018    ...@    DCD    1074200600
    __arm_cp.3_1
        0x000015ac:    40070000    ...@    DCD    1074200576
    $t.10
    SysTick_Config
        0x000015b0:    b580        ..      PUSH     {r7,lr}
        0x000015b2:    b084        ..      SUB      sp,sp,#0x10
        0x000015b4:    9002        ..      STR      r0,[sp,#8]
        0x000015b6:    9802        ..      LDR      r0,[sp,#8]
        0x000015b8:    1e40        @.      SUBS     r0,r0,#1
        0x000015ba:    0e00        ..      LSRS     r0,r0,#24
        0x000015bc:    b118        ..      CBZ      r0,0x15c6 ; SysTick_Config + 22
        0x000015be:    e7ff        ..      B        0x15c0 ; SysTick_Config + 16
        0x000015c0:    2001        .       MOVS     r0,#1
        0x000015c2:    9003        ..      STR      r0,[sp,#0xc]
        0x000015c4:    e011        ..      B        0x15ea ; SysTick_Config + 58
        0x000015c6:    9802        ..      LDR      r0,[sp,#8]
        0x000015c8:    1e40        @.      SUBS     r0,r0,#1
        0x000015ca:    4909        .I      LDR      r1,[pc,#36] ; [0x15f0] = 0xe000e014
        0x000015cc:    6008        .`      STR      r0,[r1,#0]
        0x000015ce:    2000        .       MOVS     r0,#0
        0x000015d0:    9001        ..      STR      r0,[sp,#4]
        0x000015d2:    43c0        .C      MVNS     r0,r0
        0x000015d4:    2103        .!      MOVS     r1,#3
        0x000015d6:    f000fdcb    ....    BL       __NVIC_SetPriority ; 0x2170
        0x000015da:    9801        ..      LDR      r0,[sp,#4]
        0x000015dc:    4905        .I      LDR      r1,[pc,#20] ; [0x15f4] = 0xe000e018
        0x000015de:    6008        .`      STR      r0,[r1,#0]
        0x000015e0:    4a05        .J      LDR      r2,[pc,#20] ; [0x15f8] = 0xe000e010
        0x000015e2:    2107        .!      MOVS     r1,#7
        0x000015e4:    6011        .`      STR      r1,[r2,#0]
        0x000015e6:    9003        ..      STR      r0,[sp,#0xc]
        0x000015e8:    e7ff        ..      B        0x15ea ; SysTick_Config + 58
        0x000015ea:    9803        ..      LDR      r0,[sp,#0xc]
        0x000015ec:    b004        ..      ADD      sp,sp,#0x10
        0x000015ee:    bd80        ..      POP      {r7,pc}
    $d.11
    __arm_cp.6_0
        0x000015f0:    e000e014    ....    DCD    3758153748
    __arm_cp.6_1
        0x000015f4:    e000e018    ....    DCD    3758153752
    __arm_cp.6_2
        0x000015f8:    e000e010    ....    DCD    3758153744
    $t.6
    SysTick_Handler
        0x000015fc:    b580        ..      PUSH     {r7,lr}
        0x000015fe:    f000ff8f    ....    BL       systick_counter ; 0x2520
        0x00001602:    bd80        ..      POP      {r7,pc}
    SysTick_enable
        0x00001604:    b580        ..      PUSH     {r7,lr}
        0x00001606:    b082        ..      SUB      sp,sp,#8
        0x00001608:    9001        ..      STR      r0,[sp,#4]
        0x0000160a:    2000        .       MOVS     r0,#0
        0x0000160c:    f000ff80    ....    BL       set_systick ; 0x2510
        0x00001610:    481c        .H      LDR      r0,[pc,#112] ; [0x1684] = 0x20000004
        0x00001612:    6800        .h      LDR      r0,[r0,#0]
        0x00001614:    9901        ..      LDR      r1,[sp,#4]
        0x00001616:    fbb0f0f1    ....    UDIV     r0,r0,r1
        0x0000161a:    f7ffffc9    ....    BL       SysTick_Config ; 0x15b0
        0x0000161e:    b128        (.      CBZ      r0,0x162c ; SysTick_enable + 40
        0x00001620:    e7ff        ..      B        0x1622 ; SysTick_enable + 30
        0x00001622:    4803        .H      LDR      r0,[pc,#12] ; [0x1630] = 0x317a
        0x00001624:    f000ff8c    ....    BL       __0printf ; 0x2540
        0x00001628:    e7ff        ..      B        0x162a ; SysTick_enable + 38
        0x0000162a:    e7fe        ..      B        0x162a ; SysTick_enable + 38
        0x0000162c:    b002        ..      ADD      sp,sp,#8
        0x0000162e:    bd80        ..      POP      {r7,pc}
    $d.9
    __arm_cp.5_1
        0x00001630:    0000317a    z1..    DCD    12666
    $t.0
    SystemCoreClockUpdate
        0x00001634:    b083        ..      SUB      sp,sp,#0xc
        0x00001636:    4810        .H      LDR      r0,[pc,#64] ; [0x1678] = 0x40000210
        0x00001638:    6800        .h      LDR      r0,[r0,#0]
        0x0000163a:    2107        .!      MOVS     r1,#7
        0x0000163c:    4008        .@      ANDS     r0,r0,r1
        0x0000163e:    9001        ..      STR      r0,[sp,#4]
        0x00001640:    9801        ..      LDR      r0,[sp,#4]
        0x00001642:    0081        ..      LSLS     r1,r0,#2
        0x00001644:    480d        .H      LDR      r0,[pc,#52] ; [0x167c] = 0x2e8c
        0x00001646:    5840        @X      LDR      r0,[r0,r1]
        0x00001648:    9002        ..      STR      r0,[sp,#8]
        0x0000164a:    480d        .H      LDR      r0,[pc,#52] ; [0x1680] = 0x40000220
        0x0000164c:    6800        .h      LDR      r0,[r0,#0]
        0x0000164e:    210f        .!      MOVS     r1,#0xf
        0x00001650:    4008        .@      ANDS     r0,r0,r1
        0x00001652:    1c40        @.      ADDS     r0,r0,#1
        0x00001654:    9000        ..      STR      r0,[sp,#0]
        0x00001656:    9802        ..      LDR      r0,[sp,#8]
        0x00001658:    9900        ..      LDR      r1,[sp,#0]
        0x0000165a:    fbb0f1f1    ....    UDIV     r1,r0,r1
        0x0000165e:    4809        .H      LDR      r0,[pc,#36] ; [0x1684] = 0x20000004
        0x00001660:    6001        .`      STR      r1,[r0,#0]
        0x00001662:    6800        .h      LDR      r0,[r0,#0]
        0x00001664:    4908        .I      LDR      r1,[pc,#32] ; [0x1688] = 0x7a120
        0x00001666:    1840        @.      ADDS     r0,r0,r1
        0x00001668:    4908        .I      LDR      r1,[pc,#32] ; [0x168c] = 0xf4240
        0x0000166a:    fbb0f0f1    ....    UDIV     r0,r0,r1
        0x0000166e:    4908        .I      LDR      r1,[pc,#32] ; [0x1690] = 0x20000000
        0x00001670:    6008        .`      STR      r0,[r1,#0]
        0x00001672:    b003        ..      ADD      sp,sp,#0xc
        0x00001674:    4770        pG      BX       lr
        0x00001676:    46c0        .F      MOV      r8,r8
    $d.1
    __arm_cp.0_0
        0x00001678:    40000210    ...@    DCD    1073742352
    __arm_cp.0_1
        0x0000167c:    00002e8c    ....    DCD    11916
    __arm_cp.0_2
        0x00001680:    40000220     ..@    DCD    1073742368
    __arm_cp.0_3
        0x00001684:    20000004    ...     DCD    536870916
    __arm_cp.0_4
        0x00001688:    0007a120     ...    DCD    500000
    __arm_cp.0_5
        0x0000168c:    000f4240    @B..    DCD    1000000
    __arm_cp.0_6
        0x00001690:    20000000    ...     DCD    536870912
    $t.2
    SystemInit
        0x00001694:    b580        ..      PUSH     {r7,lr}
        0x00001696:    f7fffe4f    ..O.    BL       SYS_UnlockReg ; 0x1338
        0x0000169a:    4903        .I      LDR      r1,[pc,#12] ; [0x16a8] = 0x400002b0
        0x0000169c:    2001        .       MOVS     r0,#1
        0x0000169e:    6008        .`      STR      r0,[r1,#0]
        0x000016a0:    f7fffe14    ....    BL       SYS_LockReg ; 0x12cc
        0x000016a4:    bd80        ..      POP      {r7,pc}
        0x000016a6:    46c0        .F      MOV      r8,r8
    $d.3
    __arm_cp.1_0
        0x000016a8:    400002b0    ...@    DCD    1073742512
    $t.43
    TIMER1_Init
        0x000016ac:    b580        ..      PUSH     {r7,lr}
        0x000016ae:    b082        ..      SUB      sp,sp,#8
        0x000016b0:    2001        .       MOVS     r0,#1
        0x000016b2:    06c1        ..      LSLS     r1,r0,#27
        0x000016b4:    4870        pH      LDR      r0,[pc,#448] ; [0x1878] = 0x40050100
        0x000016b6:    9001        ..      STR      r0,[sp,#4]
        0x000016b8:    f24032e8    @..2    MOVW     r2,#0x3e8
        0x000016bc:    f000f888    ....    BL       TIMER_Open ; 0x17d0
        0x000016c0:    9801        ..      LDR      r0,[sp,#4]
        0x000016c2:    f000f810    ....    BL       TIMER_EnableInt ; 0x16e6
        0x000016c6:    2021        !       MOVS     r0,#0x21
        0x000016c8:    f000fd38    ..8.    BL       __NVIC_EnableIRQ ; 0x213c
        0x000016cc:    9801        ..      LDR      r0,[sp,#4]
        0x000016ce:    f000f8b8    ....    BL       TIMER_Start ; 0x1842
        0x000016d2:    b002        ..      ADD      sp,sp,#8
        0x000016d4:    bd80        ..      POP      {r7,pc}
        0x000016d6:    46c0        .F      MOV      r8,r8
    TIMER_ClearIntFlag
        0x000016d8:    b081        ..      SUB      sp,sp,#4
        0x000016da:    9000        ..      STR      r0,[sp,#0]
        0x000016dc:    9900        ..      LDR      r1,[sp,#0]
        0x000016de:    2001        .       MOVS     r0,#1
        0x000016e0:    6088        .`      STR      r0,[r1,#8]
        0x000016e2:    b001        ..      ADD      sp,sp,#4
        0x000016e4:    4770        pG      BX       lr
    TIMER_EnableInt
        0x000016e6:    b081        ..      SUB      sp,sp,#4
        0x000016e8:    9000        ..      STR      r0,[sp,#0]
        0x000016ea:    9900        ..      LDR      r1,[sp,#0]
        0x000016ec:    6808        .h      LDR      r0,[r1,#0]
        0x000016ee:    2201        ."      MOVS     r2,#1
        0x000016f0:    0752        R.      LSLS     r2,r2,#29
        0x000016f2:    4310        .C      ORRS     r0,r0,r2
        0x000016f4:    6008        .`      STR      r0,[r1,#0]
        0x000016f6:    b001        ..      ADD      sp,sp,#4
        0x000016f8:    4770        pG      BX       lr
    TIMER_GetIntFlag
        0x000016fa:    b081        ..      SUB      sp,sp,#4
        0x000016fc:    9000        ..      STR      r0,[sp,#0]
        0x000016fe:    9800        ..      LDR      r0,[sp,#0]
        0x00001700:    6880        .h      LDR      r0,[r0,#8]
        0x00001702:    2101        .!      MOVS     r1,#1
        0x00001704:    4008        .@      ANDS     r0,r0,r1
        0x00001706:    b001        ..      ADD      sp,sp,#4
        0x00001708:    4770        pG      BX       lr
        0x0000170a:    0000        ..      MOVS     r0,r0
    TIMER_GetModuleClock
        0x0000170c:    b5b0        ..      PUSH     {r4,r5,r7,lr}
        0x0000170e:    b08c        ..      SUB      sp,sp,#0x30
        0x00001710:    900b        ..      STR      r0,[sp,#0x2c]
        0x00001712:    492b        +I      LDR      r1,[pc,#172] ; [0x17c0] = 0x2e6c
        0x00001714:    a801        ..      ADD      r0,sp,#4
        0x00001716:    c93c        <.      LDM      r1!,{r2-r5}
        0x00001718:    c03c        <.      STM      r0!,{r2-r5}
        0x0000171a:    c93c        <.      LDM      r1!,{r2-r5}
        0x0000171c:    c03c        <.      STM      r0!,{r2-r5}
        0x0000171e:    980b        ..      LDR      r0,[sp,#0x2c]
        0x00001720:    4928        (I      LDR      r1,[pc,#160] ; [0x17c4] = 0x40050000
        0x00001722:    4288        .B      CMP      r0,r1
        0x00001724:    d108        ..      BNE      0x1738 ; TIMER_GetModuleClock + 44
        0x00001726:    e7ff        ..      B        0x1728 ; TIMER_GetModuleClock + 28
        0x00001728:    4828        (H      LDR      r0,[pc,#160] ; [0x17cc] = 0x40000214
        0x0000172a:    6800        .h      LDR      r0,[r0,#0]
        0x0000172c:    f2407100    @..q    MOVW     r1,#0x700
        0x00001730:    4008        .@      ANDS     r0,r0,r1
        0x00001732:    0a00        ..      LSRS     r0,r0,#8
        0x00001734:    900a        ..      STR      r0,[sp,#0x28]
        0x00001736:    e023        #.      B        0x1780 ; TIMER_GetModuleClock + 116
        0x00001738:    980b        ..      LDR      r0,[sp,#0x2c]
        0x0000173a:    494f        OI      LDR      r1,[pc,#316] ; [0x1878] = 0x40050100
        0x0000173c:    4288        .B      CMP      r0,r1
        0x0000173e:    d108        ..      BNE      0x1752 ; TIMER_GetModuleClock + 70
        0x00001740:    e7ff        ..      B        0x1742 ; TIMER_GetModuleClock + 54
        0x00001742:    4822        "H      LDR      r0,[pc,#136] ; [0x17cc] = 0x40000214
        0x00001744:    6800        .h      LDR      r0,[r0,#0]
        0x00001746:    f2470100    G...    MOVW     r1,#0x7000
        0x0000174a:    4008        .@      ANDS     r0,r0,r1
        0x0000174c:    0b00        ..      LSRS     r0,r0,#12
        0x0000174e:    900a        ..      STR      r0,[sp,#0x28]
        0x00001750:    e015        ..      B        0x177e ; TIMER_GetModuleClock + 114
        0x00001752:    980b        ..      LDR      r0,[sp,#0x2c]
        0x00001754:    491c        .I      LDR      r1,[pc,#112] ; [0x17c8] = 0x40051000
        0x00001756:    4288        .B      CMP      r0,r1
        0x00001758:    d108        ..      BNE      0x176c ; TIMER_GetModuleClock + 96
        0x0000175a:    e7ff        ..      B        0x175c ; TIMER_GetModuleClock + 80
        0x0000175c:    481b        .H      LDR      r0,[pc,#108] ; [0x17cc] = 0x40000214
        0x0000175e:    6800        .h      LDR      r0,[r0,#0]
        0x00001760:    2107        .!      MOVS     r1,#7
        0x00001762:    0409        ..      LSLS     r1,r1,#16
        0x00001764:    4008        .@      ANDS     r0,r0,r1
        0x00001766:    0c00        ..      LSRS     r0,r0,#16
        0x00001768:    900a        ..      STR      r0,[sp,#0x28]
        0x0000176a:    e007        ..      B        0x177c ; TIMER_GetModuleClock + 112
        0x0000176c:    4817        .H      LDR      r0,[pc,#92] ; [0x17cc] = 0x40000214
        0x0000176e:    6800        .h      LDR      r0,[r0,#0]
        0x00001770:    2107        .!      MOVS     r1,#7
        0x00001772:    0509        ..      LSLS     r1,r1,#20
        0x00001774:    4008        .@      ANDS     r0,r0,r1
        0x00001776:    0d00        ..      LSRS     r0,r0,#20
        0x00001778:    900a        ..      STR      r0,[sp,#0x28]
        0x0000177a:    e7ff        ..      B        0x177c ; TIMER_GetModuleClock + 112
        0x0000177c:    e7ff        ..      B        0x177e ; TIMER_GetModuleClock + 114
        0x0000177e:    e7ff        ..      B        0x1780 ; TIMER_GetModuleClock + 116
        0x00001780:    980a        ..      LDR      r0,[sp,#0x28]
        0x00001782:    2802        .(      CMP      r0,#2
        0x00001784:    d113        ..      BNE      0x17ae ; TIMER_GetModuleClock + 162
        0x00001786:    e7ff        ..      B        0x1788 ; TIMER_GetModuleClock + 124
        0x00001788:    980b        ..      LDR      r0,[sp,#0x2c]
        0x0000178a:    490e        .I      LDR      r1,[pc,#56] ; [0x17c4] = 0x40050000
        0x0000178c:    4288        .B      CMP      r0,r1
        0x0000178e:    d005        ..      BEQ      0x179c ; TIMER_GetModuleClock + 144
        0x00001790:    e7ff        ..      B        0x1792 ; TIMER_GetModuleClock + 134
        0x00001792:    980b        ..      LDR      r0,[sp,#0x2c]
        0x00001794:    4938        8I      LDR      r1,[pc,#224] ; [0x1878] = 0x40050100
        0x00001796:    4288        .B      CMP      r0,r1
        0x00001798:    d104        ..      BNE      0x17a4 ; TIMER_GetModuleClock + 152
        0x0000179a:    e7ff        ..      B        0x179c ; TIMER_GetModuleClock + 144
        0x0000179c:    f7fff80a    ....    BL       CLK_GetPCLK0Freq ; 0x7b4
        0x000017a0:    9009        ..      STR      r0,[sp,#0x24]
        0x000017a2:    e003        ..      B        0x17ac ; TIMER_GetModuleClock + 160
        0x000017a4:    f7fff816    ....    BL       CLK_GetPCLK1Freq ; 0x7d4
        0x000017a8:    9009        ..      STR      r0,[sp,#0x24]
        0x000017aa:    e7ff        ..      B        0x17ac ; TIMER_GetModuleClock + 160
        0x000017ac:    e005        ..      B        0x17ba ; TIMER_GetModuleClock + 174
        0x000017ae:    980a        ..      LDR      r0,[sp,#0x28]
        0x000017b0:    0081        ..      LSLS     r1,r0,#2
        0x000017b2:    a801        ..      ADD      r0,sp,#4
        0x000017b4:    5840        @X      LDR      r0,[r0,r1]
        0x000017b6:    9009        ..      STR      r0,[sp,#0x24]
        0x000017b8:    e7ff        ..      B        0x17ba ; TIMER_GetModuleClock + 174
        0x000017ba:    9809        ..      LDR      r0,[sp,#0x24]
        0x000017bc:    b00c        ..      ADD      sp,sp,#0x30
        0x000017be:    bdb0        ..      POP      {r4,r5,r7,pc}
    $d.2
    __arm_cp.1_0
        0x000017c0:    00002e6c    l...    DCD    11884
    __arm_cp.1_1
        0x000017c4:    40050000    ...@    DCD    1074069504
    __arm_cp.1_3
        0x000017c8:    40051000    ...@    DCD    1074073600
    __arm_cp.1_4
        0x000017cc:    40000214    ...@    DCD    1073742356
    $t.0
    TIMER_Open
        0x000017d0:    b580        ..      PUSH     {r7,lr}
        0x000017d2:    b086        ..      SUB      sp,sp,#0x18
        0x000017d4:    9005        ..      STR      r0,[sp,#0x14]
        0x000017d6:    9104        ..      STR      r1,[sp,#0x10]
        0x000017d8:    9203        ..      STR      r2,[sp,#0xc]
        0x000017da:    9805        ..      LDR      r0,[sp,#0x14]
        0x000017dc:    f7ffff96    ....    BL       TIMER_GetModuleClock ; 0x170c
        0x000017e0:    9002        ..      STR      r0,[sp,#8]
        0x000017e2:    2000        .       MOVS     r0,#0
        0x000017e4:    9001        ..      STR      r0,[sp,#4]
        0x000017e6:    9000        ..      STR      r0,[sp,#0]
        0x000017e8:    9803        ..      LDR      r0,[sp,#0xc]
        0x000017ea:    9902        ..      LDR      r1,[sp,#8]
        0x000017ec:    0849        I.      LSRS     r1,r1,#1
        0x000017ee:    4288        .B      CMP      r0,r1
        0x000017f0:    d903        ..      BLS      0x17fa ; TIMER_Open + 42
        0x000017f2:    e7ff        ..      B        0x17f4 ; TIMER_Open + 36
        0x000017f4:    2002        .       MOVS     r0,#2
        0x000017f6:    9001        ..      STR      r0,[sp,#4]
        0x000017f8:    e012        ..      B        0x1820 ; TIMER_Open + 80
        0x000017fa:    9802        ..      LDR      r0,[sp,#8]
        0x000017fc:    9903        ..      LDR      r1,[sp,#0xc]
        0x000017fe:    fbb0f0f1    ....    UDIV     r0,r0,r1
        0x00001802:    9001        ..      STR      r0,[sp,#4]
        0x00001804:    a801        ..      ADD      r0,sp,#4
        0x00001806:    78c0        .x      LDRB     r0,[r0,#3]
        0x00001808:    9000        ..      STR      r0,[sp,#0]
        0x0000180a:    9800        ..      LDR      r0,[sp,#0]
        0x0000180c:    b138        8.      CBZ      r0,0x181e ; TIMER_Open + 78
        0x0000180e:    e7ff        ..      B        0x1810 ; TIMER_Open + 64
        0x00001810:    9801        ..      LDR      r0,[sp,#4]
        0x00001812:    9900        ..      LDR      r1,[sp,#0]
        0x00001814:    1c49        I.      ADDS     r1,r1,#1
        0x00001816:    fbb0f0f1    ....    UDIV     r0,r0,r1
        0x0000181a:    9001        ..      STR      r0,[sp,#4]
        0x0000181c:    e7ff        ..      B        0x181e ; TIMER_Open + 78
        0x0000181e:    e7ff        ..      B        0x1820 ; TIMER_Open + 80
        0x00001820:    9804        ..      LDR      r0,[sp,#0x10]
        0x00001822:    9900        ..      LDR      r1,[sp,#0]
        0x00001824:    4308        .C      ORRS     r0,r0,r1
        0x00001826:    9905        ..      LDR      r1,[sp,#0x14]
        0x00001828:    6008        .`      STR      r0,[r1,#0]
        0x0000182a:    9801        ..      LDR      r0,[sp,#4]
        0x0000182c:    9905        ..      LDR      r1,[sp,#0x14]
        0x0000182e:    6048        H`      STR      r0,[r1,#4]
        0x00001830:    9802        ..      LDR      r0,[sp,#8]
        0x00001832:    9a01        ..      LDR      r2,[sp,#4]
        0x00001834:    9900        ..      LDR      r1,[sp,#0]
        0x00001836:    1c49        I.      ADDS     r1,r1,#1
        0x00001838:    4351        QC      MULS     r1,r2,r1
        0x0000183a:    fbb0f0f1    ....    UDIV     r0,r0,r1
        0x0000183e:    b006        ..      ADD      sp,sp,#0x18
        0x00001840:    bd80        ..      POP      {r7,pc}
    TIMER_Start
        0x00001842:    b081        ..      SUB      sp,sp,#4
        0x00001844:    9000        ..      STR      r0,[sp,#0]
        0x00001846:    9900        ..      LDR      r1,[sp,#0]
        0x00001848:    6808        .h      LDR      r0,[r1,#0]
        0x0000184a:    2201        ."      MOVS     r2,#1
        0x0000184c:    0792        ..      LSLS     r2,r2,#30
        0x0000184e:    4310        .C      ORRS     r0,r0,r2
        0x00001850:    6008        .`      STR      r0,[r1,#0]
        0x00001852:    b001        ..      ADD      sp,sp,#4
        0x00001854:    4770        pG      BX       lr
        0x00001856:    0000        ..      MOVS     r0,r0
    TMR1_IRQHandler
        0x00001858:    b580        ..      PUSH     {r7,lr}
        0x0000185a:    4807        .H      LDR      r0,[pc,#28] ; [0x1878] = 0x40050100
        0x0000185c:    f7ffff4d    ..M.    BL       TIMER_GetIntFlag ; 0x16fa
        0x00001860:    2801        .(      CMP      r0,#1
        0x00001862:    d108        ..      BNE      0x1876 ; TMR1_IRQHandler + 30
        0x00001864:    e7ff        ..      B        0x1866 ; TMR1_IRQHandler + 14
        0x00001866:    4804        .H      LDR      r0,[pc,#16] ; [0x1878] = 0x40050100
        0x00001868:    f7ffff36    ..6.    BL       TIMER_ClearIntFlag ; 0x16d8
        0x0000186c:    f000fe60    ..`.    BL       tick_counter ; 0x2530
        0x00001870:    f000f9e0    ....    BL       TimerService_Tick1ms ; 0x1c34
        0x00001874:    e7ff        ..      B        0x1876 ; TMR1_IRQHandler + 30
        0x00001876:    bd80        ..      POP      {r7,pc}
    $d.40
    __arm_cp.22_0
        0x00001878:    40050100    ...@    DCD    1074069760
    $t.31
    Task_1000ms_Callback
        0x0000187c:    b081        ..      SUB      sp,sp,#4
        0x0000187e:    9000        ..      STR      r0,[sp,#0]
        0x00001880:    4903        .I      LDR      r1,[pc,#12] ; [0x1890] = 0x40004844
        0x00001882:    6808        .h      LDR      r0,[r1,#0]
        0x00001884:    2201        ."      MOVS     r2,#1
        0x00001886:    4050        P@      EORS     r0,r0,r2
        0x00001888:    6008        .`      STR      r0,[r1,#0]
        0x0000188a:    b001        ..      ADD      sp,sp,#4
        0x0000188c:    4770        pG      BX       lr
        0x0000188e:    46c0        .F      MOV      r8,r8
    $d.32
    __arm_cp.17_0
        0x00001890:    40004844    DH.@    DCD    1073760324
    $t.33
    Task_100ms_Callback
        0x00001894:    b081        ..      SUB      sp,sp,#4
        0x00001896:    9000        ..      STR      r0,[sp,#0]
        0x00001898:    b001        ..      ADD      sp,sp,#4
        0x0000189a:    4770        pG      BX       lr
    Task_10ms_Callback
        0x0000189c:    b081        ..      SUB      sp,sp,#4
        0x0000189e:    9000        ..      STR      r0,[sp,#0]
        0x000018a0:    b001        ..      ADD      sp,sp,#4
        0x000018a2:    4770        pG      BX       lr
    TimerService_CreateTask
        0x000018a4:    b580        ..      PUSH     {r7,lr}
        0x000018a6:    b084        ..      SUB      sp,sp,#0x10
        0x000018a8:    4923        #I      LDR      r1,[pc,#140] ; [0x1938] = 0x189d
        0x000018aa:    200a        .       MOVS     r0,#0xa
        0x000018ac:    2200        ."      MOVS     r2,#0
        0x000018ae:    f000f855    ..U.    BL       TimerService_CreateTimer ; 0x195c
        0x000018b2:    4601        .F      MOV      r1,r0
        0x000018b4:    4821        !H      LDR      r0,[pc,#132] ; [0x193c] = 0x2000000c
        0x000018b6:    6001        .`      STR      r1,[r0,#0]
        0x000018b8:    6800        .h      LDR      r0,[r0,#0]
        0x000018ba:    2800        .(      CMP      r0,#0
        0x000018bc:    d40b        ..      BMI      0x18d6 ; TimerService_CreateTask + 50
        0x000018be:    e7ff        ..      B        0x18c0 ; TimerService_CreateTask + 28
        0x000018c0:    481e        .H      LDR      r0,[pc,#120] ; [0x193c] = 0x2000000c
        0x000018c2:    9003        ..      STR      r0,[sp,#0xc]
        0x000018c4:    6800        .h      LDR      r0,[r0,#0]
        0x000018c6:    f000f97f    ....    BL       TimerService_StartTimer ; 0x1bc8
        0x000018ca:    9803        ..      LDR      r0,[sp,#0xc]
        0x000018cc:    6801        .h      LDR      r1,[r0,#0]
        0x000018ce:    481c        .H      LDR      r0,[pc,#112] ; [0x1940] = 0x2f56
        0x000018d0:    f000fe36    ..6.    BL       __0printf ; 0x2540
        0x000018d4:    e7ff        ..      B        0x18d6 ; TimerService_CreateTask + 50
        0x000018d6:    491b        .I      LDR      r1,[pc,#108] ; [0x1944] = 0x1895
        0x000018d8:    2064        d       MOVS     r0,#0x64
        0x000018da:    2200        ."      MOVS     r2,#0
        0x000018dc:    f000f83e    ..>.    BL       TimerService_CreateTimer ; 0x195c
        0x000018e0:    4601        .F      MOV      r1,r0
        0x000018e2:    4819        .H      LDR      r0,[pc,#100] ; [0x1948] = 0x20000010
        0x000018e4:    6001        .`      STR      r1,[r0,#0]
        0x000018e6:    6800        .h      LDR      r0,[r0,#0]
        0x000018e8:    2800        .(      CMP      r0,#0
        0x000018ea:    d40b        ..      BMI      0x1904 ; TimerService_CreateTask + 96
        0x000018ec:    e7ff        ..      B        0x18ee ; TimerService_CreateTask + 74
        0x000018ee:    4816        .H      LDR      r0,[pc,#88] ; [0x1948] = 0x20000010
        0x000018f0:    9002        ..      STR      r0,[sp,#8]
        0x000018f2:    6800        .h      LDR      r0,[r0,#0]
        0x000018f4:    f000f968    ..h.    BL       TimerService_StartTimer ; 0x1bc8
        0x000018f8:    9802        ..      LDR      r0,[sp,#8]
        0x000018fa:    6801        .h      LDR      r1,[r0,#0]
        0x000018fc:    4813        .H      LDR      r0,[pc,#76] ; [0x194c] = 0x2f66
        0x000018fe:    f000fe1f    ....    BL       __0printf ; 0x2540
        0x00001902:    e7ff        ..      B        0x1904 ; TimerService_CreateTask + 96
        0x00001904:    4912        .I      LDR      r1,[pc,#72] ; [0x1950] = 0x187d
        0x00001906:    f24030e8    @..0    MOVW     r0,#0x3e8
        0x0000190a:    2200        ."      MOVS     r2,#0
        0x0000190c:    f000f826    ..&.    BL       TimerService_CreateTimer ; 0x195c
        0x00001910:    4601        .F      MOV      r1,r0
        0x00001912:    4810        .H      LDR      r0,[pc,#64] ; [0x1954] = 0x20000014
        0x00001914:    6001        .`      STR      r1,[r0,#0]
        0x00001916:    6800        .h      LDR      r0,[r0,#0]
        0x00001918:    2800        .(      CMP      r0,#0
        0x0000191a:    d40b        ..      BMI      0x1934 ; TimerService_CreateTask + 144
        0x0000191c:    e7ff        ..      B        0x191e ; TimerService_CreateTask + 122
        0x0000191e:    480d        .H      LDR      r0,[pc,#52] ; [0x1954] = 0x20000014
        0x00001920:    9001        ..      STR      r0,[sp,#4]
        0x00001922:    6800        .h      LDR      r0,[r0,#0]
        0x00001924:    f000f950    ..P.    BL       TimerService_StartTimer ; 0x1bc8
        0x00001928:    9801        ..      LDR      r0,[sp,#4]
        0x0000192a:    6801        .h      LDR      r1,[r0,#0]
        0x0000192c:    480a        .H      LDR      r0,[pc,#40] ; [0x1958] = 0x2f76
        0x0000192e:    f000fe07    ....    BL       __0printf ; 0x2540
        0x00001932:    e7ff        ..      B        0x1934 ; TimerService_CreateTask + 144
        0x00001934:    b004        ..      ADD      sp,sp,#0x10
        0x00001936:    bd80        ..      POP      {r7,pc}
    $d.36
    __arm_cp.20_0
        0x00001938:    0000189d    ....    DCD    6301
    __arm_cp.20_1
        0x0000193c:    2000000c    ...     DCD    536870924
    __arm_cp.20_2
        0x00001940:    00002f56    V/..    DCD    12118
    __arm_cp.20_3
        0x00001944:    00001895    ....    DCD    6293
    __arm_cp.20_4
        0x00001948:    20000010    ...     DCD    536870928
    __arm_cp.20_5
        0x0000194c:    00002f66    f/..    DCD    12134
    __arm_cp.20_6
        0x00001950:    0000187d    }...    DCD    6269
    __arm_cp.20_7
        0x00001954:    20000014    ...     DCD    536870932
    __arm_cp.20_8
        0x00001958:    00002f76    v/..    DCD    12150
    $t.24
    TimerService_CreateTimer
        0x0000195c:    b580        ..      PUSH     {r7,lr}
        0x0000195e:    b084        ..      SUB      sp,sp,#0x10
        0x00001960:    4603        .F      MOV      r3,r0
        0x00001962:    a803        ..      ADD      r0,sp,#0xc
        0x00001964:    8003        ..      STRH     r3,[r0,#0]
        0x00001966:    9102        ..      STR      r1,[sp,#8]
        0x00001968:    9201        ..      STR      r2,[sp,#4]
        0x0000196a:    8800        ..      LDRH     r0,[r0,#0]
        0x0000196c:    9902        ..      LDR      r1,[sp,#8]
        0x0000196e:    9a01        ..      LDR      r2,[sp,#4]
        0x00001970:    f000f802    ....    BL       TimerService_CreateTimerQueue ; 0x1978
        0x00001974:    b004        ..      ADD      sp,sp,#0x10
        0x00001976:    bd80        ..      POP      {r7,pc}
    TimerService_CreateTimerQueue
        0x00001978:    b086        ..      SUB      sp,sp,#0x18
        0x0000197a:    ab04        ..      ADD      r3,sp,#0x10
        0x0000197c:    8018        ..      STRH     r0,[r3,#0]
        0x0000197e:    9103        ..      STR      r1,[sp,#0xc]
        0x00001980:    9202        ..      STR      r2,[sp,#8]
        0x00001982:    2000        .       MOVS     r0,#0
        0x00001984:    9001        ..      STR      r0,[sp,#4]
        0x00001986:    e7ff        ..      B        0x1988 ; TimerService_CreateTimerQueue + 16
        0x00001988:    9801        ..      LDR      r0,[sp,#4]
        0x0000198a:    280f        .(      CMP      r0,#0xf
        0x0000198c:    d826        &.      BHI      0x19dc ; TimerService_CreateTimerQueue + 100
        0x0000198e:    e7ff        ..      B        0x1990 ; TimerService_CreateTimerQueue + 24
        0x00001990:    9801        ..      LDR      r0,[sp,#4]
        0x00001992:    0101        ..      LSLS     r1,r0,#4
        0x00001994:    48ca        .H      LDR      r0,[pc,#808] ; [0x1cc0] = 0x20000158
        0x00001996:    1840        @.      ADDS     r0,r0,r1
        0x00001998:    9000        ..      STR      r0,[sp,#0]
        0x0000199a:    9800        ..      LDR      r0,[sp,#0]
        0x0000199c:    6880        .h      LDR      r0,[r0,#8]
        0x0000199e:    b9c0        ..      CBNZ     r0,0x19d2 ; TimerService_CreateTimerQueue + 90
        0x000019a0:    e7ff        ..      B        0x19a2 ; TimerService_CreateTimerQueue + 42
        0x000019a2:    9804        ..      LDR      r0,[sp,#0x10]
        0x000019a4:    9900        ..      LDR      r1,[sp,#0]
        0x000019a6:    8008        ..      STRH     r0,[r1,#0]
        0x000019a8:    9900        ..      LDR      r1,[sp,#0]
        0x000019aa:    2000        .       MOVS     r0,#0
        0x000019ac:    8048        H.      STRH     r0,[r1,#2]
        0x000019ae:    9900        ..      LDR      r1,[sp,#0]
        0x000019b0:    7108        .q      STRB     r0,[r1,#4]
        0x000019b2:    9a00        ..      LDR      r2,[sp,#0]
        0x000019b4:    2101        .!      MOVS     r1,#1
        0x000019b6:    7151        Qq      STRB     r1,[r2,#5]
        0x000019b8:    9900        ..      LDR      r1,[sp,#0]
        0x000019ba:    7188        .q      STRB     r0,[r1,#6]
        0x000019bc:    9900        ..      LDR      r1,[sp,#0]
        0x000019be:    71c8        .q      STRB     r0,[r1,#7]
        0x000019c0:    9803        ..      LDR      r0,[sp,#0xc]
        0x000019c2:    9900        ..      LDR      r1,[sp,#0]
        0x000019c4:    6088        .`      STR      r0,[r1,#8]
        0x000019c6:    9802        ..      LDR      r0,[sp,#8]
        0x000019c8:    9900        ..      LDR      r1,[sp,#0]
        0x000019ca:    60c8        .`      STR      r0,[r1,#0xc]
        0x000019cc:    9801        ..      LDR      r0,[sp,#4]
        0x000019ce:    9005        ..      STR      r0,[sp,#0x14]
        0x000019d0:    e008        ..      B        0x19e4 ; TimerService_CreateTimerQueue + 108
        0x000019d2:    e7ff        ..      B        0x19d4 ; TimerService_CreateTimerQueue + 92
        0x000019d4:    9801        ..      LDR      r0,[sp,#4]
        0x000019d6:    1c40        @.      ADDS     r0,r0,#1
        0x000019d8:    9001        ..      STR      r0,[sp,#4]
        0x000019da:    e7d5        ..      B        0x1988 ; TimerService_CreateTimerQueue + 16
        0x000019dc:    2000        .       MOVS     r0,#0
        0x000019de:    43c0        .C      MVNS     r0,r0
        0x000019e0:    9005        ..      STR      r0,[sp,#0x14]
        0x000019e2:    e7ff        ..      B        0x19e4 ; TimerService_CreateTimerQueue + 108
        0x000019e4:    9805        ..      LDR      r0,[sp,#0x14]
        0x000019e6:    b006        ..      ADD      sp,sp,#0x18
        0x000019e8:    4770        pG      BX       lr
        0x000019ea:    46c0        .F      MOV      r8,r8
    TimerService_DequeueEvent
        0x000019ec:    b580        ..      PUSH     {r7,lr}
        0x000019ee:    b084        ..      SUB      sp,sp,#0x10
        0x000019f0:    9003        ..      STR      r0,[sp,#0xc]
        0x000019f2:    4874        tH      LDR      r0,[pc,#464] ; [0x1bc4] = 0x20000114
        0x000019f4:    9002        ..      STR      r0,[sp,#8]
        0x000019f6:    a901        ..      ADD      r1,sp,#4
        0x000019f8:    2000        .       MOVS     r0,#0
        0x000019fa:    7008        .p      STRB     r0,[r1,#0]
        0x000019fc:    43c0        .C      MVNS     r0,r0
        0x000019fe:    9000        ..      STR      r0,[sp,#0]
        0x00001a00:    f000f8b0    ....    BL       TimerService_EnterCritical ; 0x1b64
        0x00001a04:    9802        ..      LDR      r0,[sp,#8]
        0x00001a06:    7800        .x      LDRB     r0,[r0,#0]
        0x00001a08:    9902        ..      LDR      r1,[sp,#8]
        0x00001a0a:    7849        Ix      LDRB     r1,[r1,#1]
        0x00001a0c:    4288        .B      CMP      r0,r1
        0x00001a0e:    d017        ..      BEQ      0x1a40 ; TimerService_DequeueEvent + 84
        0x00001a10:    e7ff        ..      B        0x1a12 ; TimerService_DequeueEvent + 38
        0x00001a12:    9802        ..      LDR      r0,[sp,#8]
        0x00001a14:    7801        .x      LDRB     r1,[r0,#0]
        0x00001a16:    0089        ..      LSLS     r1,r1,#2
        0x00001a18:    1840        @.      ADDS     r0,r0,r1
        0x00001a1a:    6840        @h      LDR      r0,[r0,#4]
        0x00001a1c:    9000        ..      STR      r0,[sp,#0]
        0x00001a1e:    9902        ..      LDR      r1,[sp,#8]
        0x00001a20:    7808        .x      LDRB     r0,[r1,#0]
        0x00001a22:    1c40        @.      ADDS     r0,r0,#1
        0x00001a24:    7008        .p      STRB     r0,[r1,#0]
        0x00001a26:    9802        ..      LDR      r0,[sp,#8]
        0x00001a28:    7800        .x      LDRB     r0,[r0,#0]
        0x00001a2a:    2810        .(      CMP      r0,#0x10
        0x00001a2c:    d304        ..      BCC      0x1a38 ; TimerService_DequeueEvent + 76
        0x00001a2e:    e7ff        ..      B        0x1a30 ; TimerService_DequeueEvent + 68
        0x00001a30:    9902        ..      LDR      r1,[sp,#8]
        0x00001a32:    2000        .       MOVS     r0,#0
        0x00001a34:    7008        .p      STRB     r0,[r1,#0]
        0x00001a36:    e7ff        ..      B        0x1a38 ; TimerService_DequeueEvent + 76
        0x00001a38:    a901        ..      ADD      r1,sp,#4
        0x00001a3a:    2001        .       MOVS     r0,#1
        0x00001a3c:    7008        .p      STRB     r0,[r1,#0]
        0x00001a3e:    e7ff        ..      B        0x1a40 ; TimerService_DequeueEvent + 84
        0x00001a40:    f000f892    ....    BL       TimerService_ExitCritical ; 0x1b68
        0x00001a44:    a801        ..      ADD      r0,sp,#4
        0x00001a46:    7800        .x      LDRB     r0,[r0,#0]
        0x00001a48:    b120         .      CBZ      r0,0x1a54 ; TimerService_DequeueEvent + 104
        0x00001a4a:    e7ff        ..      B        0x1a4c ; TimerService_DequeueEvent + 96
        0x00001a4c:    9800        ..      LDR      r0,[sp,#0]
        0x00001a4e:    9903        ..      LDR      r1,[sp,#0xc]
        0x00001a50:    6008        .`      STR      r0,[r1,#0]
        0x00001a52:    e7ff        ..      B        0x1a54 ; TimerService_DequeueEvent + 104
        0x00001a54:    a801        ..      ADD      r0,sp,#4
        0x00001a56:    7800        .x      LDRB     r0,[r0,#0]
        0x00001a58:    b004        ..      ADD      sp,sp,#0x10
        0x00001a5a:    bd80        ..      POP      {r7,pc}
    TimerService_Dispatch
        0x00001a5c:    b580        ..      PUSH     {r7,lr}
        0x00001a5e:    f000f835    ..5.    BL       TimerService_DispatchQueue ; 0x1acc
        0x00001a62:    f000f801    ....    BL       TimerService_DispatchFlag ; 0x1a68
        0x00001a66:    bd80        ..      POP      {r7,pc}
    TimerService_DispatchFlag
        0x00001a68:    b580        ..      PUSH     {r7,lr}
        0x00001a6a:    b084        ..      SUB      sp,sp,#0x10
        0x00001a6c:    2000        .       MOVS     r0,#0
        0x00001a6e:    9003        ..      STR      r0,[sp,#0xc]
        0x00001a70:    e7ff        ..      B        0x1a72 ; TimerService_DispatchFlag + 10
        0x00001a72:    9803        ..      LDR      r0,[sp,#0xc]
        0x00001a74:    280f        .(      CMP      r0,#0xf
        0x00001a76:    d826        &.      BHI      0x1ac6 ; TimerService_DispatchFlag + 94
        0x00001a78:    e7ff        ..      B        0x1a7a ; TimerService_DispatchFlag + 18
        0x00001a7a:    9803        ..      LDR      r0,[sp,#0xc]
        0x00001a7c:    0101        ..      LSLS     r1,r0,#4
        0x00001a7e:    4890        .H      LDR      r0,[pc,#576] ; [0x1cc0] = 0x20000158
        0x00001a80:    1840        @.      ADDS     r0,r0,r1
        0x00001a82:    9002        ..      STR      r0,[sp,#8]
        0x00001a84:    9802        ..      LDR      r0,[sp,#8]
        0x00001a86:    7940        @y      LDRB     r0,[r0,#5]
        0x00001a88:    b9c0        ..      CBNZ     r0,0x1abc ; TimerService_DispatchFlag + 84
        0x00001a8a:    e7ff        ..      B        0x1a8c ; TimerService_DispatchFlag + 36
        0x00001a8c:    9802        ..      LDR      r0,[sp,#8]
        0x00001a8e:    7900        .y      LDRB     r0,[r0,#4]
        0x00001a90:    b1a0        ..      CBZ      r0,0x1abc ; TimerService_DispatchFlag + 84
        0x00001a92:    e7ff        ..      B        0x1a94 ; TimerService_DispatchFlag + 44
        0x00001a94:    9802        ..      LDR      r0,[sp,#8]
        0x00001a96:    6880        .h      LDR      r0,[r0,#8]
        0x00001a98:    b180        ..      CBZ      r0,0x1abc ; TimerService_DispatchFlag + 84
        0x00001a9a:    e7ff        ..      B        0x1a9c ; TimerService_DispatchFlag + 52
        0x00001a9c:    9802        ..      LDR      r0,[sp,#8]
        0x00001a9e:    f000f8af    ....    BL       TimerService_TakePending ; 0x1c00
        0x00001aa2:    b150        P.      CBZ      r0,0x1aba ; TimerService_DispatchFlag + 82
        0x00001aa4:    e7ff        ..      B        0x1aa6 ; TimerService_DispatchFlag + 62
        0x00001aa6:    9802        ..      LDR      r0,[sp,#8]
        0x00001aa8:    6880        .h      LDR      r0,[r0,#8]
        0x00001aaa:    9001        ..      STR      r0,[sp,#4]
        0x00001aac:    9802        ..      LDR      r0,[sp,#8]
        0x00001aae:    68c0        .h      LDR      r0,[r0,#0xc]
        0x00001ab0:    9000        ..      STR      r0,[sp,#0]
        0x00001ab2:    9901        ..      LDR      r1,[sp,#4]
        0x00001ab4:    9800        ..      LDR      r0,[sp,#0]
        0x00001ab6:    4788        .G      BLX      r1
        0x00001ab8:    e7ff        ..      B        0x1aba ; TimerService_DispatchFlag + 82
        0x00001aba:    e7ff        ..      B        0x1abc ; TimerService_DispatchFlag + 84
        0x00001abc:    e7ff        ..      B        0x1abe ; TimerService_DispatchFlag + 86
        0x00001abe:    9803        ..      LDR      r0,[sp,#0xc]
        0x00001ac0:    1c40        @.      ADDS     r0,r0,#1
        0x00001ac2:    9003        ..      STR      r0,[sp,#0xc]
        0x00001ac4:    e7d5        ..      B        0x1a72 ; TimerService_DispatchFlag + 10
        0x00001ac6:    b004        ..      ADD      sp,sp,#0x10
        0x00001ac8:    bd80        ..      POP      {r7,pc}
        0x00001aca:    46c0        .F      MOV      r8,r8
    TimerService_DispatchQueue
        0x00001acc:    b580        ..      PUSH     {r7,lr}
        0x00001ace:    b084        ..      SUB      sp,sp,#0x10
        0x00001ad0:    e7ff        ..      B        0x1ad2 ; TimerService_DispatchQueue + 6
        0x00001ad2:    a803        ..      ADD      r0,sp,#0xc
        0x00001ad4:    f7ffff8a    ....    BL       TimerService_DequeueEvent ; 0x19ec
        0x00001ad8:    b1e0        ..      CBZ      r0,0x1b14 ; TimerService_DispatchQueue + 72
        0x00001ada:    e7ff        ..      B        0x1adc ; TimerService_DispatchQueue + 16
        0x00001adc:    9803        ..      LDR      r0,[sp,#0xc]
        0x00001ade:    2800        .(      CMP      r0,#0
        0x00001ae0:    d417        ..      BMI      0x1b12 ; TimerService_DispatchQueue + 70
        0x00001ae2:    e7ff        ..      B        0x1ae4 ; TimerService_DispatchQueue + 24
        0x00001ae4:    9803        ..      LDR      r0,[sp,#0xc]
        0x00001ae6:    280f        .(      CMP      r0,#0xf
        0x00001ae8:    dc13        ..      BGT      0x1b12 ; TimerService_DispatchQueue + 70
        0x00001aea:    e7ff        ..      B        0x1aec ; TimerService_DispatchQueue + 32
        0x00001aec:    9803        ..      LDR      r0,[sp,#0xc]
        0x00001aee:    0101        ..      LSLS     r1,r0,#4
        0x00001af0:    4873        sH      LDR      r0,[pc,#460] ; [0x1cc0] = 0x20000158
        0x00001af2:    1840        @.      ADDS     r0,r0,r1
        0x00001af4:    9002        ..      STR      r0,[sp,#8]
        0x00001af6:    9802        ..      LDR      r0,[sp,#8]
        0x00001af8:    6880        .h      LDR      r0,[r0,#8]
        0x00001afa:    9001        ..      STR      r0,[sp,#4]
        0x00001afc:    9802        ..      LDR      r0,[sp,#8]
        0x00001afe:    68c0        .h      LDR      r0,[r0,#0xc]
        0x00001b00:    9000        ..      STR      r0,[sp,#0]
        0x00001b02:    9801        ..      LDR      r0,[sp,#4]
        0x00001b04:    b120         .      CBZ      r0,0x1b10 ; TimerService_DispatchQueue + 68
        0x00001b06:    e7ff        ..      B        0x1b08 ; TimerService_DispatchQueue + 60
        0x00001b08:    9901        ..      LDR      r1,[sp,#4]
        0x00001b0a:    9800        ..      LDR      r0,[sp,#0]
        0x00001b0c:    4788        .G      BLX      r1
        0x00001b0e:    e7ff        ..      B        0x1b10 ; TimerService_DispatchQueue + 68
        0x00001b10:    e7ff        ..      B        0x1b12 ; TimerService_DispatchQueue + 70
        0x00001b12:    e7de        ..      B        0x1ad2 ; TimerService_DispatchQueue + 6
        0x00001b14:    b004        ..      ADD      sp,sp,#0x10
        0x00001b16:    bd80        ..      POP      {r7,pc}
    TimerService_EnqueueEventFromISR
        0x00001b18:    b083        ..      SUB      sp,sp,#0xc
        0x00001b1a:    9002        ..      STR      r0,[sp,#8]
        0x00001b1c:    4829        )H      LDR      r0,[pc,#164] ; [0x1bc4] = 0x20000114
        0x00001b1e:    9001        ..      STR      r0,[sp,#4]
        0x00001b20:    9801        ..      LDR      r0,[sp,#4]
        0x00001b22:    7840        @x      LDRB     r0,[r0,#1]
        0x00001b24:    1c41        A.      ADDS     r1,r0,#1
        0x00001b26:    4668        hF      MOV      r0,sp
        0x00001b28:    7001        .p      STRB     r1,[r0,#0]
        0x00001b2a:    7800        .x      LDRB     r0,[r0,#0]
        0x00001b2c:    2810        .(      CMP      r0,#0x10
        0x00001b2e:    d304        ..      BCC      0x1b3a ; TimerService_EnqueueEventFromISR + 34
        0x00001b30:    e7ff        ..      B        0x1b32 ; TimerService_EnqueueEventFromISR + 26
        0x00001b32:    4669        iF      MOV      r1,sp
        0x00001b34:    2000        .       MOVS     r0,#0
        0x00001b36:    7008        .p      STRB     r0,[r1,#0]
        0x00001b38:    e7ff        ..      B        0x1b3a ; TimerService_EnqueueEventFromISR + 34
        0x00001b3a:    4668        hF      MOV      r0,sp
        0x00001b3c:    7800        .x      LDRB     r0,[r0,#0]
        0x00001b3e:    9901        ..      LDR      r1,[sp,#4]
        0x00001b40:    7809        .x      LDRB     r1,[r1,#0]
        0x00001b42:    4288        .B      CMP      r0,r1
        0x00001b44:    d101        ..      BNE      0x1b4a ; TimerService_EnqueueEventFromISR + 50
        0x00001b46:    e7ff        ..      B        0x1b48 ; TimerService_EnqueueEventFromISR + 48
        0x00001b48:    e009        ..      B        0x1b5e ; TimerService_EnqueueEventFromISR + 70
        0x00001b4a:    9802        ..      LDR      r0,[sp,#8]
        0x00001b4c:    9901        ..      LDR      r1,[sp,#4]
        0x00001b4e:    784a        Jx      LDRB     r2,[r1,#1]
        0x00001b50:    0092        ..      LSLS     r2,r2,#2
        0x00001b52:    1889        ..      ADDS     r1,r1,r2
        0x00001b54:    6048        H`      STR      r0,[r1,#4]
        0x00001b56:    9800        ..      LDR      r0,[sp,#0]
        0x00001b58:    9901        ..      LDR      r1,[sp,#4]
        0x00001b5a:    7048        Hp      STRB     r0,[r1,#1]
        0x00001b5c:    e7ff        ..      B        0x1b5e ; TimerService_EnqueueEventFromISR + 70
        0x00001b5e:    b003        ..      ADD      sp,sp,#0xc
        0x00001b60:    4770        pG      BX       lr
        0x00001b62:    46c0        .F      MOV      r8,r8
    TimerService_EnterCritical
        0x00001b64:    b672        r.      CPSID    i
        0x00001b66:    4770        pG      BX       lr
    TimerService_ExitCritical
        0x00001b68:    b662        b.      CPSIE    i
        0x00001b6a:    4770        pG      BX       lr
    TimerService_Init
        0x00001b6c:    b083        ..      SUB      sp,sp,#0xc
        0x00001b6e:    4815        .H      LDR      r0,[pc,#84] ; [0x1bc4] = 0x20000114
        0x00001b70:    9000        ..      STR      r0,[sp,#0]
        0x00001b72:    9900        ..      LDR      r1,[sp,#0]
        0x00001b74:    2000        .       MOVS     r0,#0
        0x00001b76:    7008        .p      STRB     r0,[r1,#0]
        0x00001b78:    9900        ..      LDR      r1,[sp,#0]
        0x00001b7a:    7048        Hp      STRB     r0,[r1,#1]
        0x00001b7c:    9002        ..      STR      r0,[sp,#8]
        0x00001b7e:    e7ff        ..      B        0x1b80 ; TimerService_Init + 20
        0x00001b80:    9802        ..      LDR      r0,[sp,#8]
        0x00001b82:    280f        .(      CMP      r0,#0xf
        0x00001b84:    d81c        ..      BHI      0x1bc0 ; TimerService_Init + 84
        0x00001b86:    e7ff        ..      B        0x1b88 ; TimerService_Init + 28
        0x00001b88:    9802        ..      LDR      r0,[sp,#8]
        0x00001b8a:    0101        ..      LSLS     r1,r0,#4
        0x00001b8c:    484c        LH      LDR      r0,[pc,#304] ; [0x1cc0] = 0x20000158
        0x00001b8e:    1840        @.      ADDS     r0,r0,r1
        0x00001b90:    9001        ..      STR      r0,[sp,#4]
        0x00001b92:    9901        ..      LDR      r1,[sp,#4]
        0x00001b94:    2000        .       MOVS     r0,#0
        0x00001b96:    8008        ..      STRH     r0,[r1,#0]
        0x00001b98:    9901        ..      LDR      r1,[sp,#4]
        0x00001b9a:    8048        H.      STRH     r0,[r1,#2]
        0x00001b9c:    9901        ..      LDR      r1,[sp,#4]
        0x00001b9e:    7108        .q      STRB     r0,[r1,#4]
        0x00001ba0:    9a01        ..      LDR      r2,[sp,#4]
        0x00001ba2:    2101        .!      MOVS     r1,#1
        0x00001ba4:    7151        Qq      STRB     r1,[r2,#5]
        0x00001ba6:    9901        ..      LDR      r1,[sp,#4]
        0x00001ba8:    7188        .q      STRB     r0,[r1,#6]
        0x00001baa:    9901        ..      LDR      r1,[sp,#4]
        0x00001bac:    71c8        .q      STRB     r0,[r1,#7]
        0x00001bae:    9901        ..      LDR      r1,[sp,#4]
        0x00001bb0:    6088        .`      STR      r0,[r1,#8]
        0x00001bb2:    9901        ..      LDR      r1,[sp,#4]
        0x00001bb4:    60c8        .`      STR      r0,[r1,#0xc]
        0x00001bb6:    e7ff        ..      B        0x1bb8 ; TimerService_Init + 76
        0x00001bb8:    9802        ..      LDR      r0,[sp,#8]
        0x00001bba:    1c40        @.      ADDS     r0,r0,#1
        0x00001bbc:    9002        ..      STR      r0,[sp,#8]
        0x00001bbe:    e7df        ..      B        0x1b80 ; TimerService_Init + 20
        0x00001bc0:    b003        ..      ADD      sp,sp,#0xc
        0x00001bc2:    4770        pG      BX       lr
    $d.26
    __arm_cp.15_0
        0x00001bc4:    20000114    ...     DCD    536871188
    $t.18
    TimerService_StartTimer
        0x00001bc8:    b082        ..      SUB      sp,sp,#8
        0x00001bca:    9001        ..      STR      r0,[sp,#4]
        0x00001bcc:    9801        ..      LDR      r0,[sp,#4]
        0x00001bce:    2810        .(      CMP      r0,#0x10
        0x00001bd0:    d301        ..      BCC      0x1bd6 ; TimerService_StartTimer + 14
        0x00001bd2:    e7ff        ..      B        0x1bd4 ; TimerService_StartTimer + 12
        0x00001bd4:    e012        ..      B        0x1bfc ; TimerService_StartTimer + 52
        0x00001bd6:    9801        ..      LDR      r0,[sp,#4]
        0x00001bd8:    0101        ..      LSLS     r1,r0,#4
        0x00001bda:    4839        9H      LDR      r0,[pc,#228] ; [0x1cc0] = 0x20000158
        0x00001bdc:    1840        @.      ADDS     r0,r0,r1
        0x00001bde:    9000        ..      STR      r0,[sp,#0]
        0x00001be0:    9800        ..      LDR      r0,[sp,#0]
        0x00001be2:    6880        .h      LDR      r0,[r0,#8]
        0x00001be4:    b908        ..      CBNZ     r0,0x1bea ; TimerService_StartTimer + 34
        0x00001be6:    e7ff        ..      B        0x1be8 ; TimerService_StartTimer + 32
        0x00001be8:    e008        ..      B        0x1bfc ; TimerService_StartTimer + 52
        0x00001bea:    9900        ..      LDR      r1,[sp,#0]
        0x00001bec:    2000        .       MOVS     r0,#0
        0x00001bee:    8048        H.      STRH     r0,[r1,#2]
        0x00001bf0:    9900        ..      LDR      r1,[sp,#0]
        0x00001bf2:    7188        .q      STRB     r0,[r1,#6]
        0x00001bf4:    9900        ..      LDR      r1,[sp,#0]
        0x00001bf6:    2001        .       MOVS     r0,#1
        0x00001bf8:    7108        .q      STRB     r0,[r1,#4]
        0x00001bfa:    e7ff        ..      B        0x1bfc ; TimerService_StartTimer + 52
        0x00001bfc:    b002        ..      ADD      sp,sp,#8
        0x00001bfe:    4770        pG      BX       lr
    TimerService_TakePending
        0x00001c00:    b580        ..      PUSH     {r7,lr}
        0x00001c02:    b082        ..      SUB      sp,sp,#8
        0x00001c04:    9001        ..      STR      r0,[sp,#4]
        0x00001c06:    4669        iF      MOV      r1,sp
        0x00001c08:    2000        .       MOVS     r0,#0
        0x00001c0a:    7008        .p      STRB     r0,[r1,#0]
        0x00001c0c:    f7ffffaa    ....    BL       TimerService_EnterCritical ; 0x1b64
        0x00001c10:    9801        ..      LDR      r0,[sp,#4]
        0x00001c12:    7980        .y      LDRB     r0,[r0,#6]
        0x00001c14:    b138        8.      CBZ      r0,0x1c26 ; TimerService_TakePending + 38
        0x00001c16:    e7ff        ..      B        0x1c18 ; TimerService_TakePending + 24
        0x00001c18:    9901        ..      LDR      r1,[sp,#4]
        0x00001c1a:    2000        .       MOVS     r0,#0
        0x00001c1c:    7188        .q      STRB     r0,[r1,#6]
        0x00001c1e:    4669        iF      MOV      r1,sp
        0x00001c20:    2001        .       MOVS     r0,#1
        0x00001c22:    7008        .p      STRB     r0,[r1,#0]
        0x00001c24:    e7ff        ..      B        0x1c26 ; TimerService_TakePending + 38
        0x00001c26:    f7ffff9f    ....    BL       TimerService_ExitCritical ; 0x1b68
        0x00001c2a:    4668        hF      MOV      r0,sp
        0x00001c2c:    7800        .x      LDRB     r0,[r0,#0]
        0x00001c2e:    b002        ..      ADD      sp,sp,#8
        0x00001c30:    bd80        ..      POP      {r7,pc}
        0x00001c32:    0000        ..      MOVS     r0,r0
    TimerService_Tick1ms
        0x00001c34:    b580        ..      PUSH     {r7,lr}
        0x00001c36:    b082        ..      SUB      sp,sp,#8
        0x00001c38:    2000        .       MOVS     r0,#0
        0x00001c3a:    9001        ..      STR      r0,[sp,#4]
        0x00001c3c:    e7ff        ..      B        0x1c3e ; TimerService_Tick1ms + 10
        0x00001c3e:    9801        ..      LDR      r0,[sp,#4]
        0x00001c40:    280f        .(      CMP      r0,#0xf
        0x00001c42:    d83a        :.      BHI      0x1cba ; TimerService_Tick1ms + 134
        0x00001c44:    e7ff        ..      B        0x1c46 ; TimerService_Tick1ms + 18
        0x00001c46:    9801        ..      LDR      r0,[sp,#4]
        0x00001c48:    0101        ..      LSLS     r1,r0,#4
        0x00001c4a:    481d        .H      LDR      r0,[pc,#116] ; [0x1cc0] = 0x20000158
        0x00001c4c:    1840        @.      ADDS     r0,r0,r1
        0x00001c4e:    9000        ..      STR      r0,[sp,#0]
        0x00001c50:    9800        ..      LDR      r0,[sp,#0]
        0x00001c52:    7900        .y      LDRB     r0,[r0,#4]
        0x00001c54:    b360        `.      CBZ      r0,0x1cb0 ; TimerService_Tick1ms + 124
        0x00001c56:    e7ff        ..      B        0x1c58 ; TimerService_Tick1ms + 36
        0x00001c58:    9800        ..      LDR      r0,[sp,#0]
        0x00001c5a:    6880        .h      LDR      r0,[r0,#8]
        0x00001c5c:    b340        @.      CBZ      r0,0x1cb0 ; TimerService_Tick1ms + 124
        0x00001c5e:    e7ff        ..      B        0x1c60 ; TimerService_Tick1ms + 44
        0x00001c60:    9800        ..      LDR      r0,[sp,#0]
        0x00001c62:    8840        @.      LDRH     r0,[r0,#2]
        0x00001c64:    4917        .I      LDR      r1,[pc,#92] ; [0x1cc4] = 0xffff
        0x00001c66:    4288        .B      CMP      r0,r1
        0x00001c68:    d005        ..      BEQ      0x1c76 ; TimerService_Tick1ms + 66
        0x00001c6a:    e7ff        ..      B        0x1c6c ; TimerService_Tick1ms + 56
        0x00001c6c:    9900        ..      LDR      r1,[sp,#0]
        0x00001c6e:    8848        H.      LDRH     r0,[r1,#2]
        0x00001c70:    1c40        @.      ADDS     r0,r0,#1
        0x00001c72:    8048        H.      STRH     r0,[r1,#2]
        0x00001c74:    e7ff        ..      B        0x1c76 ; TimerService_Tick1ms + 66
        0x00001c76:    9800        ..      LDR      r0,[sp,#0]
        0x00001c78:    8840        @.      LDRH     r0,[r0,#2]
        0x00001c7a:    9900        ..      LDR      r1,[sp,#0]
        0x00001c7c:    8809        ..      LDRH     r1,[r1,#0]
        0x00001c7e:    4288        .B      CMP      r0,r1
        0x00001c80:    db15        ..      BLT      0x1cae ; TimerService_Tick1ms + 122
        0x00001c82:    e7ff        ..      B        0x1c84 ; TimerService_Tick1ms + 80
        0x00001c84:    9900        ..      LDR      r1,[sp,#0]
        0x00001c86:    2000        .       MOVS     r0,#0
        0x00001c88:    8048        H.      STRH     r0,[r1,#2]
        0x00001c8a:    9800        ..      LDR      r0,[sp,#0]
        0x00001c8c:    7940        @y      LDRB     r0,[r0,#5]
        0x00001c8e:    b948        H.      CBNZ     r0,0x1ca4 ; TimerService_Tick1ms + 112
        0x00001c90:    e7ff        ..      B        0x1c92 ; TimerService_Tick1ms + 94
        0x00001c92:    9800        ..      LDR      r0,[sp,#0]
        0x00001c94:    7980        .y      LDRB     r0,[r0,#6]
        0x00001c96:    b920         .      CBNZ     r0,0x1ca2 ; TimerService_Tick1ms + 110
        0x00001c98:    e7ff        ..      B        0x1c9a ; TimerService_Tick1ms + 102
        0x00001c9a:    9900        ..      LDR      r1,[sp,#0]
        0x00001c9c:    2001        .       MOVS     r0,#1
        0x00001c9e:    7188        .q      STRB     r0,[r1,#6]
        0x00001ca0:    e7ff        ..      B        0x1ca2 ; TimerService_Tick1ms + 110
        0x00001ca2:    e003        ..      B        0x1cac ; TimerService_Tick1ms + 120
        0x00001ca4:    9801        ..      LDR      r0,[sp,#4]
        0x00001ca6:    f7ffff37    ..7.    BL       TimerService_EnqueueEventFromISR ; 0x1b18
        0x00001caa:    e7ff        ..      B        0x1cac ; TimerService_Tick1ms + 120
        0x00001cac:    e7ff        ..      B        0x1cae ; TimerService_Tick1ms + 122
        0x00001cae:    e7ff        ..      B        0x1cb0 ; TimerService_Tick1ms + 124
        0x00001cb0:    e7ff        ..      B        0x1cb2 ; TimerService_Tick1ms + 126
        0x00001cb2:    9801        ..      LDR      r0,[sp,#4]
        0x00001cb4:    1c40        @.      ADDS     r0,r0,#1
        0x00001cb6:    9001        ..      STR      r0,[sp,#4]
        0x00001cb8:    e7c1        ..      B        0x1c3e ; TimerService_Tick1ms + 10
        0x00001cba:    b002        ..      ADD      sp,sp,#8
        0x00001cbc:    bd80        ..      POP      {r7,pc}
        0x00001cbe:    46c0        .F      MOV      r8,r8
    $d.1
    __arm_cp.0_0
        0x00001cc0:    20000158    X..     DCD    536871256
    __arm_cp.0_1
        0x00001cc4:    0000ffff    ....    DCD    65535
    $t.53
    UART0_IRQHandler
        0x00001cc8:    b580        ..      PUSH     {r7,lr}
        0x00001cca:    4812        .H      LDR      r0,[pc,#72] ; [0x1d14] = 0x4007001c
        0x00001ccc:    6800        .h      LDR      r0,[r0,#0]
        0x00001cce:    f2411100    A...    MOVW     r1,#0x1100
        0x00001cd2:    4208        .B      TST      r0,r1
        0x00001cd4:    d003        ..      BEQ      0x1cde ; UART0_IRQHandler + 22
        0x00001cd6:    e7ff        ..      B        0x1cd8 ; UART0_IRQHandler + 16
        0x00001cd8:    2001        .       MOVS     r0,#1
        0x00001cda:    b918        ..      CBNZ     r0,0x1ce4 ; UART0_IRQHandler + 28
        0x00001cdc:    e00d        ..      B        0x1cfa ; UART0_IRQHandler + 50
        0x00001cde:    2001        .       MOVS     r0,#1
        0x00001ce0:    b958        X.      CBNZ     r0,0x1cfa ; UART0_IRQHandler + 50
        0x00001ce2:    e7ff        ..      B        0x1ce4 ; UART0_IRQHandler + 28
        0x00001ce4:    e7ff        ..      B        0x1ce6 ; UART0_IRQHandler + 30
        0x00001ce6:    480c        .H      LDR      r0,[pc,#48] ; [0x1d18] = 0x40070018
        0x00001ce8:    6800        .h      LDR      r0,[r0,#0]
        0x00001cea:    0440        @.      LSLS     r0,r0,#17
        0x00001cec:    2800        .(      CMP      r0,#0
        0x00001cee:    d403        ..      BMI      0x1cf8 ; UART0_IRQHandler + 48
        0x00001cf0:    e7ff        ..      B        0x1cf2 ; UART0_IRQHandler + 42
        0x00001cf2:    f000f923    ..#.    BL       UARTx_Process ; 0x1f3c
        0x00001cf6:    e7f6        ..      B        0x1ce6 ; UART0_IRQHandler + 30
        0x00001cf8:    e7ff        ..      B        0x1cfa ; UART0_IRQHandler + 50
        0x00001cfa:    4807        .H      LDR      r0,[pc,#28] ; [0x1d18] = 0x40070018
        0x00001cfc:    6800        .h      LDR      r0,[r0,#0]
        0x00001cfe:    2171        q!      MOVS     r1,#0x71
        0x00001d00:    4208        .B      TST      r0,r1
        0x00001d02:    d006        ..      BEQ      0x1d12 ; UART0_IRQHandler + 74
        0x00001d04:    e7ff        ..      B        0x1d06 ; UART0_IRQHandler + 62
        0x00001d06:    48b4        .H      LDR      r0,[pc,#720] ; [0x1fd8] = 0x40070000
        0x00001d08:    f2424100    B..A    MOVW     r1,#0x2400
        0x00001d0c:    f000f83c    ..<.    BL       UART_ClearIntFlag ; 0x1d88
        0x00001d10:    e7ff        ..      B        0x1d12 ; UART0_IRQHandler + 74
        0x00001d12:    bd80        ..      POP      {r7,pc}
    $d.54
    __arm_cp.31_0
        0x00001d14:    4007001c    ...@    DCD    1074200604
    __arm_cp.31_1
        0x00001d18:    40070018    ...@    DCD    1074200600
    $t.55
    UART0_Init
        0x00001d1c:    b580        ..      PUSH     {r7,lr}
        0x00001d1e:    b082        ..      SUB      sp,sp,#8
        0x00001d20:    4814        .H      LDR      r0,[pc,#80] ; [0x1d74] = 0x4000010
        0x00001d22:    f7fffae1    ....    BL       SYS_ResetModule ; 0x12e8
        0x00001d26:    20e1        .       MOVS     r0,#0xe1
        0x00001d28:    0241        A.      LSLS     r1,r0,#9
        0x00001d2a:    48ab        .H      LDR      r0,[pc,#684] ; [0x1fd8] = 0x40070000
        0x00001d2c:    9001        ..      STR      r0,[sp,#4]
        0x00001d2e:    f000f873    ..s.    BL       UART_Open ; 0x1e18
        0x00001d32:    9801        ..      LDR      r0,[sp,#4]
        0x00001d34:    2111        .!      MOVS     r1,#0x11
        0x00001d36:    f000f865    ..e.    BL       UART_EnableInt ; 0x1e04
        0x00001d3a:    2024        $       MOVS     r0,#0x24
        0x00001d3c:    f000f9fe    ....    BL       __NVIC_EnableIRQ ; 0x213c
        0x00001d40:    f7fefd32    ..2.    BL       CLK_GetHCLKFreq ; 0x7a8
        0x00001d44:    4601        .F      MOV      r1,r0
        0x00001d46:    480c        .H      LDR      r0,[pc,#48] ; [0x1d78] = 0x2fb8
        0x00001d48:    f000fbfa    ....    BL       __0printf ; 0x2540
        0x00001d4c:    f7fefd32    ..2.    BL       CLK_GetPCLK0Freq ; 0x7b4
        0x00001d50:    4601        .F      MOV      r1,r0
        0x00001d52:    480a        .H      LDR      r0,[pc,#40] ; [0x1d7c] = 0x2f86
        0x00001d54:    f000fbf4    ....    BL       __0printf ; 0x2540
        0x00001d58:    f7fefd3c    ..<.    BL       CLK_GetPCLK1Freq ; 0x7d4
        0x00001d5c:    4601        .F      MOV      r1,r0
        0x00001d5e:    4808        .H      LDR      r0,[pc,#32] ; [0x1d80] = 0x2f9f
        0x00001d60:    f000fbee    ....    BL       __0printf ; 0x2540
        0x00001d64:    f7fefd1a    ....    BL       CLK_GetCPUFreq ; 0x79c
        0x00001d68:    4601        .F      MOV      r1,r0
        0x00001d6a:    4806        .H      LDR      r0,[pc,#24] ; [0x1d84] = 0x2fd2
        0x00001d6c:    f000fbe8    ....    BL       __0printf ; 0x2540
        0x00001d70:    b002        ..      ADD      sp,sp,#8
        0x00001d72:    bd80        ..      POP      {r7,pc}
    $d.56
    __arm_cp.32_0
        0x00001d74:    04000010    ....    DCD    67108880
    __arm_cp.32_2
        0x00001d78:    00002fb8    ./..    DCD    12216
    __arm_cp.32_3
        0x00001d7c:    00002f86    ./..    DCD    12166
    __arm_cp.32_4
        0x00001d80:    00002f9f    ./..    DCD    12191
    __arm_cp.32_5
        0x00001d84:    00002fd2    ./..    DCD    12242
    $t.0
    UART_ClearIntFlag
        0x00001d88:    b082        ..      SUB      sp,sp,#8
        0x00001d8a:    9001        ..      STR      r0,[sp,#4]
        0x00001d8c:    9100        ..      STR      r1,[sp,#0]
        0x00001d8e:    4668        hF      MOV      r0,sp
        0x00001d90:    78c0        .x      LDRB     r0,[r0,#3]
        0x00001d92:    07c0        ..      LSLS     r0,r0,#31
        0x00001d94:    b128        (.      CBZ      r0,0x1da2 ; UART_ClearIntFlag + 26
        0x00001d96:    e7ff        ..      B        0x1d98 ; UART_ClearIntFlag + 16
        0x00001d98:    9901        ..      LDR      r1,[sp,#4]
        0x00001d9a:    2001        .       MOVS     r0,#1
        0x00001d9c:    0400        ..      LSLS     r0,r0,#16
        0x00001d9e:    61c8        .a      STR      r0,[r1,#0x1c]
        0x00001da0:    e7ff        ..      B        0x1da2 ; UART_ClearIntFlag + 26
        0x00001da2:    4668        hF      MOV      r0,sp
        0x00001da4:    7840        @x      LDRB     r0,[r0,#1]
        0x00001da6:    0740        @.      LSLS     r0,r0,#29
        0x00001da8:    2800        .(      CMP      r0,#0
        0x00001daa:    d507        ..      BPL      0x1dbc ; UART_ClearIntFlag + 52
        0x00001dac:    e7ff        ..      B        0x1dae ; UART_ClearIntFlag + 38
        0x00001dae:    9901        ..      LDR      r1,[sp,#4]
        0x00001db0:    2070        p       MOVS     r0,#0x70
        0x00001db2:    6188        .a      STR      r0,[r1,#0x18]
        0x00001db4:    9901        ..      LDR      r1,[sp,#4]
        0x00001db6:    2008        .       MOVS     r0,#8
        0x00001db8:    6188        .a      STR      r0,[r1,#0x18]
        0x00001dba:    e7ff        ..      B        0x1dbc ; UART_ClearIntFlag + 52
        0x00001dbc:    4668        hF      MOV      r0,sp
        0x00001dbe:    7840        @x      LDRB     r0,[r0,#1]
        0x00001dc0:    0700        ..      LSLS     r0,r0,#28
        0x00001dc2:    2800        .(      CMP      r0,#0
        0x00001dc4:    d506        ..      BPL      0x1dd4 ; UART_ClearIntFlag + 76
        0x00001dc6:    e7ff        ..      B        0x1dc8 ; UART_ClearIntFlag + 64
        0x00001dc8:    9901        ..      LDR      r1,[sp,#4]
        0x00001dca:    6948        Hi      LDR      r0,[r1,#0x14]
        0x00001dcc:    2201        ."      MOVS     r2,#1
        0x00001dce:    4310        .C      ORRS     r0,r0,r2
        0x00001dd0:    6148        Ha      STR      r0,[r1,#0x14]
        0x00001dd2:    e7ff        ..      B        0x1dd4 ; UART_ClearIntFlag + 76
        0x00001dd4:    4668        hF      MOV      r0,sp
        0x00001dd6:    7840        @x      LDRB     r0,[r0,#1]
        0x00001dd8:    0680        ..      LSLS     r0,r0,#26
        0x00001dda:    2800        .(      CMP      r0,#0
        0x00001ddc:    d504        ..      BPL      0x1de8 ; UART_ClearIntFlag + 96
        0x00001dde:    e7ff        ..      B        0x1de0 ; UART_ClearIntFlag + 88
        0x00001de0:    9901        ..      LDR      r1,[sp,#4]
        0x00001de2:    4807        .H      LDR      r0,[pc,#28] ; [0x1e00] = 0x1000001
        0x00001de4:    6188        .a      STR      r0,[r1,#0x18]
        0x00001de6:    e7ff        ..      B        0x1de8 ; UART_ClearIntFlag + 96
        0x00001de8:    4668        hF      MOV      r0,sp
        0x00001dea:    7840        @x      LDRB     r0,[r0,#1]
        0x00001dec:    0640        @.      LSLS     r0,r0,#25
        0x00001dee:    2800        .(      CMP      r0,#0
        0x00001df0:    d504        ..      BPL      0x1dfc ; UART_ClearIntFlag + 116
        0x00001df2:    e7ff        ..      B        0x1df4 ; UART_ClearIntFlag + 108
        0x00001df4:    9901        ..      LDR      r1,[sp,#4]
        0x00001df6:    2003        .       MOVS     r0,#3
        0x00001df8:    6448        Hd      STR      r0,[r1,#0x44]
        0x00001dfa:    e7ff        ..      B        0x1dfc ; UART_ClearIntFlag + 116
        0x00001dfc:    b002        ..      ADD      sp,sp,#8
        0x00001dfe:    4770        pG      BX       lr
    $d.1
    __arm_cp.0_0
        0x00001e00:    01000001    ....    DCD    16777217
    $t.6
    UART_EnableInt
        0x00001e04:    b082        ..      SUB      sp,sp,#8
        0x00001e06:    9001        ..      STR      r0,[sp,#4]
        0x00001e08:    9100        ..      STR      r1,[sp,#0]
        0x00001e0a:    9a00        ..      LDR      r2,[sp,#0]
        0x00001e0c:    9901        ..      LDR      r1,[sp,#4]
        0x00001e0e:    6848        Hh      LDR      r0,[r1,#4]
        0x00001e10:    4310        .C      ORRS     r0,r0,r2
        0x00001e12:    6048        H`      STR      r0,[r1,#4]
        0x00001e14:    b002        ..      ADD      sp,sp,#8
        0x00001e16:    4770        pG      BX       lr
    UART_Open
        0x00001e18:    b510        ..      PUSH     {r4,lr}
        0x00001e1a:    b08a        ..      SUB      sp,sp,#0x28
        0x00001e1c:    9009        ..      STR      r0,[sp,#0x24]
        0x00001e1e:    9108        ..      STR      r1,[sp,#0x20]
        0x00001e20:    4941        AI      LDR      r1,[pc,#260] ; [0x1f28] = 0x2e58
        0x00001e22:    a801        ..      ADD      r0,sp,#4
        0x00001e24:    c90c        ..      LDM      r1!,{r2,r3}
        0x00001e26:    c00c        ..      STM      r0!,{r2,r3}
        0x00001e28:    c91c        ..      LDM      r1!,{r2-r4}
        0x00001e2a:    c01c        ..      STM      r0!,{r2-r4}
        0x00001e2c:    2000        .       MOVS     r0,#0
        0x00001e2e:    9000        ..      STR      r0,[sp,#0]
        0x00001e30:    9809        ..      LDR      r0,[sp,#0x24]
        0x00001e32:    4969        iI      LDR      r1,[pc,#420] ; [0x1fd8] = 0x40070000
        0x00001e34:    4288        .B      CMP      r0,r1
        0x00001e36:    d10f        ..      BNE      0x1e58 ; UART_Open + 64
        0x00001e38:    e7ff        ..      B        0x1e3a ; UART_Open + 34
        0x00001e3a:    483d        =H      LDR      r0,[pc,#244] ; [0x1f30] = 0x40000218
        0x00001e3c:    6800        .h      LDR      r0,[r0,#0]
        0x00001e3e:    2107        .!      MOVS     r1,#7
        0x00001e40:    0409        ..      LSLS     r1,r1,#16
        0x00001e42:    4008        .@      ANDS     r0,r0,r1
        0x00001e44:    0c00        ..      LSRS     r0,r0,#16
        0x00001e46:    9007        ..      STR      r0,[sp,#0x1c]
        0x00001e48:    483a        :H      LDR      r0,[pc,#232] ; [0x1f34] = 0x40000220
        0x00001e4a:    6800        .h      LDR      r0,[r0,#0]
        0x00001e4c:    f6407100    @..q    MOVW     r1,#0xf00
        0x00001e50:    4008        .@      ANDS     r0,r0,r1
        0x00001e52:    0a00        ..      LSRS     r0,r0,#8
        0x00001e54:    9006        ..      STR      r0,[sp,#0x18]
        0x00001e56:    e012        ..      B        0x1e7e ; UART_Open + 102
        0x00001e58:    9809        ..      LDR      r0,[sp,#0x24]
        0x00001e5a:    4934        4I      LDR      r1,[pc,#208] ; [0x1f2c] = 0x40071000
        0x00001e5c:    4288        .B      CMP      r0,r1
        0x00001e5e:    d10d        ..      BNE      0x1e7c ; UART_Open + 100
        0x00001e60:    e7ff        ..      B        0x1e62 ; UART_Open + 74
        0x00001e62:    4833        3H      LDR      r0,[pc,#204] ; [0x1f30] = 0x40000218
        0x00001e64:    6800        .h      LDR      r0,[r0,#0]
        0x00001e66:    2107        .!      MOVS     r1,#7
        0x00001e68:    0509        ..      LSLS     r1,r1,#20
        0x00001e6a:    4008        .@      ANDS     r0,r0,r1
        0x00001e6c:    0d00        ..      LSRS     r0,r0,#20
        0x00001e6e:    9007        ..      STR      r0,[sp,#0x1c]
        0x00001e70:    4830        0H      LDR      r0,[pc,#192] ; [0x1f34] = 0x40000220
        0x00001e72:    6800        .h      LDR      r0,[r0,#0]
        0x00001e74:    b280        ..      UXTH     r0,r0
        0x00001e76:    0b00        ..      LSRS     r0,r0,#12
        0x00001e78:    9006        ..      STR      r0,[sp,#0x18]
        0x00001e7a:    e7ff        ..      B        0x1e7c ; UART_Open + 100
        0x00001e7c:    e7ff        ..      B        0x1e7e ; UART_Open + 102
        0x00001e7e:    9909        ..      LDR      r1,[sp,#0x24]
        0x00001e80:    2000        .       MOVS     r0,#0
        0x00001e82:    6308        .c      STR      r0,[r1,#0x30]
        0x00001e84:    9909        ..      LDR      r1,[sp,#0x24]
        0x00001e86:    2003        .       MOVS     r0,#3
        0x00001e88:    60c8        .`      STR      r0,[r1,#0xc]
        0x00001e8a:    9909        ..      LDR      r1,[sp,#0x24]
        0x00001e8c:    6888        .h      LDR      r0,[r1,#8]
        0x00001e8e:    4a2a        *J      LDR      r2,[pc,#168] ; [0x1f38] = 0xfff0ff0f
        0x00001e90:    4010        .@      ANDS     r0,r0,r2
        0x00001e92:    6088        .`      STR      r0,[r1,#8]
        0x00001e94:    9807        ..      LDR      r0,[sp,#0x1c]
        0x00001e96:    2804        .(      CMP      r0,#4
        0x00001e98:    d114        ..      BNE      0x1ec4 ; UART_Open + 172
        0x00001e9a:    e7ff        ..      B        0x1e9c ; UART_Open + 132
        0x00001e9c:    9809        ..      LDR      r0,[sp,#0x24]
        0x00001e9e:    494e        NI      LDR      r1,[pc,#312] ; [0x1fd8] = 0x40070000
        0x00001ea0:    4288        .B      CMP      r0,r1
        0x00001ea2:    d107        ..      BNE      0x1eb4 ; UART_Open + 156
        0x00001ea4:    e7ff        ..      B        0x1ea6 ; UART_Open + 142
        0x00001ea6:    f7fefc85    ....    BL       CLK_GetPCLK0Freq ; 0x7b4
        0x00001eaa:    9907        ..      LDR      r1,[sp,#0x1c]
        0x00001eac:    008a        ..      LSLS     r2,r1,#2
        0x00001eae:    a901        ..      ADD      r1,sp,#4
        0x00001eb0:    5088        .P      STR      r0,[r1,r2]
        0x00001eb2:    e006        ..      B        0x1ec2 ; UART_Open + 170
        0x00001eb4:    f7fefc8e    ....    BL       CLK_GetPCLK1Freq ; 0x7d4
        0x00001eb8:    9907        ..      LDR      r1,[sp,#0x1c]
        0x00001eba:    008a        ..      LSLS     r2,r1,#2
        0x00001ebc:    a901        ..      ADD      r1,sp,#4
        0x00001ebe:    5088        .P      STR      r0,[r1,r2]
        0x00001ec0:    e7ff        ..      B        0x1ec2 ; UART_Open + 170
        0x00001ec2:    e7ff        ..      B        0x1ec4 ; UART_Open + 172
        0x00001ec4:    9808        ..      LDR      r0,[sp,#0x20]
        0x00001ec6:    b368        h.      CBZ      r0,0x1f24 ; UART_Open + 268
        0x00001ec8:    e7ff        ..      B        0x1eca ; UART_Open + 178
        0x00001eca:    9807        ..      LDR      r0,[sp,#0x1c]
        0x00001ecc:    0081        ..      LSLS     r1,r0,#2
        0x00001ece:    a801        ..      ADD      r0,sp,#4
        0x00001ed0:    5840        @X      LDR      r0,[r0,r1]
        0x00001ed2:    9906        ..      LDR      r1,[sp,#0x18]
        0x00001ed4:    1c49        I.      ADDS     r1,r1,#1
        0x00001ed6:    fbb0f0f1    ....    UDIV     r0,r0,r1
        0x00001eda:    9908        ..      LDR      r1,[sp,#0x20]
        0x00001edc:    084a        J.      LSRS     r2,r1,#1
        0x00001ede:    1880        ..      ADDS     r0,r0,r2
        0x00001ee0:    fbb0f0f1    ....    UDIV     r0,r0,r1
        0x00001ee4:    1e80        ..      SUBS     r0,r0,#2
        0x00001ee6:    9000        ..      STR      r0,[sp,#0]
        0x00001ee8:    4668        hF      MOV      r0,sp
        0x00001eea:    8840        @.      LDRH     r0,[r0,#2]
        0x00001eec:    b190        ..      CBZ      r0,0x1f14 ; UART_Open + 252
        0x00001eee:    e7ff        ..      B        0x1ef0 ; UART_Open + 216
        0x00001ef0:    9807        ..      LDR      r0,[sp,#0x1c]
        0x00001ef2:    0081        ..      LSLS     r1,r0,#2
        0x00001ef4:    a801        ..      ADD      r0,sp,#4
        0x00001ef6:    5840        @X      LDR      r0,[r0,r1]
        0x00001ef8:    9906        ..      LDR      r1,[sp,#0x18]
        0x00001efa:    1c49        I.      ADDS     r1,r1,#1
        0x00001efc:    fbb0f0f1    ....    UDIV     r0,r0,r1
        0x00001f00:    9908        ..      LDR      r1,[sp,#0x20]
        0x00001f02:    00ca        ..      LSLS     r2,r1,#3
        0x00001f04:    1880        ..      ADDS     r0,r0,r2
        0x00001f06:    fbb0f0f1    ....    UDIV     r0,r0,r1
        0x00001f0a:    0900        ..      LSRS     r0,r0,#4
        0x00001f0c:    1e80        ..      SUBS     r0,r0,#2
        0x00001f0e:    9909        ..      LDR      r1,[sp,#0x24]
        0x00001f10:    6248        Hb      STR      r0,[r1,#0x24]
        0x00001f12:    e006        ..      B        0x1f22 ; UART_Open + 266
        0x00001f14:    9800        ..      LDR      r0,[sp,#0]
        0x00001f16:    2103        .!      MOVS     r1,#3
        0x00001f18:    0709        ..      LSLS     r1,r1,#28
        0x00001f1a:    4308        .C      ORRS     r0,r0,r1
        0x00001f1c:    9909        ..      LDR      r1,[sp,#0x24]
        0x00001f1e:    6248        Hb      STR      r0,[r1,#0x24]
        0x00001f20:    e7ff        ..      B        0x1f22 ; UART_Open + 266
        0x00001f22:    e7ff        ..      B        0x1f24 ; UART_Open + 268
        0x00001f24:    b00a        ..      ADD      sp,sp,#0x28
        0x00001f26:    bd10        ..      POP      {r4,pc}
    $d.8
    __arm_cp.6_0
        0x00001f28:    00002e58    X...    DCD    11864
    __arm_cp.6_2
        0x00001f2c:    40071000    ...@    DCD    1074204672
    __arm_cp.6_3
        0x00001f30:    40000218    ...@    DCD    1073742360
    __arm_cp.6_4
        0x00001f34:    40000220     ..@    DCD    1073742368
    __arm_cp.6_5
        0x00001f38:    fff0ff0f    ....    DCD    4293984015
    $t.51
    UARTx_Process
        0x00001f3c:    b580        ..      PUSH     {r7,lr}
        0x00001f3e:    b084        ..      SUB      sp,sp,#0x10
        0x00001f40:    a803        ..      ADD      r0,sp,#0xc
        0x00001f42:    2100        .!      MOVS     r1,#0
        0x00001f44:    7001        .p      STRB     r1,[r0,#0]
        0x00001f46:    4924        $I      LDR      r1,[pc,#144] ; [0x1fd8] = 0x40070000
        0x00001f48:    6809        .h      LDR      r1,[r1,#0]
        0x00001f4a:    7001        .p      STRB     r1,[r0,#0]
        0x00001f4c:    7800        .x      LDRB     r0,[r0,#0]
        0x00001f4e:    2880        .(      CMP      r0,#0x80
        0x00001f50:    db04        ..      BLT      0x1f5c ; UARTx_Process + 32
        0x00001f52:    e7ff        ..      B        0x1f54 ; UARTx_Process + 24
        0x00001f54:    4823        #H      LDR      r0,[pc,#140] ; [0x1fe4] = 0x2fe9
        0x00001f56:    f000faf3    ....    BL       __0printf ; 0x2540
        0x00001f5a:    e03b        ;.      B        0x1fd4 ; UARTx_Process + 152
        0x00001f5c:    a803        ..      ADD      r0,sp,#0xc
        0x00001f5e:    9001        ..      STR      r0,[sp,#4]
        0x00001f60:    7801        .x      LDRB     r1,[r0,#0]
        0x00001f62:    481e        .H      LDR      r0,[pc,#120] ; [0x1fdc] = 0x2f49
        0x00001f64:    f000faec    ....    BL       __0printf ; 0x2540
        0x00001f68:    9801        ..      LDR      r0,[sp,#4]
        0x00001f6a:    7800        .x      LDRB     r0,[r0,#0]
        0x00001f6c:    9002        ..      STR      r0,[sp,#8]
        0x00001f6e:    2831        1(      CMP      r0,#0x31
        0x00001f70:    d018        ..      BEQ      0x1fa4 ; UARTx_Process + 104
        0x00001f72:    e7ff        ..      B        0x1f74 ; UARTx_Process + 56
        0x00001f74:    9802        ..      LDR      r0,[sp,#8]
        0x00001f76:    2832        2(      CMP      r0,#0x32
        0x00001f78:    d01a        ..      BEQ      0x1fb0 ; UARTx_Process + 116
        0x00001f7a:    e7ff        ..      B        0x1f7c ; UARTx_Process + 64
        0x00001f7c:    9802        ..      LDR      r0,[sp,#8]
        0x00001f7e:    2833        3(      CMP      r0,#0x33
        0x00001f80:    d01c        ..      BEQ      0x1fbc ; UARTx_Process + 128
        0x00001f82:    e7ff        ..      B        0x1f84 ; UARTx_Process + 72
        0x00001f84:    9802        ..      LDR      r0,[sp,#8]
        0x00001f86:    2858        X(      CMP      r0,#0x58
        0x00001f88:    d01e        ..      BEQ      0x1fc8 ; UARTx_Process + 140
        0x00001f8a:    e7ff        ..      B        0x1f8c ; UARTx_Process + 80
        0x00001f8c:    9802        ..      LDR      r0,[sp,#8]
        0x00001f8e:    285a        Z(      CMP      r0,#0x5a
        0x00001f90:    d01a        ..      BEQ      0x1fc8 ; UARTx_Process + 140
        0x00001f92:    e7ff        ..      B        0x1f94 ; UARTx_Process + 88
        0x00001f94:    9802        ..      LDR      r0,[sp,#8]
        0x00001f96:    2878        x(      CMP      r0,#0x78
        0x00001f98:    d016        ..      BEQ      0x1fc8 ; UARTx_Process + 140
        0x00001f9a:    e7ff        ..      B        0x1f9c ; UARTx_Process + 96
        0x00001f9c:    9802        ..      LDR      r0,[sp,#8]
        0x00001f9e:    287a        z(      CMP      r0,#0x7a
        0x00001fa0:    d012        ..      BEQ      0x1fc8 ; UARTx_Process + 140
        0x00001fa2:    e016        ..      B        0x1fd2 ; UARTx_Process + 150
        0x00001fa4:    490e        .I      LDR      r1,[pc,#56] ; [0x1fe0] = 0x20000108
        0x00001fa6:    7808        .x      LDRB     r0,[r1,#0]
        0x00001fa8:    2204        ."      MOVS     r2,#4
        0x00001faa:    4310        .C      ORRS     r0,r0,r2
        0x00001fac:    7008        .p      STRB     r0,[r1,#0]
        0x00001fae:    e010        ..      B        0x1fd2 ; UARTx_Process + 150
        0x00001fb0:    490b        .I      LDR      r1,[pc,#44] ; [0x1fe0] = 0x20000108
        0x00001fb2:    7808        .x      LDRB     r0,[r1,#0]
        0x00001fb4:    2202        ."      MOVS     r2,#2
        0x00001fb6:    4310        .C      ORRS     r0,r0,r2
        0x00001fb8:    7008        .p      STRB     r0,[r1,#0]
        0x00001fba:    e00a        ..      B        0x1fd2 ; UARTx_Process + 150
        0x00001fbc:    4908        .I      LDR      r1,[pc,#32] ; [0x1fe0] = 0x20000108
        0x00001fbe:    7808        .x      LDRB     r0,[r1,#0]
        0x00001fc0:    2208        ."      MOVS     r2,#8
        0x00001fc2:    4310        .C      ORRS     r0,r0,r2
        0x00001fc4:    7008        .p      STRB     r0,[r1,#0]
        0x00001fc6:    e004        ..      B        0x1fd2 ; UARTx_Process + 150
        0x00001fc8:    f7fff9c6    ....    BL       SYS_UnlockReg ; 0x1358
        0x00001fcc:    f7fff986    ....    BL       SYS_ResetChip ; 0x12dc
        0x00001fd0:    e7ff        ..      B        0x1fd2 ; UARTx_Process + 150
        0x00001fd2:    e7ff        ..      B        0x1fd4 ; UARTx_Process + 152
        0x00001fd4:    b004        ..      ADD      sp,sp,#0x10
        0x00001fd6:    bd80        ..      POP      {r7,pc}
    $d.52
    __arm_cp.30_0
        0x00001fd8:    40070000    ...@    DCD    1074200576
    __arm_cp.30_1
        0x00001fdc:    00002f49    I/..    DCD    12105
    __arm_cp.30_2
        0x00001fe0:    20000108    ...     DCD    536871176
    __arm_cp.30_3
        0x00001fe4:    00002fe9    ./..    DCD    12265
    $t.8
    Uart0DefaultMPF
        0x00001fe8:    b510        ..      PUSH     {r4,lr}
        0x00001fea:    4908        .I      LDR      r1,[pc,#32] ; [0x200c] = 0x4000003c
        0x00001fec:    6808        .h      LDR      r0,[r1,#0]
        0x00001fee:    230f        .#      MOVS     r3,#0xf
        0x00001ff0:    041a        ..      LSLS     r2,r3,#16
        0x00001ff2:    4390        .C      BICS     r0,r0,r2
        0x00001ff4:    2203        ."      MOVS     r2,#3
        0x00001ff6:    0454        T.      LSLS     r4,r2,#17
        0x00001ff8:    1900        ..      ADDS     r0,r0,r4
        0x00001ffa:    6008        .`      STR      r0,[r1,#0]
        0x00001ffc:    6808        .h      LDR      r0,[r1,#0]
        0x00001ffe:    051b        ..      LSLS     r3,r3,#20
        0x00002000:    4398        .C      BICS     r0,r0,r3
        0x00002002:    0552        R.      LSLS     r2,r2,#21
        0x00002004:    1880        ..      ADDS     r0,r0,r2
        0x00002006:    6008        .`      STR      r0,[r1,#0]
        0x00002008:    bd10        ..      POP      {r4,pc}
        0x0000200a:    46c0        .F      MOV      r8,r8
    $d.9
    __arm_cp.4_0
        0x0000200c:    4000003c    <..@    DCD    1073741884
    $t.10
    Write_Data
        0x00002010:    b510        ..      PUSH     {r4,lr}
        0x00002012:    b08a        ..      SUB      sp,sp,#0x28
        0x00002014:    4602        .F      MOV      r2,r0
        0x00002016:    a808        ..      ADD      r0,sp,#0x20
        0x00002018:    7002        .p      STRB     r2,[r0,#0]
        0x0000201a:    aa07        ..      ADD      r2,sp,#0x1c
        0x0000201c:    7011        .p      STRB     r1,[r2,#0]
        0x0000201e:    2100        .!      MOVS     r1,#0
        0x00002020:    9106        ..      STR      r1,[sp,#0x18]
        0x00002022:    7800        .x      LDRB     r0,[r0,#0]
        0x00002024:    493f        ?I      LDR      r1,[pc,#252] ; [0x2124] = 0x2000001c
        0x00002026:    6809        .h      LDR      r1,[r1,#0]
        0x00002028:    4288        .B      CMP      r0,r1
        0x0000202a:    d303        ..      BCC      0x2034 ; Write_Data + 36
        0x0000202c:    e7ff        ..      B        0x202e ; Write_Data + 30
        0x0000202e:    2003        .       MOVS     r0,#3
        0x00002030:    9009        ..      STR      r0,[sp,#0x24]
        0x00002032:    e074        t.      B        0x211e ; Write_Data + 270
        0x00002034:    a808        ..      ADD      r0,sp,#0x20
        0x00002036:    7801        .x      LDRB     r1,[r0,#0]
        0x00002038:    483b        ;H      LDR      r0,[pc,#236] ; [0x2128] = 0x20000029
        0x0000203a:    5c40        @\      LDRB     r0,[r0,r1]
        0x0000203c:    a907        ..      ADD      r1,sp,#0x1c
        0x0000203e:    7809        .x      LDRB     r1,[r1,#0]
        0x00002040:    4288        .B      CMP      r0,r1
        0x00002042:    d103        ..      BNE      0x204c ; Write_Data + 60
        0x00002044:    e7ff        ..      B        0x2046 ; Write_Data + 54
        0x00002046:    2000        .       MOVS     r0,#0
        0x00002048:    9009        ..      STR      r0,[sp,#0x24]
        0x0000204a:    e068        h.      B        0x211e ; Write_Data + 270
        0x0000204c:    4837        7H      LDR      r0,[pc,#220] ; [0x212c] = 0x20000020
        0x0000204e:    6800        .h      LDR      r0,[r0,#0]
        0x00002050:    0a40        @.      LSRS     r0,r0,#9
        0x00002052:    b118        ..      CBZ      r0,0x205c ; Write_Data + 76
        0x00002054:    e7ff        ..      B        0x2056 ; Write_Data + 70
        0x00002056:    f7feffad    ....    BL       Manage_Next_Page ; 0xfb4
        0x0000205a:    e7ff        ..      B        0x205c ; Write_Data + 76
        0x0000205c:    f7fefdb0    ....    BL       FMC_Enable ; 0xbc0
        0x00002060:    4832        2H      LDR      r0,[pc,#200] ; [0x212c] = 0x20000020
        0x00002062:    7800        .x      LDRB     r0,[r0,#0]
        0x00002064:    0780        ..      LSLS     r0,r0,#30
        0x00002066:    b9d8        ..      CBNZ     r0,0x20a0 ; Write_Data + 144
        0x00002068:    e7ff        ..      B        0x206a ; Write_Data + 90
        0x0000206a:    a808        ..      ADD      r0,sp,#0x20
        0x0000206c:    9005        ..      STR      r0,[sp,#0x14]
        0x0000206e:    7800        .x      LDRB     r0,[r0,#0]
        0x00002070:    9907        ..      LDR      r1,[sp,#0x1c]
        0x00002072:    0209        ..      LSLS     r1,r1,#8
        0x00002074:    1840        @.      ADDS     r0,r0,r1
        0x00002076:    4930        0I      LDR      r1,[pc,#192] ; [0x2138] = 0xffff0000
        0x00002078:    4308        .C      ORRS     r0,r0,r1
        0x0000207a:    9006        ..      STR      r0,[sp,#0x18]
        0x0000207c:    482c        ,H      LDR      r0,[pc,#176] ; [0x2130] = 0x20000024
        0x0000207e:    6800        .h      LDR      r0,[r0,#0]
        0x00002080:    0240        @.      LSLS     r0,r0,#9
        0x00002082:    492a        *I      LDR      r1,[pc,#168] ; [0x212c] = 0x20000020
        0x00002084:    6809        .h      LDR      r1,[r1,#0]
        0x00002086:    1840        @.      ADDS     r0,r0,r1
        0x00002088:    f6470100    G...    MOVW     r1,#0x7800
        0x0000208c:    1840        @.      ADDS     r0,r0,r1
        0x0000208e:    9906        ..      LDR      r1,[sp,#0x18]
        0x00002090:    f7fefece    ....    BL       FMC_Write ; 0xe30
        0x00002094:    9905        ..      LDR      r1,[sp,#0x14]
        0x00002096:    9807        ..      LDR      r0,[sp,#0x1c]
        0x00002098:    780a        .x      LDRB     r2,[r1,#0]
        0x0000209a:    4923        #I      LDR      r1,[pc,#140] ; [0x2128] = 0x20000029
        0x0000209c:    5488        .T      STRB     r0,[r1,r2]
        0x0000209e:    e02c        ,.      B        0x20fa ; Write_Data + 234
        0x000020a0:    4823        #H      LDR      r0,[pc,#140] ; [0x2130] = 0x20000024
        0x000020a2:    9001        ..      STR      r0,[sp,#4]
        0x000020a4:    6800        .h      LDR      r0,[r0,#0]
        0x000020a6:    0241        A.      LSLS     r1,r0,#9
        0x000020a8:    4820         H      LDR      r0,[pc,#128] ; [0x212c] = 0x20000020
        0x000020aa:    9003        ..      STR      r0,[sp,#0xc]
        0x000020ac:    6800        .h      LDR      r0,[r0,#0]
        0x000020ae:    1840        @.      ADDS     r0,r0,r1
        0x000020b0:    4920         I      LDR      r1,[pc,#128] ; [0x2134] = 0x77fe
        0x000020b2:    9102        ..      STR      r1,[sp,#8]
        0x000020b4:    1840        @.      ADDS     r0,r0,r1
        0x000020b6:    f7fefe83    ....    BL       FMC_Read ; 0xdc0
        0x000020ba:    9a01        ..      LDR      r2,[sp,#4]
        0x000020bc:    9902        ..      LDR      r1,[sp,#8]
        0x000020be:    4603        .F      MOV      r3,r0
        0x000020c0:    9803        ..      LDR      r0,[sp,#0xc]
        0x000020c2:    9306        ..      STR      r3,[sp,#0x18]
        0x000020c4:    ab06        ..      ADD      r3,sp,#0x18
        0x000020c6:    881b        ..      LDRH     r3,[r3,#0]
        0x000020c8:    9306        ..      STR      r3,[sp,#0x18]
        0x000020ca:    ab08        ..      ADD      r3,sp,#0x20
        0x000020cc:    9304        ..      STR      r3,[sp,#0x10]
        0x000020ce:    781b        .x      LDRB     r3,[r3,#0]
        0x000020d0:    041b        ..      LSLS     r3,r3,#16
        0x000020d2:    9c07        ..      LDR      r4,[sp,#0x1c]
        0x000020d4:    0624        $.      LSLS     r4,r4,#24
        0x000020d6:    191c        ..      ADDS     r4,r3,r4
        0x000020d8:    9b06        ..      LDR      r3,[sp,#0x18]
        0x000020da:    4323        #C      ORRS     r3,r3,r4
        0x000020dc:    9306        ..      STR      r3,[sp,#0x18]
        0x000020de:    6812        .h      LDR      r2,[r2,#0]
        0x000020e0:    0252        R.      LSLS     r2,r2,#9
        0x000020e2:    6800        .h      LDR      r0,[r0,#0]
        0x000020e4:    1880        ..      ADDS     r0,r0,r2
        0x000020e6:    1840        @.      ADDS     r0,r0,r1
        0x000020e8:    9906        ..      LDR      r1,[sp,#0x18]
        0x000020ea:    f7fefea1    ....    BL       FMC_Write ; 0xe30
        0x000020ee:    9904        ..      LDR      r1,[sp,#0x10]
        0x000020f0:    9807        ..      LDR      r0,[sp,#0x1c]
        0x000020f2:    780a        .x      LDRB     r2,[r1,#0]
        0x000020f4:    490c        .I      LDR      r1,[pc,#48] ; [0x2128] = 0x20000029
        0x000020f6:    5488        .T      STRB     r0,[r1,r2]
        0x000020f8:    e7ff        ..      B        0x20fa ; Write_Data + 234
        0x000020fa:    480c        .H      LDR      r0,[pc,#48] ; [0x212c] = 0x20000020
        0x000020fc:    6800        .h      LDR      r0,[r0,#0]
        0x000020fe:    f24011fe    @...    MOVW     r1,#0x1fe
        0x00002102:    4288        .B      CMP      r0,r1
        0x00002104:    d103        ..      BNE      0x210e ; Write_Data + 254
        0x00002106:    e7ff        ..      B        0x2108 ; Write_Data + 248
        0x00002108:    f7feff54    ..T.    BL       Manage_Next_Page ; 0xfb4
        0x0000210c:    e004        ..      B        0x2118 ; Write_Data + 264
        0x0000210e:    4907        .I      LDR      r1,[pc,#28] ; [0x212c] = 0x20000020
        0x00002110:    6808        .h      LDR      r0,[r1,#0]
        0x00002112:    1c80        ..      ADDS     r0,r0,#2
        0x00002114:    6008        .`      STR      r0,[r1,#0]
        0x00002116:    e7ff        ..      B        0x2118 ; Write_Data + 264
        0x00002118:    2000        .       MOVS     r0,#0
        0x0000211a:    9009        ..      STR      r0,[sp,#0x24]
        0x0000211c:    e7ff        ..      B        0x211e ; Write_Data + 270
        0x0000211e:    9809        ..      LDR      r0,[sp,#0x24]
        0x00002120:    b00a        ..      ADD      sp,sp,#0x28
        0x00002122:    bd10        ..      POP      {r4,pc}
    $d.11
    __arm_cp.5_0
        0x00002124:    2000001c    ...     DCD    536870940
    __arm_cp.5_1
        0x00002128:    20000029    )..     DCD    536870953
    __arm_cp.5_2
        0x0000212c:    20000020     ..     DCD    536870944
    __arm_cp.5_3
        0x00002130:    20000024    $..     DCD    536870948
    __arm_cp.5_4
        0x00002134:    000077fe    .w..    DCD    30718
    __arm_cp.5_5
        0x00002138:    ffff0000    ....    DCD    4294901760
    $t.46
    __NVIC_EnableIRQ
        0x0000213c:    b081        ..      SUB      sp,sp,#4
        0x0000213e:    4601        .F      MOV      r1,r0
        0x00002140:    4668        hF      MOV      r0,sp
        0x00002142:    7001        .p      STRB     r1,[r0,#0]
        0x00002144:    2100        .!      MOVS     r1,#0
        0x00002146:    5640        @V      LDRSB    r0,[r0,r1]
        0x00002148:    2800        .(      CMP      r0,#0
        0x0000214a:    d40d        ..      BMI      0x2168 ; __NVIC_EnableIRQ + 44
        0x0000214c:    e7ff        ..      B        0x214e ; __NVIC_EnableIRQ + 18
        0x0000214e:    2100        .!      MOVS     r1,#0
        0x00002150:    4668        hF      MOV      r0,sp
        0x00002152:    5641        AV      LDRSB    r1,[r0,r1]
        0x00002154:    201f        .       MOVS     r0,#0x1f
        0x00002156:    460a        .F      MOV      r2,r1
        0x00002158:    4002        .@      ANDS     r2,r2,r0
        0x0000215a:    2001        .       MOVS     r0,#1
        0x0000215c:    4090        .@      LSLS     r0,r0,r2
        0x0000215e:    0949        I.      LSRS     r1,r1,#5
        0x00002160:    0089        ..      LSLS     r1,r1,#2
        0x00002162:    4a02        .J      LDR      r2,[pc,#8] ; [0x216c] = 0xe000e100
        0x00002164:    5088        .P      STR      r0,[r1,r2]
        0x00002166:    e7ff        ..      B        0x2168 ; __NVIC_EnableIRQ + 44
        0x00002168:    b001        ..      ADD      sp,sp,#4
        0x0000216a:    4770        pG      BX       lr
    $d.47
    __arm_cp.27_0
        0x0000216c:    e000e100    ....    DCD    3758153984
    $t.62
    __NVIC_SetPriority
        0x00002170:    b570        p.      PUSH     {r4-r6,lr}
        0x00002172:    b082        ..      SUB      sp,sp,#8
        0x00002174:    4602        .F      MOV      r2,r0
        0x00002176:    a801        ..      ADD      r0,sp,#4
        0x00002178:    7002        .p      STRB     r2,[r0,#0]
        0x0000217a:    9100        ..      STR      r1,[sp,#0]
        0x0000217c:    2100        .!      MOVS     r1,#0
        0x0000217e:    5640        @V      LDRSB    r0,[r0,r1]
        0x00002180:    2800        .(      CMP      r0,#0
        0x00002182:    d416        ..      BMI      0x21b2 ; __NVIC_SetPriority + 66
        0x00002184:    e7ff        ..      B        0x2186 ; __NVIC_SetPriority + 22
        0x00002186:    2400        .$      MOVS     r4,#0
        0x00002188:    a901        ..      ADD      r1,sp,#4
        0x0000218a:    5708        .W      LDRSB    r0,[r1,r4]
        0x0000218c:    2203        ."      MOVS     r2,#3
        0x0000218e:    43d3        .C      MVNS     r3,r2
        0x00002190:    4018        .@      ANDS     r0,r0,r3
        0x00002192:    4a17        .J      LDR      r2,[pc,#92] ; [0x21f0] = 0xe000e400
        0x00002194:    5880        .X      LDR      r0,[r0,r2]
        0x00002196:    5709        .W      LDRSB    r1,[r1,r4]
        0x00002198:    078c        ..      LSLS     r4,r1,#30
        0x0000219a:    0ee5        ..      LSRS     r5,r4,#27
        0x0000219c:    24ff        .$      MOVS     r4,#0xff
        0x0000219e:    40ac        .@      LSLS     r4,r4,r5
        0x000021a0:    43a0        .C      BICS     r0,r0,r4
        0x000021a2:    9c00        ..      LDR      r4,[sp,#0]
        0x000021a4:    01a4        ..      LSLS     r4,r4,#6
        0x000021a6:    b2e4        ..      UXTB     r4,r4
        0x000021a8:    40ac        .@      LSLS     r4,r4,r5
        0x000021aa:    4320         C      ORRS     r0,r0,r4
        0x000021ac:    4019        .@      ANDS     r1,r1,r3
        0x000021ae:    5088        .P      STR      r0,[r1,r2]
        0x000021b0:    e01a        ..      B        0x21e8 ; __NVIC_SetPriority + 120
        0x000021b2:    a901        ..      ADD      r1,sp,#4
        0x000021b4:    7808        .x      LDRB     r0,[r1,#0]
        0x000021b6:    240f        .$      MOVS     r4,#0xf
        0x000021b8:    4020         @      ANDS     r0,r0,r4
        0x000021ba:    3808        .8      SUBS     r0,r0,#8
        0x000021bc:    2203        ."      MOVS     r2,#3
        0x000021be:    43d3        .C      MVNS     r3,r2
        0x000021c0:    4018        .@      ANDS     r0,r0,r3
        0x000021c2:    4a0a        .J      LDR      r2,[pc,#40] ; [0x21ec] = 0xe000ed1c
        0x000021c4:    5880        .X      LDR      r0,[r0,r2]
        0x000021c6:    2500        .%      MOVS     r5,#0
        0x000021c8:    5749        IW      LDRSB    r1,[r1,r5]
        0x000021ca:    078d        ..      LSLS     r5,r1,#30
        0x000021cc:    0eee        ..      LSRS     r6,r5,#27
        0x000021ce:    25ff        .%      MOVS     r5,#0xff
        0x000021d0:    40b5        .@      LSLS     r5,r5,r6
        0x000021d2:    43a8        .C      BICS     r0,r0,r5
        0x000021d4:    9d00        ..      LDR      r5,[sp,#0]
        0x000021d6:    01ad        ..      LSLS     r5,r5,#6
        0x000021d8:    b2ed        ..      UXTB     r5,r5
        0x000021da:    40b5        .@      LSLS     r5,r5,r6
        0x000021dc:    4328        (C      ORRS     r0,r0,r5
        0x000021de:    4021        !@      ANDS     r1,r1,r4
        0x000021e0:    3908        .9      SUBS     r1,r1,#8
        0x000021e2:    4019        .@      ANDS     r1,r1,r3
        0x000021e4:    5088        .P      STR      r0,[r1,r2]
        0x000021e6:    e7ff        ..      B        0x21e8 ; __NVIC_SetPriority + 120
        0x000021e8:    b002        ..      ADD      sp,sp,#8
        0x000021ea:    bd70        p.      POP      {r4-r6,pc}
    $d.63
    __arm_cp.36_0
        0x000021ec:    e000ed1c    ....    DCD    3758157084
    __arm_cp.36_1
        0x000021f0:    e000e400    ....    DCD    3758154752
    $t.37
    check_reset_source
        0x000021f4:    b580        ..      PUSH     {r7,lr}
        0x000021f6:    b082        ..      SUB      sp,sp,#8
        0x000021f8:    f7fff830    ..0.    BL       SYS_GetResetSrc ; 0x125c
        0x000021fc:    9000        ..      STR      r0,[sp,#0]
        0x000021fe:    4979        yI      LDR      r1,[pc,#484] ; [0x23e4] = 0x40000004
        0x00002200:    6808        .h      LDR      r0,[r1,#0]
        0x00002202:    4a79        yJ      LDR      r2,[pc,#484] ; [0x23e8] = 0x1ff
        0x00002204:    4310        .C      ORRS     r0,r0,r2
        0x00002206:    6008        .`      STR      r0,[r1,#0]
        0x00002208:    9900        ..      LDR      r1,[sp,#0]
        0x0000220a:    4878        xH      LDR      r0,[pc,#480] ; [0x23ec] = 0x2ee6
        0x0000220c:    f000f998    ....    BL       __0printf ; 0x2540
        0x00002210:    4668        hF      MOV      r0,sp
        0x00002212:    7800        .x      LDRB     r0,[r0,#0]
        0x00002214:    07c0        ..      LSLS     r0,r0,#31
        0x00002216:    b120         .      CBZ      r0,0x2222 ; check_reset_source + 46
        0x00002218:    e7ff        ..      B        0x221a ; check_reset_source + 38
        0x0000221a:    4875        uH      LDR      r0,[pc,#468] ; [0x23f0] = 0x3034
        0x0000221c:    f000f990    ....    BL       __0printf ; 0x2540
        0x00002220:    e7ff        ..      B        0x2222 ; check_reset_source + 46
        0x00002222:    4668        hF      MOV      r0,sp
        0x00002224:    7800        .x      LDRB     r0,[r0,#0]
        0x00002226:    0780        ..      LSLS     r0,r0,#30
        0x00002228:    2800        .(      CMP      r0,#0
        0x0000222a:    d504        ..      BPL      0x2236 ; check_reset_source + 66
        0x0000222c:    e7ff        ..      B        0x222e ; check_reset_source + 58
        0x0000222e:    4871        qH      LDR      r0,[pc,#452] ; [0x23f4] = 0x3080
        0x00002230:    f000f986    ....    BL       __0printf ; 0x2540
        0x00002234:    e7ff        ..      B        0x2236 ; check_reset_source + 66
        0x00002236:    4668        hF      MOV      r0,sp
        0x00002238:    7800        .x      LDRB     r0,[r0,#0]
        0x0000223a:    0740        @.      LSLS     r0,r0,#29
        0x0000223c:    2800        .(      CMP      r0,#0
        0x0000223e:    d504        ..      BPL      0x224a ; check_reset_source + 86
        0x00002240:    e7ff        ..      B        0x2242 ; check_reset_source + 78
        0x00002242:    486d        mH      LDR      r0,[pc,#436] ; [0x23f8] = 0x305a
        0x00002244:    f000f97c    ..|.    BL       __0printf ; 0x2540
        0x00002248:    e7ff        ..      B        0x224a ; check_reset_source + 86
        0x0000224a:    4668        hF      MOV      r0,sp
        0x0000224c:    7800        .x      LDRB     r0,[r0,#0]
        0x0000224e:    0700        ..      LSLS     r0,r0,#28
        0x00002250:    2800        .(      CMP      r0,#0
        0x00002252:    d504        ..      BPL      0x225e ; check_reset_source + 106
        0x00002254:    e7ff        ..      B        0x2256 ; check_reset_source + 98
        0x00002256:    4869        iH      LDR      r0,[pc,#420] ; [0x23fc] = 0x3047
        0x00002258:    f000f972    ..r.    BL       __0printf ; 0x2540
        0x0000225c:    e7ff        ..      B        0x225e ; check_reset_source + 106
        0x0000225e:    4668        hF      MOV      r0,sp
        0x00002260:    7800        .x      LDRB     r0,[r0,#0]
        0x00002262:    06c0        ..      LSLS     r0,r0,#27
        0x00002264:    2800        .(      CMP      r0,#0
        0x00002266:    d504        ..      BPL      0x2272 ; check_reset_source + 126
        0x00002268:    e7ff        ..      B        0x226a ; check_reset_source + 118
        0x0000226a:    4865        eH      LDR      r0,[pc,#404] ; [0x2400] = 0x3021
        0x0000226c:    f000f968    ..h.    BL       __0printf ; 0x2540
        0x00002270:    e7ff        ..      B        0x2272 ; check_reset_source + 126
        0x00002272:    4668        hF      MOV      r0,sp
        0x00002274:    7800        .x      LDRB     r0,[r0,#0]
        0x00002276:    0680        ..      LSLS     r0,r0,#26
        0x00002278:    2800        .(      CMP      r0,#0
        0x0000227a:    d504        ..      BPL      0x2286 ; check_reset_source + 146
        0x0000227c:    e7ff        ..      B        0x227e ; check_reset_source + 138
        0x0000227e:    4861        aH      LDR      r0,[pc,#388] ; [0x2404] = 0x2ebb
        0x00002280:    f000f95e    ..^.    BL       __0printf ; 0x2540
        0x00002284:    e7ff        ..      B        0x2286 ; check_reset_source + 146
        0x00002286:    4668        hF      MOV      r0,sp
        0x00002288:    7800        .x      LDRB     r0,[r0,#0]
        0x0000228a:    0640        @.      LSLS     r0,r0,#25
        0x0000228c:    2800        .(      CMP      r0,#0
        0x0000228e:    d504        ..      BPL      0x229a ; check_reset_source + 166
        0x00002290:    e7ff        ..      B        0x2292 ; check_reset_source + 158
        0x00002292:    485d        ]H      LDR      r0,[pc,#372] ; [0x2408] = 0x2ed8
        0x00002294:    f000f954    ..T.    BL       __0printf ; 0x2540
        0x00002298:    e7ff        ..      B        0x229a ; check_reset_source + 166
        0x0000229a:    4668        hF      MOV      r0,sp
        0x0000229c:    7800        .x      LDRB     r0,[r0,#0]
        0x0000229e:    0600        ..      LSLS     r0,r0,#24
        0x000022a0:    2800        .(      CMP      r0,#0
        0x000022a2:    d504        ..      BPL      0x22ae ; check_reset_source + 186
        0x000022a4:    e7ff        ..      B        0x22a6 ; check_reset_source + 178
        0x000022a6:    4859        YH      LDR      r0,[pc,#356] ; [0x240c] = 0x306d
        0x000022a8:    f000f94a    ..J.    BL       __0printf ; 0x2540
        0x000022ac:    e7ff        ..      B        0x22ae ; check_reset_source + 186
        0x000022ae:    4668        hF      MOV      r0,sp
        0x000022b0:    7840        @x      LDRB     r0,[r0,#1]
        0x000022b2:    07c0        ..      LSLS     r0,r0,#31
        0x000022b4:    b120         .      CBZ      r0,0x22c0 ; check_reset_source + 204
        0x000022b6:    e7ff        ..      B        0x22b8 ; check_reset_source + 196
        0x000022b8:    4855        UH      LDR      r0,[pc,#340] ; [0x2410] = 0x309a
        0x000022ba:    f000f941    ..A.    BL       __0printf ; 0x2540
        0x000022be:    e7ff        ..      B        0x22c0 ; check_reset_source + 204
        0x000022c0:    4668        hF      MOV      r0,sp
        0x000022c2:    7800        .x      LDRB     r0,[r0,#0]
        0x000022c4:    07c0        ..      LSLS     r0,r0,#31
        0x000022c6:    b150        P.      CBZ      r0,0x22de ; check_reset_source + 234
        0x000022c8:    e7ff        ..      B        0x22ca ; check_reset_source + 214
        0x000022ca:    2001        .       MOVS     r0,#1
        0x000022cc:    f7feffbe    ....    BL       SYS_ClearResetSrc ; 0x124c
        0x000022d0:    4858        XH      LDR      r0,[pc,#352] ; [0x2434] = 0x2efe
        0x000022d2:    f000f935    ..5.    BL       __0printf ; 0x2540
        0x000022d6:    a901        ..      ADD      r1,sp,#4
        0x000022d8:    2000        .       MOVS     r0,#0
        0x000022da:    7008        .p      STRB     r0,[r1,#0]
        0x000022dc:    e07d        }.      B        0x23da ; check_reset_source + 486
        0x000022de:    4668        hF      MOV      r0,sp
        0x000022e0:    7800        .x      LDRB     r0,[r0,#0]
        0x000022e2:    0780        ..      LSLS     r0,r0,#30
        0x000022e4:    2800        .(      CMP      r0,#0
        0x000022e6:    d50a        ..      BPL      0x22fe ; check_reset_source + 266
        0x000022e8:    e7ff        ..      B        0x22ea ; check_reset_source + 246
        0x000022ea:    2002        .       MOVS     r0,#2
        0x000022ec:    f7feffae    ....    BL       SYS_ClearResetSrc ; 0x124c
        0x000022f0:    484f        OH      LDR      r0,[pc,#316] ; [0x2430] = 0x30b4
        0x000022f2:    f000f925    ..%.    BL       __0printf ; 0x2540
        0x000022f6:    a901        ..      ADD      r1,sp,#4
        0x000022f8:    2000        .       MOVS     r0,#0
        0x000022fa:    7008        .p      STRB     r0,[r1,#0]
        0x000022fc:    e06d        m.      B        0x23da ; check_reset_source + 486
        0x000022fe:    4668        hF      MOV      r0,sp
        0x00002300:    7800        .x      LDRB     r0,[r0,#0]
        0x00002302:    0740        @.      LSLS     r0,r0,#29
        0x00002304:    2800        .(      CMP      r0,#0
        0x00002306:    d50a        ..      BPL      0x231e ; check_reset_source + 298
        0x00002308:    e7ff        ..      B        0x230a ; check_reset_source + 278
        0x0000230a:    2004        .       MOVS     r0,#4
        0x0000230c:    f7feff9e    ....    BL       SYS_ClearResetSrc ; 0x124c
        0x00002310:    4846        FH      LDR      r0,[pc,#280] ; [0x242c] = 0x3108
        0x00002312:    f000f915    ....    BL       __0printf ; 0x2540
        0x00002316:    a901        ..      ADD      r1,sp,#4
        0x00002318:    2000        .       MOVS     r0,#0
        0x0000231a:    7008        .p      STRB     r0,[r1,#0]
        0x0000231c:    e05d        ].      B        0x23da ; check_reset_source + 486
        0x0000231e:    4668        hF      MOV      r0,sp
        0x00002320:    7800        .x      LDRB     r0,[r0,#0]
        0x00002322:    0700        ..      LSLS     r0,r0,#28
        0x00002324:    2800        .(      CMP      r0,#0
        0x00002326:    d50a        ..      BPL      0x233e ; check_reset_source + 330
        0x00002328:    e7ff        ..      B        0x232a ; check_reset_source + 310
        0x0000232a:    2008        .       MOVS     r0,#8
        0x0000232c:    f7feff8e    ....    BL       SYS_ClearResetSrc ; 0x124c
        0x00002330:    483d        =H      LDR      r0,[pc,#244] ; [0x2428] = 0x30ee
        0x00002332:    f000f905    ....    BL       __0printf ; 0x2540
        0x00002336:    a901        ..      ADD      r1,sp,#4
        0x00002338:    2000        .       MOVS     r0,#0
        0x0000233a:    7008        .p      STRB     r0,[r1,#0]
        0x0000233c:    e04d        M.      B        0x23da ; check_reset_source + 486
        0x0000233e:    4668        hF      MOV      r0,sp
        0x00002340:    7800        .x      LDRB     r0,[r0,#0]
        0x00002342:    06c0        ..      LSLS     r0,r0,#27
        0x00002344:    2800        .(      CMP      r0,#0
        0x00002346:    d50a        ..      BPL      0x235e ; check_reset_source + 362
        0x00002348:    e7ff        ..      B        0x234a ; check_reset_source + 342
        0x0000234a:    2010        .       MOVS     r0,#0x10
        0x0000234c:    f7feff7e    ..~.    BL       SYS_ClearResetSrc ; 0x124c
        0x00002350:    4834        4H      LDR      r0,[pc,#208] ; [0x2424] = 0x30d4
        0x00002352:    f000f8f5    ....    BL       __0printf ; 0x2540
        0x00002356:    a901        ..      ADD      r1,sp,#4
        0x00002358:    2000        .       MOVS     r0,#0
        0x0000235a:    7008        .p      STRB     r0,[r1,#0]
        0x0000235c:    e03d        =.      B        0x23da ; check_reset_source + 486
        0x0000235e:    4668        hF      MOV      r0,sp
        0x00002360:    7800        .x      LDRB     r0,[r0,#0]
        0x00002362:    0680        ..      LSLS     r0,r0,#26
        0x00002364:    2800        .(      CMP      r0,#0
        0x00002366:    d50a        ..      BPL      0x237e ; check_reset_source + 394
        0x00002368:    e7ff        ..      B        0x236a ; check_reset_source + 374
        0x0000236a:    2020                MOVS     r0,#0x20
        0x0000236c:    f7feff6e    ..n.    BL       SYS_ClearResetSrc ; 0x124c
        0x00002370:    482b        +H      LDR      r0,[pc,#172] ; [0x2420] = 0x3122
        0x00002372:    f000f8e5    ....    BL       __0printf ; 0x2540
        0x00002376:    a901        ..      ADD      r1,sp,#4
        0x00002378:    2000        .       MOVS     r0,#0
        0x0000237a:    7008        .p      STRB     r0,[r1,#0]
        0x0000237c:    e02d        -.      B        0x23da ; check_reset_source + 486
        0x0000237e:    4668        hF      MOV      r0,sp
        0x00002380:    7800        .x      LDRB     r0,[r0,#0]
        0x00002382:    0600        ..      LSLS     r0,r0,#24
        0x00002384:    2800        .(      CMP      r0,#0
        0x00002386:    d50a        ..      BPL      0x239e ; check_reset_source + 426
        0x00002388:    e7ff        ..      B        0x238a ; check_reset_source + 406
        0x0000238a:    2080        .       MOVS     r0,#0x80
        0x0000238c:    f7feff5e    ..^.    BL       SYS_ClearResetSrc ; 0x124c
        0x00002390:    4822        "H      LDR      r0,[pc,#136] ; [0x241c] = 0x3160
        0x00002392:    f000f8d5    ....    BL       __0printf ; 0x2540
        0x00002396:    a901        ..      ADD      r1,sp,#4
        0x00002398:    2000        .       MOVS     r0,#0
        0x0000239a:    7008        .p      STRB     r0,[r1,#0]
        0x0000239c:    e01d        ..      B        0x23da ; check_reset_source + 486
        0x0000239e:    4668        hF      MOV      r0,sp
        0x000023a0:    7840        @x      LDRB     r0,[r0,#1]
        0x000023a2:    07c0        ..      LSLS     r0,r0,#31
        0x000023a4:    b158        X.      CBZ      r0,0x23be ; check_reset_source + 458
        0x000023a6:    e7ff        ..      B        0x23a8 ; check_reset_source + 436
        0x000023a8:    f2401000    @...    MOVW     r0,#0x100
        0x000023ac:    f7feff4e    ..N.    BL       SYS_ClearResetSrc ; 0x124c
        0x000023b0:    4819        .H      LDR      r0,[pc,#100] ; [0x2418] = 0x313f
        0x000023b2:    f000f8c5    ....    BL       __0printf ; 0x2540
        0x000023b6:    a901        ..      ADD      r1,sp,#4
        0x000023b8:    2000        .       MOVS     r0,#0
        0x000023ba:    7008        .p      STRB     r0,[r1,#0]
        0x000023bc:    e00d        ..      B        0x23da ; check_reset_source + 486
        0x000023be:    e7ff        ..      B        0x23c0 ; check_reset_source + 460
        0x000023c0:    e7ff        ..      B        0x23c2 ; check_reset_source + 462
        0x000023c2:    e7ff        ..      B        0x23c4 ; check_reset_source + 464
        0x000023c4:    e7ff        ..      B        0x23c6 ; check_reset_source + 466
        0x000023c6:    e7ff        ..      B        0x23c8 ; check_reset_source + 468
        0x000023c8:    e7ff        ..      B        0x23ca ; check_reset_source + 470
        0x000023ca:    e7ff        ..      B        0x23cc ; check_reset_source + 472
        0x000023cc:    4811        .H      LDR      r0,[pc,#68] ; [0x2414] = 0x2ffb
        0x000023ce:    f000f8b7    ....    BL       __0printf ; 0x2540
        0x000023d2:    a901        ..      ADD      r1,sp,#4
        0x000023d4:    2000        .       MOVS     r0,#0
        0x000023d6:    7008        .p      STRB     r0,[r1,#0]
        0x000023d8:    e7ff        ..      B        0x23da ; check_reset_source + 486
        0x000023da:    a801        ..      ADD      r0,sp,#4
        0x000023dc:    7800        .x      LDRB     r0,[r0,#0]
        0x000023de:    b002        ..      ADD      sp,sp,#8
        0x000023e0:    bd80        ..      POP      {r7,pc}
        0x000023e2:    46c0        .F      MOV      r8,r8
    $d.38
    __arm_cp.21_0
        0x000023e4:    40000004    ...@    DCD    1073741828
    __arm_cp.21_1
        0x000023e8:    000001ff    ....    DCD    511
    __arm_cp.21_2
        0x000023ec:    00002ee6    ....    DCD    12006
    __arm_cp.21_3
        0x000023f0:    00003034    40..    DCD    12340
    __arm_cp.21_4
        0x000023f4:    00003080    .0..    DCD    12416
    __arm_cp.21_5
        0x000023f8:    0000305a    Z0..    DCD    12378
    __arm_cp.21_6
        0x000023fc:    00003047    G0..    DCD    12359
    __arm_cp.21_7
        0x00002400:    00003021    !0..    DCD    12321
    __arm_cp.21_8
        0x00002404:    00002ebb    ....    DCD    11963
    __arm_cp.21_9
        0x00002408:    00002ed8    ....    DCD    11992
    __arm_cp.21_10
        0x0000240c:    0000306d    m0..    DCD    12397
    __arm_cp.21_11
        0x00002410:    0000309a    .0..    DCD    12442
    __arm_cp.21_12
        0x00002414:    00002ffb    ./..    DCD    12283
    __arm_cp.21_13
        0x00002418:    0000313f    ?1..    DCD    12607
    __arm_cp.21_14
        0x0000241c:    00003160    `1..    DCD    12640
    __arm_cp.21_15
        0x00002420:    00003122    "1..    DCD    12578
    __arm_cp.21_16
        0x00002424:    000030d4    .0..    DCD    12500
    __arm_cp.21_17
        0x00002428:    000030ee    .0..    DCD    12526
    __arm_cp.21_18
        0x0000242c:    00003108    .1..    DCD    12552
    __arm_cp.21_19
        0x00002430:    000030b4    .0..    DCD    12468
    __arm_cp.21_20
        0x00002434:    00002efe    ....    DCD    12030
    $t.14
    fputc
        0x00002438:    b580        ..      PUSH     {r7,lr}
        0x0000243a:    b082        ..      SUB      sp,sp,#8
        0x0000243c:    9001        ..      STR      r0,[sp,#4]
        0x0000243e:    9100        ..      STR      r1,[sp,#0]
        0x00002440:    9801        ..      LDR      r0,[sp,#4]
        0x00002442:    f7fff889    ....    BL       SendChar ; 0x1558
        0x00002446:    9801        ..      LDR      r0,[sp,#4]
        0x00002448:    b002        ..      ADD      sp,sp,#8
        0x0000244a:    bd80        ..      POP      {r7,pc}
    get_systick
        0x0000244c:    4837        7H      LDR      r0,[pc,#220] ; [0x252c] = 0x20000100
        0x0000244e:    6800        .h      LDR      r0,[r0,#0]
        0x00002450:    4770        pG      BX       lr
        0x00002452:    46c0        .F      MOV      r8,r8
    loop
        0x00002454:    b580        ..      PUSH     {r7,lr}
        0x00002456:    f7fffb01    ....    BL       TimerService_Dispatch ; 0x1a5c
        0x0000245a:    f7fffff7    ....    BL       get_systick ; 0x244c
        0x0000245e:    4601        .F      MOV      r1,r0
        0x00002460:    4819        .H      LDR      r0,[pc,#100] ; [0x24c8] = 0x26e978d5
        0x00002462:    4348        HC      MULS     r0,r1,r0
        0x00002464:    2103        .!      MOVS     r1,#3
        0x00002466:    41c8        .A      RORS     r0,r0,r1
        0x00002468:    4918        .I      LDR      r1,[pc,#96] ; [0x24cc] = 0x418937
        0x0000246a:    4288        .B      CMP      r0,r1
        0x0000246c:    d801        ..      BHI      0x2472 ; loop + 30
        0x0000246e:    e7ff        ..      B        0x2470 ; loop + 28
        0x00002470:    e7ff        ..      B        0x2472 ; loop + 30
        0x00002472:    4817        .H      LDR      r0,[pc,#92] ; [0x24d0] = 0x20000108
        0x00002474:    7800        .x      LDRB     r0,[r0,#0]
        0x00002476:    0780        ..      LSLS     r0,r0,#30
        0x00002478:    0fc0        ..      LSRS     r0,r0,#31
        0x0000247a:    b140        @.      CBZ      r0,0x248e ; loop + 58
        0x0000247c:    e7ff        ..      B        0x247e ; loop + 42
        0x0000247e:    4914        .I      LDR      r1,[pc,#80] ; [0x24d0] = 0x20000108
        0x00002480:    7808        .x      LDRB     r0,[r1,#0]
        0x00002482:    22fd        ."      MOVS     r2,#0xfd
        0x00002484:    4010        .@      ANDS     r0,r0,r2
        0x00002486:    7008        .p      STRB     r0,[r1,#0]
        0x00002488:    f7fefb4e    ..N.    BL       Emulate_EEPROM_WriteTest ; 0xb28
        0x0000248c:    e7ff        ..      B        0x248e ; loop + 58
        0x0000248e:    4810        .H      LDR      r0,[pc,#64] ; [0x24d0] = 0x20000108
        0x00002490:    7800        .x      LDRB     r0,[r0,#0]
        0x00002492:    0740        @.      LSLS     r0,r0,#29
        0x00002494:    0fc0        ..      LSRS     r0,r0,#31
        0x00002496:    b140        @.      CBZ      r0,0x24aa ; loop + 86
        0x00002498:    e7ff        ..      B        0x249a ; loop + 70
        0x0000249a:    490d        .I      LDR      r1,[pc,#52] ; [0x24d0] = 0x20000108
        0x0000249c:    7808        .x      LDRB     r0,[r1,#0]
        0x0000249e:    22fb        ."      MOVS     r2,#0xfb
        0x000024a0:    4010        .@      ANDS     r0,r0,r2
        0x000024a2:    7008        .p      STRB     r0,[r1,#0]
        0x000024a4:    f7fefaf8    ....    BL       Emulate_EEPROM_ReadTest ; 0xa98
        0x000024a8:    e7ff        ..      B        0x24aa ; loop + 86
        0x000024aa:    4809        .H      LDR      r0,[pc,#36] ; [0x24d0] = 0x20000108
        0x000024ac:    7800        .x      LDRB     r0,[r0,#0]
        0x000024ae:    0700        ..      LSLS     r0,r0,#28
        0x000024b0:    0fc0        ..      LSRS     r0,r0,#31
        0x000024b2:    b140        @.      CBZ      r0,0x24c6 ; loop + 114
        0x000024b4:    e7ff        ..      B        0x24b6 ; loop + 98
        0x000024b6:    4906        .I      LDR      r1,[pc,#24] ; [0x24d0] = 0x20000108
        0x000024b8:    7808        .x      LDRB     r0,[r1,#0]
        0x000024ba:    22f7        ."      MOVS     r2,#0xf7
        0x000024bc:    4010        .@      ANDS     r0,r0,r2
        0x000024be:    7008        .p      STRB     r0,[r1,#0]
        0x000024c0:    f7fefab8    ....    BL       Emulate_EEPROM_EraseTest ; 0xa34
        0x000024c4:    e7ff        ..      B        0x24c6 ; loop + 114
        0x000024c6:    bd80        ..      POP      {r7,pc}
    $d.50
    __arm_cp.29_0
        0x000024c8:    26e978d5    .x.&    DCD    652835029
    __arm_cp.29_1
        0x000024cc:    00418937    7.A.    DCD    4294967
    __arm_cp.29_2
        0x000024d0:    20000108    ...     DCD    536871176
    $t.61
    main
        0x000024d4:    b580        ..      PUSH     {r7,lr}
        0x000024d6:    b082        ..      SUB      sp,sp,#8
        0x000024d8:    2000        .       MOVS     r0,#0
        0x000024da:    9001        ..      STR      r0,[sp,#4]
        0x000024dc:    f7fefec4    ....    BL       SYS_Init ; 0x1268
        0x000024e0:    f7fefd00    ....    BL       GPIO_Init ; 0xee4
        0x000024e4:    f7fffc1a    ....    BL       UART0_Init ; 0x1d1c
        0x000024e8:    f7fff8e0    ....    BL       TIMER1_Init ; 0x16ac
        0x000024ec:    f7fffe82    ....    BL       check_reset_source ; 0x21f4
        0x000024f0:    f24030e8    @..0    MOVW     r0,#0x3e8
        0x000024f4:    f7fff886    ....    BL       SysTick_enable ; 0x1604
        0x000024f8:    f7fffb38    ..8.    BL       TimerService_Init ; 0x1b6c
        0x000024fc:    f7fff9d2    ....    BL       TimerService_CreateTask ; 0x18a4
        0x00002500:    f7fefa82    ....    BL       Emulate_EEPROM ; 0xa08
        0x00002504:    f7fefac8    ....    BL       Emulate_EEPROM_ReadTest ; 0xa98
        0x00002508:    e7ff        ..      B        0x250a ; main + 54
        0x0000250a:    f7ffffa3    ....    BL       loop ; 0x2454
        0x0000250e:    e7fc        ..      B        0x250a ; main + 54
    set_systick
        0x00002510:    b081        ..      SUB      sp,sp,#4
        0x00002512:    9000        ..      STR      r0,[sp,#0]
        0x00002514:    9800        ..      LDR      r0,[sp,#0]
        0x00002516:    4905        .I      LDR      r1,[pc,#20] ; [0x252c] = 0x20000100
        0x00002518:    6008        .`      STR      r0,[r1,#0]
        0x0000251a:    b001        ..      ADD      sp,sp,#4
        0x0000251c:    4770        pG      BX       lr
        0x0000251e:    46c0        .F      MOV      r8,r8
    systick_counter
        0x00002520:    4902        .I      LDR      r1,[pc,#8] ; [0x252c] = 0x20000100
        0x00002522:    6808        .h      LDR      r0,[r1,#0]
        0x00002524:    1c40        @.      ADDS     r0,r0,#1
        0x00002526:    6008        .`      STR      r0,[r1,#0]
        0x00002528:    4770        pG      BX       lr
        0x0000252a:    46c0        .F      MOV      r8,r8
    $d.5
    __arm_cp.2_0
        0x0000252c:    20000100    ...     DCD    536871168
    $t.16
    tick_counter
        0x00002530:    4902        .I      LDR      r1,[pc,#8] ; [0x253c] = 0x20000104
        0x00002532:    6808        .h      LDR      r0,[r1,#0]
        0x00002534:    1c40        @.      ADDS     r0,r0,#1
        0x00002536:    6008        .`      STR      r0,[r1,#0]
        0x00002538:    4770        pG      BX       lr
        0x0000253a:    46c0        .F      MOV      r8,r8
    $d.17
    __arm_cp.9_0
        0x0000253c:    20000104    ...     DCD    536871172
    $t
    i.__0printf
    __0printf
    __1printf
    __2printf
    __c89printf
    printf
        0x00002540:    b40f        ..      PUSH     {r0-r3}
        0x00002542:    b510        ..      PUSH     {r4,lr}
        0x00002544:    a903        ..      ADD      r1,sp,#0xc
        0x00002546:    4b04        .K      LDR      r3,[pc,#16] ; [0x2558] = 0x2439
        0x00002548:    4a04        .J      LDR      r2,[pc,#16] ; [0x255c] = 0x200000ac
        0x0000254a:    9802        ..      LDR      r0,[sp,#8]
        0x0000254c:    f000f8e8    ....    BL       _printf_core ; 0x2720
        0x00002550:    bc10        ..      POP      {r4}
        0x00002552:    bc08        ..      POP      {r3}
        0x00002554:    b004        ..      ADD      sp,sp,#0x10
        0x00002556:    4718        .G      BX       r3
    $d
        0x00002558:    00002439    9$..    DCD    9273
        0x0000255c:    200000ac    ...     DCD    536871084
    $t
    i.__ARM_clz
    __ARM_clz
        0x00002560:    2120         !      MOVS     r1,#0x20
        0x00002562:    0c02        ..      LSRS     r2,r0,#16
        0x00002564:    d001        ..      BEQ      0x256a ; __ARM_clz + 10
        0x00002566:    2110        .!      MOVS     r1,#0x10
        0x00002568:    4610        .F      MOV      r0,r2
        0x0000256a:    0a02        ..      LSRS     r2,r0,#8
        0x0000256c:    d001        ..      BEQ      0x2572 ; __ARM_clz + 18
        0x0000256e:    4610        .F      MOV      r0,r2
        0x00002570:    3908        .9      SUBS     r1,r1,#8
        0x00002572:    0902        ..      LSRS     r2,r0,#4
        0x00002574:    d001        ..      BEQ      0x257a ; __ARM_clz + 26
        0x00002576:    4610        .F      MOV      r0,r2
        0x00002578:    1f09        ..      SUBS     r1,r1,#4
        0x0000257a:    0882        ..      LSRS     r2,r0,#2
        0x0000257c:    d001        ..      BEQ      0x2582 ; __ARM_clz + 34
        0x0000257e:    4610        .F      MOV      r0,r2
        0x00002580:    1e89        ..      SUBS     r1,r1,#2
        0x00002582:    0842        B.      LSRS     r2,r0,#1
        0x00002584:    d001        ..      BEQ      0x258a ; __ARM_clz + 42
        0x00002586:    1e88        ..      SUBS     r0,r1,#2
        0x00002588:    4770        pG      BX       lr
        0x0000258a:    1a08        ..      SUBS     r0,r1,r0
        0x0000258c:    4770        pG      BX       lr
    i.__scatterload_copy
    __scatterload_copy
        0x0000258e:    e002        ..      B        0x2596 ; __scatterload_copy + 8
        0x00002590:    c808        ..      LDM      r0!,{r3}
        0x00002592:    1f12        ..      SUBS     r2,r2,#4
        0x00002594:    c108        ..      STM      r1!,{r3}
        0x00002596:    2a00        .*      CMP      r2,#0
        0x00002598:    d1fa        ..      BNE      0x2590 ; __scatterload_copy + 2
        0x0000259a:    4770        pG      BX       lr
    i.__scatterload_null
    __scatterload_null
        0x0000259c:    4770        pG      BX       lr
    i.__scatterload_zeroinit
    __scatterload_zeroinit
        0x0000259e:    2000        .       MOVS     r0,#0
        0x000025a0:    e001        ..      B        0x25a6 ; __scatterload_zeroinit + 8
        0x000025a2:    c101        ..      STM      r1!,{r0}
        0x000025a4:    1f12        ..      SUBS     r2,r2,#4
        0x000025a6:    2a00        .*      CMP      r2,#0
        0x000025a8:    d1fb        ..      BNE      0x25a2 ; __scatterload_zeroinit + 4
        0x000025aa:    4770        pG      BX       lr
    i._fp_digits
    _fp_digits
        0x000025ac:    b5f0        ..      PUSH     {r4-r7,lr}
        0x000025ae:    b41f        ..      PUSH     {r0-r4}
        0x000025b0:    b086        ..      SUB      sp,sp,#0x18
        0x000025b2:    9809        ..      LDR      r0,[sp,#0x24]
        0x000025b4:    9a08        ..      LDR      r2,[sp,#0x20]
        0x000025b6:    0d03        ..      LSRS     r3,r0,#20
        0x000025b8:    2100        .!      MOVS     r1,#0
        0x000025ba:    4302        .C      ORRS     r2,r2,r0
        0x000025bc:    d014        ..      BEQ      0x25e8 ; _fp_digits + 60
        0x000025be:    4851        QH      LDR      r0,[pc,#324] ; [0x2704] = 0xfffffc01
        0x000025c0:    4a51        QJ      LDR      r2,[pc,#324] ; [0x2708] = 0x4d10
        0x000025c2:    1818        ..      ADDS     r0,r3,r0
        0x000025c4:    4350        PC      MULS     r0,r2,r0
        0x000025c6:    1405        ..      ASRS     r5,r0,#16
        0x000025c8:    9811        ..      LDR      r0,[sp,#0x44]
        0x000025ca:    2801        .(      CMP      r0,#1
        0x000025cc:    9810        ..      LDR      r0,[sp,#0x40]
        0x000025ce:    d01a        ..      BEQ      0x2606 ; _fp_digits + 90
        0x000025d0:    1a28        (.      SUBS     r0,r5,r0
        0x000025d2:    1c40        @.      ADDS     r0,r0,#1
        0x000025d4:    2600        .&      MOVS     r6,#0
        0x000025d6:    4f4d        MO      LDR      r7,[pc,#308] ; [0x270c] = 0x40140000
        0x000025d8:    494d        MI      LDR      r1,[pc,#308] ; [0x2710] = 0x3ff00000
        0x000025da:    9600        ..      STR      r6,[sp,#0]
        0x000025dc:    9101        ..      STR      r1,[sp,#4]
        0x000025de:    9004        ..      STR      r0,[sp,#0x10]
        0x000025e0:    2800        .(      CMP      r0,#0
        0x000025e2:    da12        ..      BGE      0x260a ; _fp_digits + 94
        0x000025e4:    4244        DB      RSBS     r4,r0,#0
        0x000025e6:    e011        ..      B        0x260c ; _fp_digits + 96
        0x000025e8:    9811        ..      LDR      r0,[sp,#0x44]
        0x000025ea:    2401        .$      MOVS     r4,#1
        0x000025ec:    a349        I.      ADR      r3,{pc}+0x128 ; 0x2714
        0x000025ee:    2801        .(      CMP      r0,#1
        0x000025f0:    d101        ..      BNE      0x25f6 ; _fp_digits + 74
        0x000025f2:    9810        ..      LDR      r0,[sp,#0x40]
        0x000025f4:    43c1        .C      MVNS     r1,r0
        0x000025f6:    9806        ..      LDR      r0,[sp,#0x18]
        0x000025f8:    9a11        ..      LDR      r2,[sp,#0x44]
        0x000025fa:    6084        .`      STR      r4,[r0,#8]
        0x000025fc:    6003        .`      STR      r3,[r0,#0]
        0x000025fe:    60c2        .`      STR      r2,[r0,#0xc]
        0x00002600:    6041        A`      STR      r1,[r0,#4]
        0x00002602:    b00b        ..      ADD      sp,sp,#0x2c
        0x00002604:    bdf0        ..      POP      {r4-r7,pc}
        0x00002606:    4240        @B      RSBS     r0,r0,#0
        0x00002608:    e7e4        ..      B        0x25d4 ; _fp_digits + 40
        0x0000260a:    4604        .F      MOV      r4,r0
        0x0000260c:    0521        !.      LSLS     r1,r4,#20
        0x0000260e:    2000        .       MOVS     r0,#0
        0x00002610:    4a3f        ?J      LDR      r2,[pc,#252] ; [0x2710] = 0x3ff00000
        0x00002612:    1c00        ..      ADDS     r0,r0,#0
        0x00002614:    4151        QA      ADCS     r1,r1,r2
        0x00002616:    9103        ..      STR      r1,[sp,#0xc]
        0x00002618:    9002        ..      STR      r0,[sp,#8]
        0x0000261a:    e012        ..      B        0x2642 ; _fp_digits + 150
        0x0000261c:    07e0        ..      LSLS     r0,r4,#31
        0x0000261e:    d007        ..      BEQ      0x2630 ; _fp_digits + 132
        0x00002620:    4632        2F      MOV      r2,r6
        0x00002622:    463b        ;F      MOV      r3,r7
        0x00002624:    9901        ..      LDR      r1,[sp,#4]
        0x00002626:    9800        ..      LDR      r0,[sp,#0]
        0x00002628:    f7fdfeb4    ....    BL       __aeabi_dmul ; 0x394
        0x0000262c:    9101        ..      STR      r1,[sp,#4]
        0x0000262e:    9000        ..      STR      r0,[sp,#0]
        0x00002630:    4632        2F      MOV      r2,r6
        0x00002632:    463b        ;F      MOV      r3,r7
        0x00002634:    4610        .F      MOV      r0,r2
        0x00002636:    4619        .F      MOV      r1,r3
        0x00002638:    f7fdfeac    ....    BL       __aeabi_dmul ; 0x394
        0x0000263c:    4606        .F      MOV      r6,r0
        0x0000263e:    460f        .F      MOV      r7,r1
        0x00002640:    1064        d.      ASRS     r4,r4,#1
        0x00002642:    2c00        .,      CMP      r4,#0
        0x00002644:    d1ea        ..      BNE      0x261c ; _fp_digits + 112
        0x00002646:    9804        ..      LDR      r0,[sp,#0x10]
        0x00002648:    9b03        ..      LDR      r3,[sp,#0xc]
        0x0000264a:    2800        .(      CMP      r0,#0
        0x0000264c:    9a02        ..      LDR      r2,[sp,#8]
        0x0000264e:    9909        ..      LDR      r1,[sp,#0x24]
        0x00002650:    9808        ..      LDR      r0,[sp,#0x20]
        0x00002652:    da06        ..      BGE      0x2662 ; _fp_digits + 182
        0x00002654:    f7fdfe9e    ....    BL       __aeabi_dmul ; 0x394
        0x00002658:    9b01        ..      LDR      r3,[sp,#4]
        0x0000265a:    9a00        ..      LDR      r2,[sp,#0]
        0x0000265c:    f7fdfe9a    ....    BL       __aeabi_dmul ; 0x394
        0x00002660:    e005        ..      B        0x266e ; _fp_digits + 194
        0x00002662:    f7fdfeff    ....    BL       __aeabi_ddiv ; 0x464
        0x00002666:    9b01        ..      LDR      r3,[sp,#4]
        0x00002668:    9a00        ..      LDR      r2,[sp,#0]
        0x0000266a:    f7fdfefb    ....    BL       __aeabi_ddiv ; 0x464
        0x0000266e:    4604        .F      MOV      r4,r0
        0x00002670:    460e        .F      MOV      r6,r1
        0x00002672:    2200        ."      MOVS     r2,#0
        0x00002674:    4b28        (K      LDR      r3,[pc,#160] ; [0x2718] = 0x43f00000
        0x00002676:    f7fdff8d    ....    BL       __aeabi_cdrcmple ; 0x594
        0x0000267a:    d803        ..      BHI      0x2684 ; _fp_digits + 216
        0x0000267c:    2000        .       MOVS     r0,#0
        0x0000267e:    43c0        .C      MVNS     r0,r0
        0x00002680:    4601        .F      MOV      r1,r0
        0x00002682:    e007        ..      B        0x2694 ; _fp_digits + 232
        0x00002684:    2200        ."      MOVS     r2,#0
        0x00002686:    4b25        %K      LDR      r3,[pc,#148] ; [0x271c] = 0x3fe00000
        0x00002688:    4620         F      MOV      r0,r4
        0x0000268a:    4631        1F      MOV      r1,r6
        0x0000268c:    f7fdfdd0    ....    BL       __I$use$fp ; 0x230
        0x00002690:    f7fdff60    ..`.    BL       __aeabi_d2ulz ; 0x554
        0x00002694:    2410        .$      MOVS     r4,#0x10
        0x00002696:    e009        ..      B        0x26ac ; _fp_digits + 256
        0x00002698:    2c00        .,      CMP      r4,#0
        0x0000269a:    db0a        ..      BLT      0x26b2 ; _fp_digits + 262
        0x0000269c:    220a        ."      MOVS     r2,#0xa
        0x0000269e:    2300        .#      MOVS     r3,#0
        0x000026a0:    f7fdfd96    ....    BL       __aeabi_uldivmod ; 0x1d0
        0x000026a4:    9b07        ..      LDR      r3,[sp,#0x1c]
        0x000026a6:    3230        02      ADDS     r2,r2,#0x30
        0x000026a8:    551a        .U      STRB     r2,[r3,r4]
        0x000026aa:    1e64        d.      SUBS     r4,r4,#1
        0x000026ac:    4602        .F      MOV      r2,r0
        0x000026ae:    430a        .C      ORRS     r2,r2,r1
        0x000026b0:    d1f2        ..      BNE      0x2698 ; _fp_digits + 236
        0x000026b2:    2211        ."      MOVS     r2,#0x11
        0x000026b4:    1c64        d.      ADDS     r4,r4,#1
        0x000026b6:    9b07        ..      LDR      r3,[sp,#0x1c]
        0x000026b8:    1b12        ..      SUBS     r2,r2,r4
        0x000026ba:    191c        ..      ADDS     r4,r3,r4
        0x000026bc:    9b11        ..      LDR      r3,[sp,#0x44]
        0x000026be:    2b01        .+      CMP      r3,#1
        0x000026c0:    d003        ..      BEQ      0x26ca ; _fp_digits + 286
        0x000026c2:    2301        .#      MOVS     r3,#1
        0x000026c4:    4308        .C      ORRS     r0,r0,r1
        0x000026c6:    d10e        ..      BNE      0x26e6 ; _fp_digits + 314
        0x000026c8:    e00a        ..      B        0x26e0 ; _fp_digits + 308
        0x000026ca:    4308        .C      ORRS     r0,r0,r1
        0x000026cc:    d004        ..      BEQ      0x26d8 ; _fp_digits + 300
        0x000026ce:    2011        .       MOVS     r0,#0x11
        0x000026d0:    9010        ..      STR      r0,[sp,#0x40]
        0x000026d2:    2000        .       MOVS     r0,#0
        0x000026d4:    9011        ..      STR      r0,[sp,#0x44]
        0x000026d6:    e777        w.      B        0x25c8 ; _fp_digits + 28
        0x000026d8:    9810        ..      LDR      r0,[sp,#0x40]
        0x000026da:    1a15        ..      SUBS     r5,r2,r0
        0x000026dc:    1e6d        m.      SUBS     r5,r5,#1
        0x000026de:    e00b        ..      B        0x26f8 ; _fp_digits + 332
        0x000026e0:    9810        ..      LDR      r0,[sp,#0x40]
        0x000026e2:    4282        .B      CMP      r2,r0
        0x000026e4:    dd02        ..      BLE      0x26ec ; _fp_digits + 320
        0x000026e6:    2300        .#      MOVS     r3,#0
        0x000026e8:    1c6d        m.      ADDS     r5,r5,#1
        0x000026ea:    e003        ..      B        0x26f4 ; _fp_digits + 328
        0x000026ec:    4282        .B      CMP      r2,r0
        0x000026ee:    da01        ..      BGE      0x26f4 ; _fp_digits + 328
        0x000026f0:    2300        .#      MOVS     r3,#0
        0x000026f2:    1e6d        m.      SUBS     r5,r5,#1
        0x000026f4:    2b00        .+      CMP      r3,#0
        0x000026f6:    d0ee        ..      BEQ      0x26d6 ; _fp_digits + 298
        0x000026f8:    9806        ..      LDR      r0,[sp,#0x18]
        0x000026fa:    9911        ..      LDR      r1,[sp,#0x44]
        0x000026fc:    6082        .`      STR      r2,[r0,#8]
        0x000026fe:    60c1        .`      STR      r1,[r0,#0xc]
        0x00002700:    c030        0.      STM      r0!,{r4,r5}
        0x00002702:    e77e        ~.      B        0x2602 ; _fp_digits + 86
    $d
        0x00002704:    fffffc01    ....    DCD    4294966273
        0x00002708:    00004d10    .M..    DCD    19728
        0x0000270c:    40140000    ...@    DCD    1075052544
        0x00002710:    3ff00000    ...?    DCD    1072693248
        0x00002714:    00000030    0...    DCD    48
        0x00002718:    43f00000    ...C    DCD    1139802112
        0x0000271c:    3fe00000    ...?    DCD    1071644672
    $t
    i._printf_core
    _printf_core
        0x00002720:    b5ff        ..      PUSH     {r0-r7,lr}
        0x00002722:    b097        ..      SUB      sp,sp,#0x5c
        0x00002724:    4606        .F      MOV      r6,r0
        0x00002726:    2500        .%      MOVS     r5,#0
        0x00002728:    e218        ..      B        0x2b5c ; _printf_core + 1084
        0x0000272a:    2825        %(      CMP      r0,#0x25
        0x0000272c:    d177        w.      BNE      0x281e ; _printf_core + 254
        0x0000272e:    2400        .$      MOVS     r4,#0
        0x00002730:    4627        'F      MOV      r7,r4
        0x00002732:    49fd        .I      LDR      r1,[pc,#1012] ; [0x2b28] = 0x12809
        0x00002734:    9404        ..      STR      r4,[sp,#0x10]
        0x00002736:    e000        ..      B        0x273a ; _printf_core + 26
        0x00002738:    4304        .C      ORRS     r4,r4,r0
        0x0000273a:    1c76        v.      ADDS     r6,r6,#1
        0x0000273c:    7832        2x      LDRB     r2,[r6,#0]
        0x0000273e:    2001        .       MOVS     r0,#1
        0x00002740:    3a20         :      SUBS     r2,r2,#0x20
        0x00002742:    4090        .@      LSLS     r0,r0,r2
        0x00002744:    4208        .B      TST      r0,r1
        0x00002746:    d1f7        ..      BNE      0x2738 ; _printf_core + 24
        0x00002748:    7830        0x      LDRB     r0,[r6,#0]
        0x0000274a:    282a        *(      CMP      r0,#0x2a
        0x0000274c:    d00e        ..      BEQ      0x276c ; _printf_core + 76
        0x0000274e:    2202        ."      MOVS     r2,#2
        0x00002750:    7830        0x      LDRB     r0,[r6,#0]
        0x00002752:    4601        .F      MOV      r1,r0
        0x00002754:    3930        09      SUBS     r1,r1,#0x30
        0x00002756:    2909        .)      CMP      r1,#9
        0x00002758:    d816        ..      BHI      0x2788 ; _printf_core + 104
        0x0000275a:    9904        ..      LDR      r1,[sp,#0x10]
        0x0000275c:    230a        .#      MOVS     r3,#0xa
        0x0000275e:    4359        YC      MULS     r1,r3,r1
        0x00002760:    3930        09      SUBS     r1,r1,#0x30
        0x00002762:    1840        @.      ADDS     r0,r0,r1
        0x00002764:    4314        .C      ORRS     r4,r4,r2
        0x00002766:    1c76        v.      ADDS     r6,r6,#1
        0x00002768:    9004        ..      STR      r0,[sp,#0x10]
        0x0000276a:    e7f1        ..      B        0x2750 ; _printf_core + 48
        0x0000276c:    9818        ..      LDR      r0,[sp,#0x60]
        0x0000276e:    c802        ..      LDM      r0!,{r1}
        0x00002770:    9104        ..      STR      r1,[sp,#0x10]
        0x00002772:    9018        ..      STR      r0,[sp,#0x60]
        0x00002774:    2900        .)      CMP      r1,#0
        0x00002776:    da04        ..      BGE      0x2782 ; _printf_core + 98
        0x00002778:    2001        .       MOVS     r0,#1
        0x0000277a:    0340        @.      LSLS     r0,r0,#13
        0x0000277c:    4304        .C      ORRS     r4,r4,r0
        0x0000277e:    4248        HB      RSBS     r0,r1,#0
        0x00002780:    9004        ..      STR      r0,[sp,#0x10]
        0x00002782:    2002        .       MOVS     r0,#2
        0x00002784:    4304        .C      ORRS     r4,r4,r0
        0x00002786:    1c76        v.      ADDS     r6,r6,#1
        0x00002788:    7830        0x      LDRB     r0,[r6,#0]
        0x0000278a:    282e        .(      CMP      r0,#0x2e
        0x0000278c:    d114        ..      BNE      0x27b8 ; _printf_core + 152
        0x0000278e:    2004        .       MOVS     r0,#4
        0x00002790:    4304        .C      ORRS     r4,r4,r0
        0x00002792:    7870        px      LDRB     r0,[r6,#1]
        0x00002794:    1c76        v.      ADDS     r6,r6,#1
        0x00002796:    282a        *(      CMP      r0,#0x2a
        0x00002798:    d109        ..      BNE      0x27ae ; _printf_core + 142
        0x0000279a:    9818        ..      LDR      r0,[sp,#0x60]
        0x0000279c:    1c76        v.      ADDS     r6,r6,#1
        0x0000279e:    c880        ..      LDM      r0!,{r7}
        0x000027a0:    9018        ..      STR      r0,[sp,#0x60]
        0x000027a2:    e009        ..      B        0x27b8 ; _printf_core + 152
        0x000027a4:    210a        .!      MOVS     r1,#0xa
        0x000027a6:    434f        OC      MULS     r7,r1,r7
        0x000027a8:    3f30        0?      SUBS     r7,r7,#0x30
        0x000027aa:    19c7        ..      ADDS     r7,r0,r7
        0x000027ac:    1c76        v.      ADDS     r6,r6,#1
        0x000027ae:    7830        0x      LDRB     r0,[r6,#0]
        0x000027b0:    4601        .F      MOV      r1,r0
        0x000027b2:    3930        09      SUBS     r1,r1,#0x30
        0x000027b4:    2909        .)      CMP      r1,#9
        0x000027b6:    d9f5        ..      BLS      0x27a4 ; _printf_core + 132
        0x000027b8:    7830        0x      LDRB     r0,[r6,#0]
        0x000027ba:    286c        l(      CMP      r0,#0x6c
        0x000027bc:    d010        ..      BEQ      0x27e0 ; _printf_core + 192
        0x000027be:    dc06        ..      BGT      0x27ce ; _printf_core + 174
        0x000027c0:    284c        L(      CMP      r0,#0x4c
        0x000027c2:    d01a        ..      BEQ      0x27fa ; _printf_core + 218
        0x000027c4:    2868        h(      CMP      r0,#0x68
        0x000027c6:    d00e        ..      BEQ      0x27e6 ; _printf_core + 198
        0x000027c8:    286a        j(      CMP      r0,#0x6a
        0x000027ca:    d117        ..      BNE      0x27fc ; _printf_core + 220
        0x000027cc:    e004        ..      B        0x27d8 ; _printf_core + 184
        0x000027ce:    2874        t(      CMP      r0,#0x74
        0x000027d0:    d013        ..      BEQ      0x27fa ; _printf_core + 218
        0x000027d2:    287a        z(      CMP      r0,#0x7a
        0x000027d4:    d112        ..      BNE      0x27fc ; _printf_core + 220
        0x000027d6:    e010        ..      B        0x27fa ; _printf_core + 218
        0x000027d8:    2001        .       MOVS     r0,#1
        0x000027da:    0540        @.      LSLS     r0,r0,#21
        0x000027dc:    4304        .C      ORRS     r4,r4,r0
        0x000027de:    e00c        ..      B        0x27fa ; _printf_core + 218
        0x000027e0:    2101        .!      MOVS     r1,#1
        0x000027e2:    0509        ..      LSLS     r1,r1,#20
        0x000027e4:    e001        ..      B        0x27ea ; _printf_core + 202
        0x000027e6:    2103        .!      MOVS     r1,#3
        0x000027e8:    0509        ..      LSLS     r1,r1,#20
        0x000027ea:    430c        .C      ORRS     r4,r4,r1
        0x000027ec:    7871        qx      LDRB     r1,[r6,#1]
        0x000027ee:    4281        .B      CMP      r1,r0
        0x000027f0:    d103        ..      BNE      0x27fa ; _printf_core + 218
        0x000027f2:    2001        .       MOVS     r0,#1
        0x000027f4:    0500        ..      LSLS     r0,r0,#20
        0x000027f6:    1824        $.      ADDS     r4,r4,r0
        0x000027f8:    1c76        v.      ADDS     r6,r6,#1
        0x000027fa:    1c76        v.      ADDS     r6,r6,#1
        0x000027fc:    7830        0x      LDRB     r0,[r6,#0]
        0x000027fe:    9011        ..      STR      r0,[sp,#0x44]
        0x00002800:    2866        f(      CMP      r0,#0x66
        0x00002802:    d00b        ..      BEQ      0x281c ; _printf_core + 252
        0x00002804:    dc13        ..      BGT      0x282e ; _printf_core + 270
        0x00002806:    2858        X(      CMP      r0,#0x58
        0x00002808:    d07d        }.      BEQ      0x2906 ; _printf_core + 486
        0x0000280a:    dc09        ..      BGT      0x2820 ; _printf_core + 256
        0x0000280c:    2800        .(      CMP      r0,#0
        0x0000280e:    d07b        {.      BEQ      0x2908 ; _printf_core + 488
        0x00002810:    2845        E(      CMP      r0,#0x45
        0x00002812:    d0f6        ..      BEQ      0x2802 ; _printf_core + 226
        0x00002814:    2846        F(      CMP      r0,#0x46
        0x00002816:    d0f4        ..      BEQ      0x2802 ; _printf_core + 226
        0x00002818:    2847        G(      CMP      r0,#0x47
        0x0000281a:    d11a        ..      BNE      0x2852 ; _printf_core + 306
        0x0000281c:    e1a5        ..      B        0x2b6a ; _printf_core + 1098
        0x0000281e:    e018        ..      B        0x2852 ; _printf_core + 306
        0x00002820:    2863        c(      CMP      r0,#0x63
        0x00002822:    d035        5.      BEQ      0x2890 ; _printf_core + 368
        0x00002824:    2864        d(      CMP      r0,#0x64
        0x00002826:    d070        p.      BEQ      0x290a ; _printf_core + 490
        0x00002828:    2865        e(      CMP      r0,#0x65
        0x0000282a:    d112        ..      BNE      0x2852 ; _printf_core + 306
        0x0000282c:    e19d        ..      B        0x2b6a ; _printf_core + 1098
        0x0000282e:    2870        p(      CMP      r0,#0x70
        0x00002830:    d06c        l.      BEQ      0x290c ; _printf_core + 492
        0x00002832:    dc08        ..      BGT      0x2846 ; _printf_core + 294
        0x00002834:    2867        g(      CMP      r0,#0x67
        0x00002836:    d0f1        ..      BEQ      0x281c ; _printf_core + 252
        0x00002838:    2869        i(      CMP      r0,#0x69
        0x0000283a:    d07b        {.      BEQ      0x2934 ; _printf_core + 532
        0x0000283c:    286e        n(      CMP      r0,#0x6e
        0x0000283e:    d00d        ..      BEQ      0x285c ; _printf_core + 316
        0x00002840:    286f        o(      CMP      r0,#0x6f
        0x00002842:    d106        ..      BNE      0x2852 ; _printf_core + 306
        0x00002844:    e0ba        ..      B        0x29bc ; _printf_core + 668
        0x00002846:    2873        s(      CMP      r0,#0x73
        0x00002848:    d02e        ..      BEQ      0x28a8 ; _printf_core + 392
        0x0000284a:    2875        u(      CMP      r0,#0x75
        0x0000284c:    d071        q.      BEQ      0x2932 ; _printf_core + 530
        0x0000284e:    2878        x(      CMP      r0,#0x78
        0x00002850:    d059        Y.      BEQ      0x2906 ; _printf_core + 486
        0x00002852:    9a1a        ..      LDR      r2,[sp,#0x68]
        0x00002854:    9919        ..      LDR      r1,[sp,#0x64]
        0x00002856:    4790        .G      BLX      r2
        0x00002858:    1c6d        m.      ADDS     r5,r5,#1
        0x0000285a:    e17e        ~.      B        0x2b5a ; _printf_core + 1082
        0x0000285c:    0260        `.      LSLS     r0,r4,#9
        0x0000285e:    0f40        @.      LSRS     r0,r0,#29
        0x00002860:    2802        .(      CMP      r0,#2
        0x00002862:    d009        ..      BEQ      0x2878 ; _printf_core + 344
        0x00002864:    2803        .(      CMP      r0,#3
        0x00002866:    d00d        ..      BEQ      0x2884 ; _printf_core + 356
        0x00002868:    2804        .(      CMP      r0,#4
        0x0000286a:    9818        ..      LDR      r0,[sp,#0x60]
        0x0000286c:    6801        .h      LDR      r1,[r0,#0]
        0x0000286e:    d00d        ..      BEQ      0x288c ; _printf_core + 364
        0x00002870:    600d        .`      STR      r5,[r1,#0]
        0x00002872:    1d00        ..      ADDS     r0,r0,#4
        0x00002874:    9018        ..      STR      r0,[sp,#0x60]
        0x00002876:    e170        p.      B        0x2b5a ; _printf_core + 1082
        0x00002878:    9818        ..      LDR      r0,[sp,#0x60]
        0x0000287a:    17ea        ..      ASRS     r2,r5,#31
        0x0000287c:    6801        .h      LDR      r1,[r0,#0]
        0x0000287e:    600d        .`      STR      r5,[r1,#0]
        0x00002880:    604a        J`      STR      r2,[r1,#4]
        0x00002882:    e7f6        ..      B        0x2872 ; _printf_core + 338
        0x00002884:    9818        ..      LDR      r0,[sp,#0x60]
        0x00002886:    6801        .h      LDR      r1,[r0,#0]
        0x00002888:    800d        ..      STRH     r5,[r1,#0]
        0x0000288a:    e7f2        ..      B        0x2872 ; _printf_core + 338
        0x0000288c:    700d        .p      STRB     r5,[r1,#0]
        0x0000288e:    e7f0        ..      B        0x2872 ; _printf_core + 338
        0x00002890:    9818        ..      LDR      r0,[sp,#0x60]
        0x00002892:    466a        jF      MOV      r2,sp
        0x00002894:    7801        .x      LDRB     r1,[r0,#0]
        0x00002896:    7211        .r      STRB     r1,[r2,#8]
        0x00002898:    1d00        ..      ADDS     r0,r0,#4
        0x0000289a:    9018        ..      STR      r0,[sp,#0x60]
        0x0000289c:    2000        .       MOVS     r0,#0
        0x0000289e:    7250        Pr      STRB     r0,[r2,#9]
        0x000028a0:    a802        ..      ADD      r0,sp,#8
        0x000028a2:    9000        ..      STR      r0,[sp,#0]
        0x000028a4:    2001        .       MOVS     r0,#1
        0x000028a6:    e005        ..      B        0x28b4 ; _printf_core + 404
        0x000028a8:    9818        ..      LDR      r0,[sp,#0x60]
        0x000028aa:    c802        ..      LDM      r0!,{r1}
        0x000028ac:    9018        ..      STR      r0,[sp,#0x60]
        0x000028ae:    2000        .       MOVS     r0,#0
        0x000028b0:    9100        ..      STR      r1,[sp,#0]
        0x000028b2:    43c0        .C      MVNS     r0,r0
        0x000028b4:    0761        a.      LSLS     r1,r4,#29
        0x000028b6:    d50d        ..      BPL      0x28d4 ; _printf_core + 436
        0x000028b8:    2100        .!      MOVS     r1,#0
        0x000028ba:    e001        ..      B        0x28c0 ; _printf_core + 416
        0x000028bc:    9901        ..      LDR      r1,[sp,#4]
        0x000028be:    1c49        I.      ADDS     r1,r1,#1
        0x000028c0:    9101        ..      STR      r1,[sp,#4]
        0x000028c2:    42b9        .B      CMP      r1,r7
        0x000028c4:    da12        ..      BGE      0x28ec ; _printf_core + 460
        0x000028c6:    4281        .B      CMP      r1,r0
        0x000028c8:    dbf8        ..      BLT      0x28bc ; _printf_core + 412
        0x000028ca:    9a00        ..      LDR      r2,[sp,#0]
        0x000028cc:    5c51        Q\      LDRB     r1,[r2,r1]
        0x000028ce:    2900        .)      CMP      r1,#0
        0x000028d0:    d1f4        ..      BNE      0x28bc ; _printf_core + 412
        0x000028d2:    e00b        ..      B        0x28ec ; _printf_core + 460
        0x000028d4:    2100        .!      MOVS     r1,#0
        0x000028d6:    e001        ..      B        0x28dc ; _printf_core + 444
        0x000028d8:    9901        ..      LDR      r1,[sp,#4]
        0x000028da:    1c49        I.      ADDS     r1,r1,#1
        0x000028dc:    9101        ..      STR      r1,[sp,#4]
        0x000028de:    4281        .B      CMP      r1,r0
        0x000028e0:    dbfa        ..      BLT      0x28d8 ; _printf_core + 440
        0x000028e2:    9a01        ..      LDR      r2,[sp,#4]
        0x000028e4:    9900        ..      LDR      r1,[sp,#0]
        0x000028e6:    5c89        .\      LDRB     r1,[r1,r2]
        0x000028e8:    2900        .)      CMP      r1,#0
        0x000028ea:    d1f5        ..      BNE      0x28d8 ; _printf_core + 440
        0x000028ec:    9901        ..      LDR      r1,[sp,#4]
        0x000028ee:    9804        ..      LDR      r0,[sp,#0x10]
        0x000028f0:    9b1a        ..      LDR      r3,[sp,#0x68]
        0x000028f2:    1a47        G.      SUBS     r7,r0,r1
        0x000028f4:    4621        !F      MOV      r1,r4
        0x000028f6:    4638        8F      MOV      r0,r7
        0x000028f8:    9a19        ..      LDR      r2,[sp,#0x64]
        0x000028fa:    f000fa97    ....    BL       _printf_pre_padding ; 0x2e2c
        0x000028fe:    9901        ..      LDR      r1,[sp,#4]
        0x00002900:    1940        @.      ADDS     r0,r0,r5
        0x00002902:    1845        E.      ADDS     r5,r0,r1
        0x00002904:    e00b        ..      B        0x291e ; _printf_core + 510
        0x00002906:    e04f        O.      B        0x29a8 ; _printf_core + 648
        0x00002908:    e12c        ,.      B        0x2b64 ; _printf_core + 1092
        0x0000290a:    e013        ..      B        0x2934 ; _printf_core + 532
        0x0000290c:    e04e        N.      B        0x29ac ; _printf_core + 652
        0x0000290e:    9800        ..      LDR      r0,[sp,#0]
        0x00002910:    9900        ..      LDR      r1,[sp,#0]
        0x00002912:    7800        .x      LDRB     r0,[r0,#0]
        0x00002914:    1c49        I.      ADDS     r1,r1,#1
        0x00002916:    9100        ..      STR      r1,[sp,#0]
        0x00002918:    9a1a        ..      LDR      r2,[sp,#0x68]
        0x0000291a:    9919        ..      LDR      r1,[sp,#0x64]
        0x0000291c:    4790        .G      BLX      r2
        0x0000291e:    9801        ..      LDR      r0,[sp,#4]
        0x00002920:    1e40        @.      SUBS     r0,r0,#1
        0x00002922:    9001        ..      STR      r0,[sp,#4]
        0x00002924:    1c40        @.      ADDS     r0,r0,#1
        0x00002926:    d1f2        ..      BNE      0x290e ; _printf_core + 494
        0x00002928:    4621        !F      MOV      r1,r4
        0x0000292a:    4638        8F      MOV      r0,r7
        0x0000292c:    9b1a        ..      LDR      r3,[sp,#0x68]
        0x0000292e:    9a19        ..      LDR      r2,[sp,#0x64]
        0x00002930:    e110        ..      B        0x2b54 ; _printf_core + 1076
        0x00002932:    e037        7.      B        0x29a4 ; _printf_core + 644
        0x00002934:    200a        .       MOVS     r0,#0xa
        0x00002936:    2100        .!      MOVS     r1,#0
        0x00002938:    9000        ..      STR      r0,[sp,#0]
        0x0000293a:    9101        ..      STR      r1,[sp,#4]
        0x0000293c:    0260        `.      LSLS     r0,r4,#9
        0x0000293e:    0f41        A.      LSRS     r1,r0,#29
        0x00002940:    2902        .)      CMP      r1,#2
        0x00002942:    d007        ..      BEQ      0x2954 ; _printf_core + 564
        0x00002944:    9a18        ..      LDR      r2,[sp,#0x60]
        0x00002946:    ca01        ..      LDM      r2!,{r0}
        0x00002948:    9218        ..      STR      r2,[sp,#0x60]
        0x0000294a:    17c2        ..      ASRS     r2,r0,#31
        0x0000294c:    4694        .F      MOV      r12,r2
        0x0000294e:    2903        .)      CMP      r1,#3
        0x00002950:    d008        ..      BEQ      0x2964 ; _printf_core + 580
        0x00002952:    e00a        ..      B        0x296a ; _printf_core + 586
        0x00002954:    9818        ..      LDR      r0,[sp,#0x60]
        0x00002956:    1dc0        ..      ADDS     r0,r0,#7
        0x00002958:    08c1        ..      LSRS     r1,r0,#3
        0x0000295a:    00c9        ..      LSLS     r1,r1,#3
        0x0000295c:    c905        ..      LDM      r1!,{r0,r2}
        0x0000295e:    9118        ..      STR      r1,[sp,#0x60]
        0x00002960:    4694        .F      MOV      r12,r2
        0x00002962:    e007        ..      B        0x2974 ; _printf_core + 596
        0x00002964:    b200        ..      SXTH     r0,r0
        0x00002966:    17c2        ..      ASRS     r2,r0,#31
        0x00002968:    4694        .F      MOV      r12,r2
        0x0000296a:    2904        .)      CMP      r1,#4
        0x0000296c:    d102        ..      BNE      0x2974 ; _printf_core + 596
        0x0000296e:    b240        @.      SXTB     r0,r0
        0x00002970:    17c1        ..      ASRS     r1,r0,#31
        0x00002972:    468c        .F      MOV      r12,r1
        0x00002974:    2200        ."      MOVS     r2,#0
        0x00002976:    4661        aF      MOV      r1,r12
        0x00002978:    4594        .E      CMP      r12,r2
        0x0000297a:    da06        ..      BGE      0x298a ; _printf_core + 618
        0x0000297c:    460a        .F      MOV      r2,r1
        0x0000297e:    2100        .!      MOVS     r1,#0
        0x00002980:    4240        @B      RSBS     r0,r0,#0
        0x00002982:    4191        .A      SBCS     r1,r1,r2
        0x00002984:    468c        .F      MOV      r12,r1
        0x00002986:    212d        -!      MOVS     r1,#0x2d
        0x00002988:    e002        ..      B        0x2990 ; _printf_core + 624
        0x0000298a:    0521        !.      LSLS     r1,r4,#20
        0x0000298c:    d504        ..      BPL      0x2998 ; _printf_core + 632
        0x0000298e:    212b        +!      MOVS     r1,#0x2b
        0x00002990:    466a        jF      MOV      r2,sp
        0x00002992:    7311        .s      STRB     r1,[r2,#0xc]
        0x00002994:    2101        .!      MOVS     r1,#1
        0x00002996:    e003        ..      B        0x29a0 ; _printf_core + 640
        0x00002998:    07e1        ..      LSLS     r1,r4,#31
        0x0000299a:    d001        ..      BEQ      0x29a0 ; _printf_core + 640
        0x0000299c:    2120         !      MOVS     r1,#0x20
        0x0000299e:    e7f7        ..      B        0x2990 ; _printf_core + 624
        0x000029a0:    9102        ..      STR      r1,[sp,#8]
        0x000029a2:    e055        U.      B        0x2a50 ; _printf_core + 816
        0x000029a4:    200a        .       MOVS     r0,#0xa
        0x000029a6:    e00a        ..      B        0x29be ; _printf_core + 670
        0x000029a8:    2010        .       MOVS     r0,#0x10
        0x000029aa:    e008        ..      B        0x29be ; _printf_core + 670
        0x000029ac:    2010        .       MOVS     r0,#0x10
        0x000029ae:    9000        ..      STR      r0,[sp,#0]
        0x000029b0:    2100        .!      MOVS     r1,#0
        0x000029b2:    2004        .       MOVS     r0,#4
        0x000029b4:    4304        .C      ORRS     r4,r4,r0
        0x000029b6:    9101        ..      STR      r1,[sp,#4]
        0x000029b8:    2708        .'      MOVS     r7,#8
        0x000029ba:    e003        ..      B        0x29c4 ; _printf_core + 676
        0x000029bc:    2008        .       MOVS     r0,#8
        0x000029be:    2100        .!      MOVS     r1,#0
        0x000029c0:    9101        ..      STR      r1,[sp,#4]
        0x000029c2:    9000        ..      STR      r0,[sp,#0]
        0x000029c4:    0260        `.      LSLS     r0,r4,#9
        0x000029c6:    0f41        A.      LSRS     r1,r0,#29
        0x000029c8:    2902        .)      CMP      r1,#2
        0x000029ca:    d007        ..      BEQ      0x29dc ; _printf_core + 700
        0x000029cc:    9a18        ..      LDR      r2,[sp,#0x60]
        0x000029ce:    ca01        ..      LDM      r2!,{r0}
        0x000029d0:    9218        ..      STR      r2,[sp,#0x60]
        0x000029d2:    2200        ."      MOVS     r2,#0
        0x000029d4:    4694        .F      MOV      r12,r2
        0x000029d6:    2903        .)      CMP      r1,#3
        0x000029d8:    d008        ..      BEQ      0x29ec ; _printf_core + 716
        0x000029da:    e008        ..      B        0x29ee ; _printf_core + 718
        0x000029dc:    9818        ..      LDR      r0,[sp,#0x60]
        0x000029de:    1dc0        ..      ADDS     r0,r0,#7
        0x000029e0:    08c1        ..      LSRS     r1,r0,#3
        0x000029e2:    00c9        ..      LSLS     r1,r1,#3
        0x000029e4:    c905        ..      LDM      r1!,{r0,r2}
        0x000029e6:    9118        ..      STR      r1,[sp,#0x60]
        0x000029e8:    4694        .F      MOV      r12,r2
        0x000029ea:    e003        ..      B        0x29f4 ; _printf_core + 724
        0x000029ec:    b280        ..      UXTH     r0,r0
        0x000029ee:    2904        .)      CMP      r1,#4
        0x000029f0:    d100        ..      BNE      0x29f4 ; _printf_core + 724
        0x000029f2:    b2c0        ..      UXTB     r0,r0
        0x000029f4:    2100        .!      MOVS     r1,#0
        0x000029f6:    9102        ..      STR      r1,[sp,#8]
        0x000029f8:    0721        !.      LSLS     r1,r4,#28
        0x000029fa:    d529        ).      BPL      0x2a50 ; _printf_core + 816
        0x000029fc:    9911        ..      LDR      r1,[sp,#0x44]
        0x000029fe:    2970        p)      CMP      r1,#0x70
        0x00002a00:    d006        ..      BEQ      0x2a10 ; _printf_core + 752
        0x00002a02:    9a00        ..      LDR      r2,[sp,#0]
        0x00002a04:    2110        .!      MOVS     r1,#0x10
        0x00002a06:    9b01        ..      LDR      r3,[sp,#4]
        0x00002a08:    404a        J@      EORS     r2,r2,r1
        0x00002a0a:    431a        .C      ORRS     r2,r2,r3
        0x00002a0c:    d005        ..      BEQ      0x2a1a ; _printf_core + 762
        0x00002a0e:    e00e        ..      B        0x2a2e ; _printf_core + 782
        0x00002a10:    2140        @!      MOVS     r1,#0x40
        0x00002a12:    466a        jF      MOV      r2,sp
        0x00002a14:    7311        .s      STRB     r1,[r2,#0xc]
        0x00002a16:    2101        .!      MOVS     r1,#1
        0x00002a18:    e008        ..      B        0x2a2c ; _printf_core + 780
        0x00002a1a:    4661        aF      MOV      r1,r12
        0x00002a1c:    4301        .C      ORRS     r1,r1,r0
        0x00002a1e:    d006        ..      BEQ      0x2a2e ; _printf_core + 782
        0x00002a20:    2130        0!      MOVS     r1,#0x30
        0x00002a22:    466a        jF      MOV      r2,sp
        0x00002a24:    7311        .s      STRB     r1,[r2,#0xc]
        0x00002a26:    9911        ..      LDR      r1,[sp,#0x44]
        0x00002a28:    7351        Qs      STRB     r1,[r2,#0xd]
        0x00002a2a:    2102        .!      MOVS     r1,#2
        0x00002a2c:    9102        ..      STR      r1,[sp,#8]
        0x00002a2e:    9a00        ..      LDR      r2,[sp,#0]
        0x00002a30:    2108        .!      MOVS     r1,#8
        0x00002a32:    9b01        ..      LDR      r3,[sp,#4]
        0x00002a34:    404a        J@      EORS     r2,r2,r1
        0x00002a36:    431a        .C      ORRS     r2,r2,r3
        0x00002a38:    d10a        ..      BNE      0x2a50 ; _printf_core + 816
        0x00002a3a:    4661        aF      MOV      r1,r12
        0x00002a3c:    4301        .C      ORRS     r1,r1,r0
        0x00002a3e:    d101        ..      BNE      0x2a44 ; _printf_core + 804
        0x00002a40:    0761        a.      LSLS     r1,r4,#29
        0x00002a42:    d505        ..      BPL      0x2a50 ; _printf_core + 816
        0x00002a44:    2130        0!      MOVS     r1,#0x30
        0x00002a46:    466a        jF      MOV      r2,sp
        0x00002a48:    7311        .s      STRB     r1,[r2,#0xc]
        0x00002a4a:    2101        .!      MOVS     r1,#1
        0x00002a4c:    1e7f        ..      SUBS     r7,r7,#1
        0x00002a4e:    9102        ..      STR      r1,[sp,#8]
        0x00002a50:    9911        ..      LDR      r1,[sp,#0x44]
        0x00002a52:    2958        X)      CMP      r1,#0x58
        0x00002a54:    d004        ..      BEQ      0x2a60 ; _printf_core + 832
        0x00002a56:    a135        5.      ADR      r1,{pc}+0xd6 ; 0x2b2c
        0x00002a58:    910e        ..      STR      r1,[sp,#0x38]
        0x00002a5a:    a90d        ..      ADD      r1,sp,#0x34
        0x00002a5c:    910d        ..      STR      r1,[sp,#0x34]
        0x00002a5e:    e00d        ..      B        0x2a7c ; _printf_core + 860
        0x00002a60:    a137        7.      ADR      r1,{pc}+0xe0 ; 0x2b40
        0x00002a62:    e7f9        ..      B        0x2a58 ; _printf_core + 824
        0x00002a64:    4661        aF      MOV      r1,r12
        0x00002a66:    9b01        ..      LDR      r3,[sp,#4]
        0x00002a68:    9a00        ..      LDR      r2,[sp,#0]
        0x00002a6a:    f7fdfbb1    ....    BL       __aeabi_uldivmod ; 0x1d0
        0x00002a6e:    9b0e        ..      LDR      r3,[sp,#0x38]
        0x00002a70:    468c        .F      MOV      r12,r1
        0x00002a72:    5c9b        .\      LDRB     r3,[r3,r2]
        0x00002a74:    9a0d        ..      LDR      r2,[sp,#0x34]
        0x00002a76:    1e52        R.      SUBS     r2,r2,#1
        0x00002a78:    920d        ..      STR      r2,[sp,#0x34]
        0x00002a7a:    7013        .p      STRB     r3,[r2,#0]
        0x00002a7c:    4661        aF      MOV      r1,r12
        0x00002a7e:    4301        .C      ORRS     r1,r1,r0
        0x00002a80:    d1f0        ..      BNE      0x2a64 ; _printf_core + 836
        0x00002a82:    980d        ..      LDR      r0,[sp,#0x34]
        0x00002a84:    a905        ..      ADD      r1,sp,#0x14
        0x00002a86:    1a08        ..      SUBS     r0,r1,r0
        0x00002a88:    3020         0      ADDS     r0,r0,#0x20
        0x00002a8a:    9001        ..      STR      r0,[sp,#4]
        0x00002a8c:    0760        `.      LSLS     r0,r4,#29
        0x00002a8e:    d503        ..      BPL      0x2a98 ; _printf_core + 888
        0x00002a90:    2001        .       MOVS     r0,#1
        0x00002a92:    0400        ..      LSLS     r0,r0,#16
        0x00002a94:    4384        .C      BICS     r4,r4,r0
        0x00002a96:    e000        ..      B        0x2a9a ; _printf_core + 890
        0x00002a98:    2701        .'      MOVS     r7,#1
        0x00002a9a:    9801        ..      LDR      r0,[sp,#4]
        0x00002a9c:    4287        .B      CMP      r7,r0
        0x00002a9e:    dd01        ..      BLE      0x2aa4 ; _printf_core + 900
        0x00002aa0:    1a38        8.      SUBS     r0,r7,r0
        0x00002aa2:    e000        ..      B        0x2aa6 ; _printf_core + 902
        0x00002aa4:    2000        .       MOVS     r0,#0
        0x00002aa6:    9901        ..      LDR      r1,[sp,#4]
        0x00002aa8:    9000        ..      STR      r0,[sp,#0]
        0x00002aaa:    1841        A.      ADDS     r1,r0,r1
        0x00002aac:    9802        ..      LDR      r0,[sp,#8]
        0x00002aae:    1809        ..      ADDS     r1,r1,r0
        0x00002ab0:    9804        ..      LDR      r0,[sp,#0x10]
        0x00002ab2:    1a40        @.      SUBS     r0,r0,r1
        0x00002ab4:    9004        ..      STR      r0,[sp,#0x10]
        0x00002ab6:    03e0        ..      LSLS     r0,r4,#15
        0x00002ab8:    d406        ..      BMI      0x2ac8 ; _printf_core + 936
        0x00002aba:    4621        !F      MOV      r1,r4
        0x00002abc:    9b1a        ..      LDR      r3,[sp,#0x68]
        0x00002abe:    9a19        ..      LDR      r2,[sp,#0x64]
        0x00002ac0:    9804        ..      LDR      r0,[sp,#0x10]
        0x00002ac2:    f000f9b3    ....    BL       _printf_pre_padding ; 0x2e2c
        0x00002ac6:    1945        E.      ADDS     r5,r0,r5
        0x00002ac8:    2700        .'      MOVS     r7,#0
        0x00002aca:    e006        ..      B        0x2ada ; _printf_core + 954
        0x00002acc:    a803        ..      ADD      r0,sp,#0xc
        0x00002ace:    9a1a        ..      LDR      r2,[sp,#0x68]
        0x00002ad0:    5dc0        .]      LDRB     r0,[r0,r7]
        0x00002ad2:    9919        ..      LDR      r1,[sp,#0x64]
        0x00002ad4:    4790        .G      BLX      r2
        0x00002ad6:    1c6d        m.      ADDS     r5,r5,#1
        0x00002ad8:    1c7f        ..      ADDS     r7,r7,#1
        0x00002ada:    9802        ..      LDR      r0,[sp,#8]
        0x00002adc:    4287        .B      CMP      r7,r0
        0x00002ade:    dbf5        ..      BLT      0x2acc ; _printf_core + 940
        0x00002ae0:    03e0        ..      LSLS     r0,r4,#15
        0x00002ae2:    d50c        ..      BPL      0x2afe ; _printf_core + 990
        0x00002ae4:    4621        !F      MOV      r1,r4
        0x00002ae6:    9b1a        ..      LDR      r3,[sp,#0x68]
        0x00002ae8:    9a19        ..      LDR      r2,[sp,#0x64]
        0x00002aea:    9804        ..      LDR      r0,[sp,#0x10]
        0x00002aec:    f000f99e    ....    BL       _printf_pre_padding ; 0x2e2c
        0x00002af0:    1945        E.      ADDS     r5,r0,r5
        0x00002af2:    e004        ..      B        0x2afe ; _printf_core + 990
        0x00002af4:    9a1a        ..      LDR      r2,[sp,#0x68]
        0x00002af6:    2030        0       MOVS     r0,#0x30
        0x00002af8:    9919        ..      LDR      r1,[sp,#0x64]
        0x00002afa:    4790        .G      BLX      r2
        0x00002afc:    1c6d        m.      ADDS     r5,r5,#1
        0x00002afe:    9900        ..      LDR      r1,[sp,#0]
        0x00002b00:    1e48        H.      SUBS     r0,r1,#1
        0x00002b02:    9000        ..      STR      r0,[sp,#0]
        0x00002b04:    2900        .)      CMP      r1,#0
        0x00002b06:    dcf5        ..      BGT      0x2af4 ; _printf_core + 980
        0x00002b08:    e008        ..      B        0x2b1c ; _printf_core + 1020
        0x00002b0a:    980d        ..      LDR      r0,[sp,#0x34]
        0x00002b0c:    990d        ..      LDR      r1,[sp,#0x34]
        0x00002b0e:    7800        .x      LDRB     r0,[r0,#0]
        0x00002b10:    1c49        I.      ADDS     r1,r1,#1
        0x00002b12:    910d        ..      STR      r1,[sp,#0x34]
        0x00002b14:    9a1a        ..      LDR      r2,[sp,#0x68]
        0x00002b16:    9919        ..      LDR      r1,[sp,#0x64]
        0x00002b18:    4790        .G      BLX      r2
        0x00002b1a:    1c6d        m.      ADDS     r5,r5,#1
        0x00002b1c:    9901        ..      LDR      r1,[sp,#4]
        0x00002b1e:    1e48        H.      SUBS     r0,r1,#1
        0x00002b20:    9001        ..      STR      r0,[sp,#4]
        0x00002b22:    2900        .)      CMP      r1,#0
        0x00002b24:    dcf1        ..      BGT      0x2b0a ; _printf_core + 1002
        0x00002b26:    e163        c.      B        0x2df0 ; _printf_core + 1744
    $d
        0x00002b28:    00012809    .(..    DCD    75785
        0x00002b2c:    33323130    0123    DCD    858927408
        0x00002b30:    37363534    4567    DCD    926299444
        0x00002b34:    62613938    89ab    DCD    1650538808
        0x00002b38:    66656463    cdef    DCD    1717920867
        0x00002b3c:    00000000    ....    DCD    0
        0x00002b40:    33323130    0123    DCD    858927408
        0x00002b44:    37363534    4567    DCD    926299444
        0x00002b48:    42413938    89AB    DCD    1111570744
        0x00002b4c:    46454443    CDEF    DCD    1178944579
        0x00002b50:    00000000    ....    DCD    0
    $t
        0x00002b54:    f000f95a    ..Z.    BL       _printf_post_padding ; 0x2e0c
        0x00002b58:    1945        E.      ADDS     r5,r0,r5
        0x00002b5a:    1c76        v.      ADDS     r6,r6,#1
        0x00002b5c:    7830        0x      LDRB     r0,[r6,#0]
        0x00002b5e:    2800        .(      CMP      r0,#0
        0x00002b60:    d000        ..      BEQ      0x2b64 ; _printf_core + 1092
        0x00002b62:    e5e2        ..      B        0x272a ; _printf_core + 10
        0x00002b64:    4628        (F      MOV      r0,r5
        0x00002b66:    b01b        ..      ADD      sp,sp,#0x6c
        0x00002b68:    bdf0        ..      POP      {r4-r7,pc}
        0x00002b6a:    0760        `.      LSLS     r0,r4,#29
        0x00002b6c:    d400        ..      BMI      0x2b70 ; _printf_core + 1104
        0x00002b6e:    2706        .'      MOVS     r7,#6
        0x00002b70:    9818        ..      LDR      r0,[sp,#0x60]
        0x00002b72:    1dc0        ..      ADDS     r0,r0,#7
        0x00002b74:    08c1        ..      LSRS     r1,r0,#3
        0x00002b76:    00c9        ..      LSLS     r1,r1,#3
        0x00002b78:    6848        Hh      LDR      r0,[r1,#4]
        0x00002b7a:    680a        .h      LDR      r2,[r1,#0]
        0x00002b7c:    3108        .1      ADDS     r1,r1,#8
        0x00002b7e:    0fc3        ..      LSRS     r3,r0,#31
        0x00002b80:    07db        ..      LSLS     r3,r3,#31
        0x00002b82:    9118        ..      STR      r1,[sp,#0x60]
        0x00002b84:    0019        ..      MOVS     r1,r3
        0x00002b86:    d001        ..      BEQ      0x2b8c ; _printf_core + 1132
        0x00002b88:    a19c        ..      ADR      r1,{pc}+0x274 ; 0x2dfc
        0x00002b8a:    e008        ..      B        0x2b9e ; _printf_core + 1150
        0x00002b8c:    0521        !.      LSLS     r1,r4,#20
        0x00002b8e:    d501        ..      BPL      0x2b94 ; _printf_core + 1140
        0x00002b90:    a19b        ..      ADR      r1,{pc}+0x270 ; 0x2e00
        0x00002b92:    e004        ..      B        0x2b9e ; _printf_core + 1150
        0x00002b94:    07e1        ..      LSLS     r1,r4,#31
        0x00002b96:    d001        ..      BEQ      0x2b9c ; _printf_core + 1148
        0x00002b98:    a19a        ..      ADR      r1,{pc}+0x26c ; 0x2e04
        0x00002b9a:    e000        ..      B        0x2b9e ; _printf_core + 1150
        0x00002b9c:    a19a        ..      ADR      r1,{pc}+0x26c ; 0x2e08
        0x00002b9e:    0043        C.      LSLS     r3,r0,#1
        0x00002ba0:    9811        ..      LDR      r0,[sp,#0x44]
        0x00002ba2:    085b        [.      LSRS     r3,r3,#1
        0x00002ba4:    9110        ..      STR      r1,[sp,#0x40]
        0x00002ba6:    2865        e(      CMP      r0,#0x65
        0x00002ba8:    d00c        ..      BEQ      0x2bc4 ; _printf_core + 1188
        0x00002baa:    dc06        ..      BGT      0x2bba ; _printf_core + 1178
        0x00002bac:    2845        E(      CMP      r0,#0x45
        0x00002bae:    d009        ..      BEQ      0x2bc4 ; _printf_core + 1188
        0x00002bb0:    2846        F(      CMP      r0,#0x46
        0x00002bb2:    d01d        ..      BEQ      0x2bf0 ; _printf_core + 1232
        0x00002bb4:    2847        G(      CMP      r0,#0x47
        0x00002bb6:    d141        A.      BNE      0x2c3c ; _printf_core + 1308
        0x00002bb8:    e041        A.      B        0x2c3e ; _printf_core + 1310
        0x00002bba:    2866        f(      CMP      r0,#0x66
        0x00002bbc:    d018        ..      BEQ      0x2bf0 ; _printf_core + 1232
        0x00002bbe:    2867        g(      CMP      r0,#0x67
        0x00002bc0:    d13c        <.      BNE      0x2c3c ; _printf_core + 1308
        0x00002bc2:    e03c        <.      B        0x2c3e ; _printf_core + 1310
        0x00002bc4:    2100        .!      MOVS     r1,#0
        0x00002bc6:    2f11        ./      CMP      r7,#0x11
        0x00002bc8:    db01        ..      BLT      0x2bce ; _printf_core + 1198
        0x00002bca:    2011        .       MOVS     r0,#0x11
        0x00002bcc:    e000        ..      B        0x2bd0 ; _printf_core + 1200
        0x00002bce:    1c78        x.      ADDS     r0,r7,#1
        0x00002bd0:    9101        ..      STR      r1,[sp,#4]
        0x00002bd2:    9000        ..      STR      r0,[sp,#0]
        0x00002bd4:    a908        ..      ADD      r1,sp,#0x20
        0x00002bd6:    a811        ..      ADD      r0,sp,#0x44
        0x00002bd8:    f7fffce8    ....    BL       _fp_digits ; 0x25ac
        0x00002bdc:    9913        ..      LDR      r1,[sp,#0x4c]
        0x00002bde:    9105        ..      STR      r1,[sp,#0x14]
        0x00002be0:    2100        .!      MOVS     r1,#0
        0x00002be2:    9a11        ..      LDR      r2,[sp,#0x44]
        0x00002be4:    9215        ..      STR      r2,[sp,#0x54]
        0x00002be6:    1c7f        ..      ADDS     r7,r7,#1
        0x00002be8:    9812        ..      LDR      r0,[sp,#0x48]
        0x00002bea:    9701        ..      STR      r7,[sp,#4]
        0x00002bec:    9100        ..      STR      r1,[sp,#0]
        0x00002bee:    e050        P.      B        0x2c92 ; _printf_core + 1394
        0x00002bf0:    2001        .       MOVS     r0,#1
        0x00002bf2:    07c0        ..      LSLS     r0,r0,#31
        0x00002bf4:    9003        ..      STR      r0,[sp,#0xc]
        0x00002bf6:    2001        .       MOVS     r0,#1
        0x00002bf8:    9001        ..      STR      r0,[sp,#4]
        0x00002bfa:    a908        ..      ADD      r1,sp,#0x20
        0x00002bfc:    9700        ..      STR      r7,[sp,#0]
        0x00002bfe:    a811        ..      ADD      r0,sp,#0x44
        0x00002c00:    f7fffcd4    ....    BL       _fp_digits ; 0x25ac
        0x00002c04:    9a13        ..      LDR      r2,[sp,#0x4c]
        0x00002c06:    9914        ..      LDR      r1,[sp,#0x50]
        0x00002c08:    9205        ..      STR      r2,[sp,#0x14]
        0x00002c0a:    2200        ."      MOVS     r2,#0
        0x00002c0c:    9b11        ..      LDR      r3,[sp,#0x44]
        0x00002c0e:    9200        ..      STR      r2,[sp,#0]
        0x00002c10:    9812        ..      LDR      r0,[sp,#0x48]
        0x00002c12:    9315        ..      STR      r3,[sp,#0x54]
        0x00002c14:    9a05        ..      LDR      r2,[sp,#0x14]
        0x00002c16:    9201        ..      STR      r2,[sp,#4]
        0x00002c18:    2900        .)      CMP      r1,#0
        0x00002c1a:    d001        ..      BEQ      0x2c20 ; _printf_core + 1280
        0x00002c1c:    4610        .F      MOV      r0,r2
        0x00002c1e:    e002        ..      B        0x2c26 ; _printf_core + 1286
        0x00002c20:    1c79        y.      ADDS     r1,r7,#1
        0x00002c22:    1840        @.      ADDS     r0,r0,r1
        0x00002c24:    9001        ..      STR      r0,[sp,#4]
        0x00002c26:    1a38        8.      SUBS     r0,r7,r0
        0x00002c28:    d501        ..      BPL      0x2c2e ; _printf_core + 1294
        0x00002c2a:    9801        ..      LDR      r0,[sp,#4]
        0x00002c2c:    e004        ..      B        0x2c38 ; _printf_core + 1304
        0x00002c2e:    4240        @B      RSBS     r0,r0,#0
        0x00002c30:    1e40        @.      SUBS     r0,r0,#1
        0x00002c32:    9000        ..      STR      r0,[sp,#0]
        0x00002c34:    1c78        x.      ADDS     r0,r7,#1
        0x00002c36:    9001        ..      STR      r0,[sp,#4]
        0x00002c38:    1bc0        ..      SUBS     r0,r0,r7
        0x00002c3a:    9002        ..      STR      r0,[sp,#8]
        0x00002c3c:    e043        C.      B        0x2cc6 ; _printf_core + 1446
        0x00002c3e:    2f01        ./      CMP      r7,#1
        0x00002c40:    da00        ..      BGE      0x2c44 ; _printf_core + 1316
        0x00002c42:    2701        .'      MOVS     r7,#1
        0x00002c44:    2100        .!      MOVS     r1,#0
        0x00002c46:    2f11        ./      CMP      r7,#0x11
        0x00002c48:    dd01        ..      BLE      0x2c4e ; _printf_core + 1326
        0x00002c4a:    2011        .       MOVS     r0,#0x11
        0x00002c4c:    e000        ..      B        0x2c50 ; _printf_core + 1328
        0x00002c4e:    4638        8F      MOV      r0,r7
        0x00002c50:    9101        ..      STR      r1,[sp,#4]
        0x00002c52:    9000        ..      STR      r0,[sp,#0]
        0x00002c54:    a908        ..      ADD      r1,sp,#0x20
        0x00002c56:    a811        ..      ADD      r0,sp,#0x44
        0x00002c58:    f7fffca8    ....    BL       _fp_digits ; 0x25ac
        0x00002c5c:    9913        ..      LDR      r1,[sp,#0x4c]
        0x00002c5e:    9105        ..      STR      r1,[sp,#0x14]
        0x00002c60:    9a11        ..      LDR      r2,[sp,#0x44]
        0x00002c62:    2100        .!      MOVS     r1,#0
        0x00002c64:    9812        ..      LDR      r0,[sp,#0x48]
        0x00002c66:    9215        ..      STR      r2,[sp,#0x54]
        0x00002c68:    9100        ..      STR      r1,[sp,#0]
        0x00002c6a:    9701        ..      STR      r7,[sp,#4]
        0x00002c6c:    0721        !.      LSLS     r1,r4,#28
        0x00002c6e:    d40c        ..      BMI      0x2c8a ; _printf_core + 1386
        0x00002c70:    9905        ..      LDR      r1,[sp,#0x14]
        0x00002c72:    42b9        .B      CMP      r1,r7
        0x00002c74:    db01        ..      BLT      0x2c7a ; _printf_core + 1370
        0x00002c76:    9901        ..      LDR      r1,[sp,#4]
        0x00002c78:    e000        ..      B        0x2c7c ; _printf_core + 1372
        0x00002c7a:    9101        ..      STR      r1,[sp,#4]
        0x00002c7c:    2901        .)      CMP      r1,#1
        0x00002c7e:    dd04        ..      BLE      0x2c8a ; _printf_core + 1386
        0x00002c80:    9a15        ..      LDR      r2,[sp,#0x54]
        0x00002c82:    1e49        I.      SUBS     r1,r1,#1
        0x00002c84:    5c51        Q\      LDRB     r1,[r2,r1]
        0x00002c86:    2930        0)      CMP      r1,#0x30
        0x00002c88:    d006        ..      BEQ      0x2c98 ; _printf_core + 1400
        0x00002c8a:    42b8        .B      CMP      r0,r7
        0x00002c8c:    da01        ..      BGE      0x2c92 ; _printf_core + 1394
        0x00002c8e:    1d01        ..      ADDS     r1,r0,#4
        0x00002c90:    da05        ..      BGE      0x2c9e ; _printf_core + 1406
        0x00002c92:    2101        .!      MOVS     r1,#1
        0x00002c94:    9102        ..      STR      r1,[sp,#8]
        0x00002c96:    e015        ..      B        0x2cc4 ; _printf_core + 1444
        0x00002c98:    9901        ..      LDR      r1,[sp,#4]
        0x00002c9a:    1e49        I.      SUBS     r1,r1,#1
        0x00002c9c:    e7ed        ..      B        0x2c7a ; _printf_core + 1370
        0x00002c9e:    2800        .(      CMP      r0,#0
        0x00002ca0:    dc05        ..      BGT      0x2cae ; _printf_core + 1422
        0x00002ca2:    9900        ..      LDR      r1,[sp,#0]
        0x00002ca4:    1841        A.      ADDS     r1,r0,r1
        0x00002ca6:    9100        ..      STR      r1,[sp,#0]
        0x00002ca8:    9901        ..      LDR      r1,[sp,#4]
        0x00002caa:    1a09        ..      SUBS     r1,r1,r0
        0x00002cac:    e003        ..      B        0x2cb6 ; _printf_core + 1430
        0x00002cae:    9a01        ..      LDR      r2,[sp,#4]
        0x00002cb0:    1c41        A.      ADDS     r1,r0,#1
        0x00002cb2:    4291        .B      CMP      r1,r2
        0x00002cb4:    dd00        ..      BLE      0x2cb8 ; _printf_core + 1432
        0x00002cb6:    9101        ..      STR      r1,[sp,#4]
        0x00002cb8:    9900        ..      LDR      r1,[sp,#0]
        0x00002cba:    1a40        @.      SUBS     r0,r0,r1
        0x00002cbc:    1c40        @.      ADDS     r0,r0,#1
        0x00002cbe:    9002        ..      STR      r0,[sp,#8]
        0x00002cc0:    2001        .       MOVS     r0,#1
        0x00002cc2:    07c0        ..      LSLS     r0,r0,#31
        0x00002cc4:    9003        ..      STR      r0,[sp,#0xc]
        0x00002cc6:    0720         .      LSLS     r0,r4,#28
        0x00002cc8:    d406        ..      BMI      0x2cd8 ; _printf_core + 1464
        0x00002cca:    9902        ..      LDR      r1,[sp,#8]
        0x00002ccc:    9801        ..      LDR      r0,[sp,#4]
        0x00002cce:    4281        .B      CMP      r1,r0
        0x00002cd0:    db02        ..      BLT      0x2cd8 ; _printf_core + 1464
        0x00002cd2:    2000        .       MOVS     r0,#0
        0x00002cd4:    43c0        .C      MVNS     r0,r0
        0x00002cd6:    9002        ..      STR      r0,[sp,#8]
        0x00002cd8:    2000        .       MOVS     r0,#0
        0x00002cda:    4669        iF      MOV      r1,sp
        0x00002cdc:    77c8        .w      STRB     r0,[r1,#0x1f]
        0x00002cde:    af07        ..      ADD      r7,sp,#0x1c
        0x00002ce0:    2101        .!      MOVS     r1,#1
        0x00002ce2:    9803        ..      LDR      r0,[sp,#0xc]
        0x00002ce4:    3703        .7      ADDS     r7,#3
        0x00002ce6:    07c9        ..      LSLS     r1,r1,#31
        0x00002ce8:    4288        .B      CMP      r0,r1
        0x00002cea:    d024        $.      BEQ      0x2d36 ; _printf_core + 1558
        0x00002cec:    2002        .       MOVS     r0,#2
        0x00002cee:    9011        ..      STR      r0,[sp,#0x44]
        0x00002cf0:    202b        +       MOVS     r0,#0x2b
        0x00002cf2:    9012        ..      STR      r0,[sp,#0x48]
        0x00002cf4:    9803        ..      LDR      r0,[sp,#0xc]
        0x00002cf6:    2800        .(      CMP      r0,#0
        0x00002cf8:    da0c        ..      BGE      0x2d14 ; _printf_core + 1524
        0x00002cfa:    4240        @B      RSBS     r0,r0,#0
        0x00002cfc:    9003        ..      STR      r0,[sp,#0xc]
        0x00002cfe:    202d        -       MOVS     r0,#0x2d
        0x00002d00:    9012        ..      STR      r0,[sp,#0x48]
        0x00002d02:    e007        ..      B        0x2d14 ; _printf_core + 1524
        0x00002d04:    210a        .!      MOVS     r1,#0xa
        0x00002d06:    9803        ..      LDR      r0,[sp,#0xc]
        0x00002d08:    f7fdfc70    ..p.    BL       __aeabi_uidiv$div0 ; 0x5ec
        0x00002d0c:    3130        01      ADDS     r1,r1,#0x30
        0x00002d0e:    1e7f        ..      SUBS     r7,r7,#1
        0x00002d10:    9003        ..      STR      r0,[sp,#0xc]
        0x00002d12:    7039        9p      STRB     r1,[r7,#0]
        0x00002d14:    9911        ..      LDR      r1,[sp,#0x44]
        0x00002d16:    1e48        H.      SUBS     r0,r1,#1
        0x00002d18:    9011        ..      STR      r0,[sp,#0x44]
        0x00002d1a:    2900        .)      CMP      r1,#0
        0x00002d1c:    dcf2        ..      BGT      0x2d04 ; _printf_core + 1508
        0x00002d1e:    9803        ..      LDR      r0,[sp,#0xc]
        0x00002d20:    2800        .(      CMP      r0,#0
        0x00002d22:    d1ef        ..      BNE      0x2d04 ; _printf_core + 1508
        0x00002d24:    1e79        y.      SUBS     r1,r7,#1
        0x00002d26:    9812        ..      LDR      r0,[sp,#0x48]
        0x00002d28:    7008        .p      STRB     r0,[r1,#0]
        0x00002d2a:    7830        0x      LDRB     r0,[r6,#0]
        0x00002d2c:    2120         !      MOVS     r1,#0x20
        0x00002d2e:    4008        .@      ANDS     r0,r0,r1
        0x00002d30:    3045        E0      ADDS     r0,r0,#0x45
        0x00002d32:    1ebf        ..      SUBS     r7,r7,#2
        0x00002d34:    7038        8p      STRB     r0,[r7,#0]
        0x00002d36:    a806        ..      ADD      r0,sp,#0x18
        0x00002d38:    1bc0        ..      SUBS     r0,r0,r7
        0x00002d3a:    1dc0        ..      ADDS     r0,r0,#7
        0x00002d3c:    9003        ..      STR      r0,[sp,#0xc]
        0x00002d3e:    9810        ..      LDR      r0,[sp,#0x40]
        0x00002d40:    7800        .x      LDRB     r0,[r0,#0]
        0x00002d42:    2800        .(      CMP      r0,#0
        0x00002d44:    d000        ..      BEQ      0x2d48 ; _printf_core + 1576
        0x00002d46:    2001        .       MOVS     r0,#1
        0x00002d48:    9901        ..      LDR      r1,[sp,#4]
        0x00002d4a:    1841        A.      ADDS     r1,r0,r1
        0x00002d4c:    9802        ..      LDR      r0,[sp,#8]
        0x00002d4e:    17c0        ..      ASRS     r0,r0,#31
        0x00002d50:    1809        ..      ADDS     r1,r1,r0
        0x00002d52:    9803        ..      LDR      r0,[sp,#0xc]
        0x00002d54:    1809        ..      ADDS     r1,r1,r0
        0x00002d56:    9804        ..      LDR      r0,[sp,#0x10]
        0x00002d58:    1a40        @.      SUBS     r0,r0,r1
        0x00002d5a:    1e40        @.      SUBS     r0,r0,#1
        0x00002d5c:    9004        ..      STR      r0,[sp,#0x10]
        0x00002d5e:    03e0        ..      LSLS     r0,r4,#15
        0x00002d60:    d406        ..      BMI      0x2d70 ; _printf_core + 1616
        0x00002d62:    4621        !F      MOV      r1,r4
        0x00002d64:    9b1a        ..      LDR      r3,[sp,#0x68]
        0x00002d66:    9a19        ..      LDR      r2,[sp,#0x64]
        0x00002d68:    9804        ..      LDR      r0,[sp,#0x10]
        0x00002d6a:    f000f85f    .._.    BL       _printf_pre_padding ; 0x2e2c
        0x00002d6e:    1945        E.      ADDS     r5,r0,r5
        0x00002d70:    9810        ..      LDR      r0,[sp,#0x40]
        0x00002d72:    7800        .x      LDRB     r0,[r0,#0]
        0x00002d74:    2800        .(      CMP      r0,#0
        0x00002d76:    d003        ..      BEQ      0x2d80 ; _printf_core + 1632
        0x00002d78:    9a1a        ..      LDR      r2,[sp,#0x68]
        0x00002d7a:    9919        ..      LDR      r1,[sp,#0x64]
        0x00002d7c:    4790        .G      BLX      r2
        0x00002d7e:    1c6d        m.      ADDS     r5,r5,#1
        0x00002d80:    03e0        ..      LSLS     r0,r4,#15
        0x00002d82:    d524        $.      BPL      0x2dce ; _printf_core + 1710
        0x00002d84:    4621        !F      MOV      r1,r4
        0x00002d86:    9b1a        ..      LDR      r3,[sp,#0x68]
        0x00002d88:    9a19        ..      LDR      r2,[sp,#0x64]
        0x00002d8a:    9804        ..      LDR      r0,[sp,#0x10]
        0x00002d8c:    f000f84e    ..N.    BL       _printf_pre_padding ; 0x2e2c
        0x00002d90:    1945        E.      ADDS     r5,r0,r5
        0x00002d92:    e01c        ..      B        0x2dce ; _printf_core + 1710
        0x00002d94:    9800        ..      LDR      r0,[sp,#0]
        0x00002d96:    2800        .(      CMP      r0,#0
        0x00002d98:    db07        ..      BLT      0x2daa ; _printf_core + 1674
        0x00002d9a:    9900        ..      LDR      r1,[sp,#0]
        0x00002d9c:    9805        ..      LDR      r0,[sp,#0x14]
        0x00002d9e:    4288        .B      CMP      r0,r1
        0x00002da0:    dd03        ..      BLE      0x2daa ; _printf_core + 1674
        0x00002da2:    9815        ..      LDR      r0,[sp,#0x54]
        0x00002da4:    5c40        @\      LDRB     r0,[r0,r1]
        0x00002da6:    9919        ..      LDR      r1,[sp,#0x64]
        0x00002da8:    e001        ..      B        0x2dae ; _printf_core + 1678
        0x00002daa:    9919        ..      LDR      r1,[sp,#0x64]
        0x00002dac:    2030        0       MOVS     r0,#0x30
        0x00002dae:    9a1a        ..      LDR      r2,[sp,#0x68]
        0x00002db0:    4790        .G      BLX      r2
        0x00002db2:    9800        ..      LDR      r0,[sp,#0]
        0x00002db4:    1c6d        m.      ADDS     r5,r5,#1
        0x00002db6:    1c40        @.      ADDS     r0,r0,#1
        0x00002db8:    9000        ..      STR      r0,[sp,#0]
        0x00002dba:    9802        ..      LDR      r0,[sp,#8]
        0x00002dbc:    1e40        @.      SUBS     r0,r0,#1
        0x00002dbe:    9002        ..      STR      r0,[sp,#8]
        0x00002dc0:    2800        .(      CMP      r0,#0
        0x00002dc2:    d104        ..      BNE      0x2dce ; _printf_core + 1710
        0x00002dc4:    9a1a        ..      LDR      r2,[sp,#0x68]
        0x00002dc6:    202e        .       MOVS     r0,#0x2e
        0x00002dc8:    9919        ..      LDR      r1,[sp,#0x64]
        0x00002dca:    4790        .G      BLX      r2
        0x00002dcc:    1c6d        m.      ADDS     r5,r5,#1
        0x00002dce:    9901        ..      LDR      r1,[sp,#4]
        0x00002dd0:    1e48        H.      SUBS     r0,r1,#1
        0x00002dd2:    9001        ..      STR      r0,[sp,#4]
        0x00002dd4:    2900        .)      CMP      r1,#0
        0x00002dd6:    dcdd        ..      BGT      0x2d94 ; _printf_core + 1652
        0x00002dd8:    e005        ..      B        0x2de6 ; _printf_core + 1734
        0x00002dda:    7838        8x      LDRB     r0,[r7,#0]
        0x00002ddc:    9a1a        ..      LDR      r2,[sp,#0x68]
        0x00002dde:    1c7f        ..      ADDS     r7,r7,#1
        0x00002de0:    9919        ..      LDR      r1,[sp,#0x64]
        0x00002de2:    4790        .G      BLX      r2
        0x00002de4:    1c6d        m.      ADDS     r5,r5,#1
        0x00002de6:    9903        ..      LDR      r1,[sp,#0xc]
        0x00002de8:    1e48        H.      SUBS     r0,r1,#1
        0x00002dea:    9003        ..      STR      r0,[sp,#0xc]
        0x00002dec:    2900        .)      CMP      r1,#0
        0x00002dee:    dcf4        ..      BGT      0x2dda ; _printf_core + 1722
        0x00002df0:    4621        !F      MOV      r1,r4
        0x00002df2:    9b1a        ..      LDR      r3,[sp,#0x68]
        0x00002df4:    9a19        ..      LDR      r2,[sp,#0x64]
        0x00002df6:    9804        ..      LDR      r0,[sp,#0x10]
        0x00002df8:    e6ac        ..      B        0x2b54 ; _printf_core + 1076
    $d
        0x00002dfa:    0000        ..      DCW    0
        0x00002dfc:    0000002d    -...    DCD    45
        0x00002e00:    0000002b    +...    DCD    43
        0x00002e04:    00000020     ...    DCD    32
        0x00002e08:    00000000    ....    DCD    0
    $t
    i._printf_post_padding
    _printf_post_padding
        0x00002e0c:    b5f8        ..      PUSH     {r3-r7,lr}
        0x00002e0e:    4604        .F      MOV      r4,r0
        0x00002e10:    2500        .%      MOVS     r5,#0
        0x00002e12:    461e        .F      MOV      r6,r3
        0x00002e14:    4617        .F      MOV      r7,r2
        0x00002e16:    0488        ..      LSLS     r0,r1,#18
        0x00002e18:    d404        ..      BMI      0x2e24 ; _printf_post_padding + 24
        0x00002e1a:    e005        ..      B        0x2e28 ; _printf_post_padding + 28
        0x00002e1c:    4639        9F      MOV      r1,r7
        0x00002e1e:    2020                MOVS     r0,#0x20
        0x00002e20:    47b0        .G      BLX      r6
        0x00002e22:    1c6d        m.      ADDS     r5,r5,#1
        0x00002e24:    1e64        d.      SUBS     r4,r4,#1
        0x00002e26:    d5f9        ..      BPL      0x2e1c ; _printf_post_padding + 16
        0x00002e28:    4628        (F      MOV      r0,r5
        0x00002e2a:    bdf8        ..      POP      {r3-r7,pc}
    i._printf_pre_padding
    _printf_pre_padding
        0x00002e2c:    b5ff        ..      PUSH     {r0-r7,lr}
        0x00002e2e:    4604        .F      MOV      r4,r0
        0x00002e30:    2500        .%      MOVS     r5,#0
        0x00002e32:    b081        ..      SUB      sp,sp,#4
        0x00002e34:    461e        .F      MOV      r6,r3
        0x00002e36:    03c8        ..      LSLS     r0,r1,#15
        0x00002e38:    d501        ..      BPL      0x2e3e ; _printf_pre_padding + 18
        0x00002e3a:    2730        0'      MOVS     r7,#0x30
        0x00002e3c:    e000        ..      B        0x2e40 ; _printf_pre_padding + 20
        0x00002e3e:    2720         '      MOVS     r7,#0x20
        0x00002e40:    0488        ..      LSLS     r0,r1,#18
        0x00002e42:    d504        ..      BPL      0x2e4e ; _printf_pre_padding + 34
        0x00002e44:    e005        ..      B        0x2e52 ; _printf_pre_padding + 38
        0x00002e46:    4638        8F      MOV      r0,r7
        0x00002e48:    9903        ..      LDR      r1,[sp,#0xc]
        0x00002e4a:    47b0        .G      BLX      r6
        0x00002e4c:    1c6d        m.      ADDS     r5,r5,#1
        0x00002e4e:    1e64        d.      SUBS     r4,r4,#1
        0x00002e50:    d5f9        ..      BPL      0x2e46 ; _printf_pre_padding + 26
        0x00002e52:    4628        (F      MOV      r0,r5
        0x00002e54:    b005        ..      ADD      sp,sp,#0x14
        0x00002e56:    bdf0        ..      POP      {r4-r7,pc}
    $d.realdata
        0x00002e58:    00000000    ....    DCD    0
        0x00002e5c:    00000000    ....    DCD    0
        0x00002e60:    00000000    ....    DCD    0
        0x00002e64:    016e3600    .6n.    DCD    24000000
        0x00002e68:    00000000    ....    DCD    0
        0x00002e6c:    00000000    ....    DCD    0
        0x00002e70:    00000000    ....    DCD    0
        0x00002e74:    00000000    ....    DCD    0
        0x00002e78:    00000000    ....    DCD    0
        0x00002e7c:    00002710    .'..    DCD    10000
        0x00002e80:    016e3600    .6n.    DCD    24000000
        0x00002e84:    00000000    ....    DCD    0
        0x00002e88:    00000000    ....    DCD    0
    gau32ClkSrcTbl
        0x00002e8c:    00000000    ....    DCD    0
        0x00002e90:    00000000    ....    DCD    0
        0x00002e94:    00000000    ....    DCD    0
        0x00002e98:    00002710    .'..    DCD    10000
        0x00002e9c:    00000000    ....    DCD    0
        0x00002ea0:    016e3600    .6n.    DCD    24000000
        0x00002ea4:    00000000    ....    DCD    0
        0x00002ea8:    00000000    ....    DCD    0
        0x00002eac:    61482020      Ha    DCD    1632116768
        0x00002eb0:    61466472    rdFa    DCD    1632003186
        0x00002eb4:    21746c75    ult!    DCD    561278069
        0x00002eb8:    35000a0a    ...5    DCD    889195018
        0x00002ebc:    73795329    )Sys    DCD    1937330985
        0x00002ec0:    206d6574    tem     DCD    544040308
        0x00002ec4:    65736552    Rese    DCD    1702061394
        0x00002ec8:    6c462074    t Fl    DCD    1816535156
        0x00002ecc:    0d206761    ag .    DCD    220227425
        0x00002ed0:    7325000a    ..%s    DCD    1931804682
        0x00002ed4:    000a0d20     ...    DCD    658720
        0x00002ed8:    65522936    6)Re    DCD    1699883318
        0x00002edc:    76726573    serv    DCD    1987208563
        0x00002ee0:    0d2e6465    ed..    DCD    221144165
        0x00002ee4:    6552000a    ..Re    DCD    1699872778
        0x00002ee8:    20746573    set     DCD    544499059
        0x00002eec:    72756f53    Sour    DCD    1920298835
        0x00002ef0:    3c206563    ce <    DCD    1008756067
        0x00002ef4:    30257830    0x%0    DCD    807761968
        0x00002ef8:    0d3e5838    8X>.    DCD    222189624
        0x00002efc:    6f70000a    ..po    DCD    1869611018
        0x00002f00:    20726577    wer     DCD    544367991
        0x00002f04:    66206e6f    on f    DCD    1713401455
        0x00002f08:    206d6f72    rom     DCD    544042866
        0x00002f0c:    0d524f50    POR.    DCD    223498064
        0x00002f10:    7325000a    ..%s    DCD    1931804682
        0x00002f14:    69202c20     , i    DCD    1763716128
        0x00002f18:    5f72636e    ncr_    DCD    1601332078
        0x00002f1c:    65736162    base    DCD    1702060386
        0x00002f20:    30203a20     : 0    DCD    807418400
        0x00002f24:    58322578    x%2X    DCD    1479681400
        0x00002f28:    49000a0d    ...I    DCD    1224739341
        0x00002f2c:    5f74696e    nit_    DCD    1601464686
        0x00002f30:    52504545    EEPR    DCD    1380992325
        0x00002f34:    66204d4f    OM f    DCD    1713392975
        0x00002f38:    656c6961    aile    DCD    1701603681
        0x00002f3c:    30203a64    d: 0    DCD    807418468
        0x00002f40:    38302578    x%08    DCD    942679416
        0x00002f44:    0a0d586c    lX..    DCD    168646764
        0x00002f48:    65727000    .pre    DCD    1701998592
        0x00002f4c:    3a207373    ss :    DCD    975205235
        0x00002f50:    0d632520     %c.    DCD    224601376
        0x00002f54:    6174000a    ..ta    DCD    1634992138
        0x00002f58:    20316b73    sk1     DCD    540109683
        0x00002f5c:    3d206469    id =    DCD    1025533033
        0x00002f60:    0d642520     %d.    DCD    224666912
        0x00002f64:    6174000a    ..ta    DCD    1634992138
        0x00002f68:    20326b73    sk2     DCD    540175219
        0x00002f6c:    3d206469    id =    DCD    1025533033
        0x00002f70:    0d642520     %d.    DCD    224666912
        0x00002f74:    6174000a    ..ta    DCD    1634992138
        0x00002f78:    20336b73    sk3     DCD    540240755
        0x00002f7c:    3d206469    id =    DCD    1025533033
        0x00002f80:    0d642520     %d.    DCD    224666912
        0x00002f84:    4c43000a    ..CL    DCD    1279459338
        0x00002f88:    65475f4b    K_Ge    DCD    1699176267
        0x00002f8c:    4c435074    tPCL    DCD    1279479924
        0x00002f90:    7246304b    K0Fr    DCD    1917202507
        0x00002f94:    3a207165    eq :    DCD    975204709
        0x00002f98:    64382520     %8d    DCD    1681401120
        0x00002f9c:    43000a0d    ...C    DCD    1124076045
        0x00002fa0:    475f4b4c    LK_G    DCD    1197427532
        0x00002fa4:    43507465    etPC    DCD    1129346149
        0x00002fa8:    46314b4c    LK1F    DCD    1177635660
        0x00002fac:    20716572    req     DCD    544302450
        0x00002fb0:    3825203a    : %8    DCD    941957178
        0x00002fb4:    000a0d64    d...    DCD    658788
        0x00002fb8:    4c430a0d    ..CL    DCD    1279461901
        0x00002fbc:    65475f4b    K_Ge    DCD    1699176267
        0x00002fc0:    4c434874    tHCL    DCD    1279477876
        0x00002fc4:    6572464b    KFre    DCD    1701987915
        0x00002fc8:    203a2071    q :     DCD    540680305
        0x00002fcc:    0d643825    %8d.    DCD    224671781
        0x00002fd0:    4c43000a    ..CL    DCD    1279459338
        0x00002fd4:    65475f4b    K_Ge    DCD    1699176267
        0x00002fd8:    55504374    tCPU    DCD    1431323508
        0x00002fdc:    71657246    Freq    DCD    1902473798
        0x00002fe0:    25203a20     : %    DCD    622869024
        0x00002fe4:    0a0d6438    8d..    DCD    168649784
        0x00002fe8:    766e6900    .inv    DCD    1986947328
        0x00002fec:    64696c61    alid    DCD    1684630625
        0x00002ff0:    6d6f6320     com    DCD    1836016416
        0x00002ff4:    646e616d    mand    DCD    1684955501
        0x00002ff8:    70000a0d    ...p    DCD    1879050765
        0x00002ffc:    7265776f    ower    DCD    1919252335
        0x00003000:    206e6f20     on     DCD    544108320
        0x00003004:    6d6f7266    from    DCD    1836020326
        0x00003008:    686e7520     unh    DCD    1752069408
        0x0000300c:    6c646e61    andl    DCD    1818521185
        0x00003010:    65722065    e re    DCD    1701978213
        0x00003014:    20746573    set     DCD    544499059
        0x00003018:    72756f73    sour    DCD    1920298867
        0x0000301c:    0a0d6563    ce..    DCD    168650083
        0x00003020:    42293400    .4)B    DCD    1109996544
        0x00003024:    5220444f    OD R    DCD    1377846351
        0x00003028:    74657365    eset    DCD    1952805733
        0x0000302c:    616c4620     Fla    DCD    1634485792
        0x00003030:    000a0d67    g...    DCD    658791
        0x00003034:    4f502930    0)PO    DCD    1330653488
        0x00003038:    65522052    R Re    DCD    1699881042
        0x0000303c:    20746573    set     DCD    544499059
        0x00003040:    67616c46    Flag    DCD    1734437958
        0x00003044:    33000a0d    ...3    DCD    855640589
        0x00003048:    52564c29    )LVR    DCD    1381387305
        0x0000304c:    73655220     Res    DCD    1936020000
        0x00003050:    46207465    et F    DCD    1176532069
        0x00003054:    0d67616c    lag.    DCD    224878956
        0x00003058:    2932000a    ..2)    DCD    691142666
        0x0000305c:    20544457    WDT     DCD    542393431
        0x00003060:    65736552    Rese    DCD    1702061394
        0x00003064:    6c462074    t Fl    DCD    1816535156
        0x00003068:    0a0d6761    ag..    DCD    168650593
        0x0000306c:    43293700    .7)C    DCD    1126774528
        0x00003070:    52205550    PU R    DCD    1377850704
        0x00003074:    74657365    eset    DCD    1952805733
        0x00003078:    616c4620     Fla    DCD    1634485792
        0x0000307c:    000a0d67    g...    DCD    658791
        0x00003080:    524e2931    1)NR    DCD    1380854065
        0x00003084:    54455345    ESET    DCD    1413829445
        0x00003088:    6e695020     Pin    DCD    1852395552
        0x0000308c:    73655220     Res    DCD    1936020000
        0x00003090:    46207465    et F    DCD    1176532069
        0x00003094:    0d67616c    lag.    DCD    224878956
        0x00003098:    2938000a    ..8)    DCD    691535882
        0x0000309c:    20555043    CPU     DCD    542462019
        0x000030a0:    6b636f4c    Lock    DCD    1801678668
        0x000030a4:    52207075    up R    DCD    1377857653
        0x000030a8:    74657365    eset    DCD    1952805733
        0x000030ac:    616c4620     Fla    DCD    1634485792
        0x000030b0:    000a0d67    g...    DCD    658791
        0x000030b4:    65776f70    powe    DCD    1702326128
        0x000030b8:    6e6f2072    r on    DCD    1852776562
        0x000030bc:    6f726620     fro    DCD    1869768224
        0x000030c0:    526e206d    m nR    DCD    1382948973
        0x000030c4:    54455345    ESET    DCD    1413829445
        0x000030c8:    6e697020     pin    DCD    1852403744
        0x000030cc:    25000a0d    ...%    DCD    620759565
        0x000030d0:    000a0d73    s...    DCD    658803
        0x000030d4:    65776f70    powe    DCD    1702326128
        0x000030d8:    6e6f2072    r on    DCD    1852776562
        0x000030dc:    6f726620     fro    DCD    1869768224
        0x000030e0:    4f42206d    m BO    DCD    1329733741
        0x000030e4:    65522044    D Re    DCD    1699881028
        0x000030e8:    0d746573    set.    DCD    225731955
        0x000030ec:    6f70000a    ..po    DCD    1869611018
        0x000030f0:    20726577    wer     DCD    544367991
        0x000030f4:    66206e6f    on f    DCD    1713401455
        0x000030f8:    206d6f72    rom     DCD    544042866
        0x000030fc:    2052564c    LVR     DCD    542266956
        0x00003100:    65736552    Rese    DCD    1702061394
        0x00003104:    000a0d74    t...    DCD    658804
        0x00003108:    65776f70    powe    DCD    1702326128
        0x0000310c:    6e6f2072    r on    DCD    1852776562
        0x00003110:    6f726620     fro    DCD    1869768224
        0x00003114:    4457206d    m WD    DCD    1146560621
        0x00003118:    65522054    T Re    DCD    1699881044
        0x0000311c:    0d746573    set.    DCD    225731955
        0x00003120:    6f70000a    ..po    DCD    1869611018
        0x00003124:    20726577    wer     DCD    544367991
        0x00003128:    66206e6f    on f    DCD    1713401455
        0x0000312c:    206d6f72    rom     DCD    544042866
        0x00003130:    74737953    Syst    DCD    1953724755
        0x00003134:    52206d65    em R    DCD    1377856869
        0x00003138:    74657365    eset    DCD    1952805733
        0x0000313c:    70000a0d    ...p    DCD    1879050765
        0x00003140:    7265776f    ower    DCD    1919252335
        0x00003144:    206e6f20     on     DCD    544108320
        0x00003148:    6d6f7266    from    DCD    1836020326
        0x0000314c:    55504320     CPU    DCD    1431323424
        0x00003150:    636f4c20     Loc    DCD    1668238368
        0x00003154:    2070756b    kup     DCD    544241003
        0x00003158:    65736552    Rese    DCD    1702061394
        0x0000315c:    000a0d74    t...    DCD    658804
        0x00003160:    65776f70    powe    DCD    1702326128
        0x00003164:    6e6f2072    r on    DCD    1852776562
        0x00003168:    6f726620     fro    DCD    1869768224
        0x0000316c:    5043206d    m CP    DCD    1346576493
        0x00003170:    65722055    U re    DCD    1701978197
        0x00003174:    0d746573    set.    DCD    225731955
        0x00003178:    6553000a    ..Se    DCD    1699938314
        0x0000317c:    79732074    t sy    DCD    2037588084
        0x00003180:    6d657473    stem    DCD    1835365491
        0x00003184:    63697420     tic    DCD    1667855392
        0x00003188:    7265206b    k er    DCD    1919230059
        0x0000318c:    21726f72    ror!    DCD    561147762
        0x00003190:    30000a21    !..0    DCD    805308961
        0x00003194:    58322578    x%2X    DCD    1479681400
        0x00003198:    00202c20     , .    DCD    2108448
        0x0000319c:    6c756d45    Emul    DCD    1819635013
        0x000031a0:    5f657461    ate_    DCD    1600484449
        0x000031a4:    52504545    EEPR    DCD    1380992325
        0x000031a8:    525f4d4f    OM_R    DCD    1381977423
        0x000031ac:    54646165    eadT    DCD    1415864677
        0x000031b0:    00747365    est.    DCD    7631717
        0x000031b4:    6c756d45    Emul    DCD    1819635013
        0x000031b8:    5f657461    ate_    DCD    1600484449
        0x000031bc:    52504545    EEPR    DCD    1380992325
        0x000031c0:    455f4d4f    OM_E    DCD    1163873615
        0x000031c4:    65736172    rase    DCD    1702060402
        0x000031c8:    74736554    Test    DCD    1953719636
        0x000031cc:    756d4500    .Emu    DCD    1970095360
        0x000031d0:    6574616c    late    DCD    1702125932
        0x000031d4:    5045455f    _EEP    DCD    1346717023
        0x000031d8:    5f4d4f52    ROM_    DCD    1598902098
        0x000031dc:    74697257    Writ    DCD    1953067607
        0x000031e0:    73655465    eTes    DCD    1936020581
        0x000031e4:    00000074    t...    DCD    116
    Region$$Table$$Base
        0x000031e8:    00003208    .2..    DCD    12808
        0x000031ec:    20000000    ...     DCD    536870912
        0x000031f0:    00000018    ....    DCD    24
        0x000031f4:    0000258e    .%..    DCD    9614
        0x000031f8:    00003220     2..    DCD    12832
        0x000031fc:    20000018    ...     DCD    536870936
        0x00003200:    00000640    @...    DCD    1600
        0x00003204:    0000259e    .%..    DCD    9630
    Region$$Table$$Limit

** Section #2 'ER_RW' (SHT_PROGBITS) [SHF_ALLOC + SHF_WRITE]
    Size   : 24 bytes (alignment 4)
    Address: 0x20000000


** Section #3 'ER_ZI' (SHT_NOBITS) [SHF_ALLOC + SHF_WRITE]
    Size   : 1600 bytes (alignment 8)
    Address: 0x20000018


** Section #4 '.debug_abbrev' (SHT_PROGBITS)
    Size   : 3675 bytes


** Section #5 '.debug_frame' (SHT_PROGBITS)
    Size   : 4692 bytes


** Section #6 '.debug_info' (SHT_PROGBITS)
    Size   : 18038 bytes


** Section #7 '.debug_line' (SHT_PROGBITS)
    Size   : 16403 bytes


** Section #8 '.debug_ranges' (SHT_PROGBITS)
    Size   : 1344 bytes


** Section #9 '.debug_str' (SHT_PROGBITS)
    Size   : 10877 bytes


** Section #10 '.symtab' (SHT_SYMTAB)
    Size   : 8800 bytes (alignment 4)
    String table #11 '.strtab'
    Last local symbol no. 382


** Section #11 '.strtab' (SHT_STRTAB)
    Size   : 6076 bytes


** Section #12 '.note' (SHT_NOTE)
    Size   : 28 bytes (alignment 4)


** Section #13 '.comment' (SHT_PROGBITS)
    Size   : 1344 bytes


** Section #14 '.shstrtab' (SHT_STRTAB)
    Size   : 136 bytes


