	.text
	.syntax unified
	.eabi_attribute	67, "2.09"	@ Tag_conformance
	.cpu	cortex-m23
	.eabi_attribute	6, 16	@ Tag_CPU_arch
	.eabi_attribute	7, 77	@ Tag_CPU_arch_profile
	.eabi_attribute	8, 0	@ Tag_ARM_ISA_use
	.eabi_attribute	9, 3	@ Tag_THUMB_ISA_use
	.eabi_attribute	34, 0	@ Tag_CPU_unaligned_access
	.eabi_attribute	17, 1	@ Tag_ABI_PCS_GOT_use
	.eabi_attribute	20, 2	@ Tag_ABI_FP_denormal
	.eabi_attribute	21, 0	@ Tag_ABI_FP_exceptions
	.eabi_attribute	23, 1	@ Tag_ABI_FP_number_model
	.eabi_attribute	24, 1	@ Tag_ABI_align_needed
	.eabi_attribute	25, 1	@ Tag_ABI_align_preserved
	.eabi_attribute	38, 1	@ Tag_ABI_FP_16bit_format
	.eabi_attribute	18, 2	@ Tag_ABI_PCS_wchar_t
	.eabi_attribute	26, 1	@ Tag_ABI_enum_size
	.eabi_attribute	14, 0	@ Tag_ABI_PCS_R9_use
	.file	"clk.c"
	.file	1 "C:\\Keil_v5\\ARM\\ARMCLANG\\bin\\..\\include" "stdint.h"
	.file	2 "D:\\SourceCode\\_Avery_M2003\\M2003BSP_FLASH_EMULATE_EEPROM\\SampleCode\\Template\\Keil" "../../../Library/StdDriver/src/clk.c"
	.file	3 "D:\\SourceCode\\_Avery_M2003\\M2003BSP_FLASH_EMULATE_EEPROM\\SampleCode\\Template\\Keil" "../../../Library/Device/Nuvoton/M2003/Include\\clk_reg.h"
	.file	4 "D:\\SourceCode\\_Avery_M2003\\M2003BSP_FLASH_EMULATE_EEPROM\\SampleCode\\Template\\Keil" "../../../Library/CMSIS/Core/Include\\core_cm23.h"
	.file	5 "D:\\SourceCode\\_Avery_M2003\\M2003BSP_FLASH_EMULATE_EEPROM\\SampleCode\\Template\\Keil" "../../../Library/Device/Nuvoton/M2003/Include\\fmc_reg.h"
	.file	6 "D:\\SourceCode\\_Avery_M2003\\M2003BSP_FLASH_EMULATE_EEPROM\\SampleCode\\Template\\Keil" "../../../Library/Device/Nuvoton/M2003/Include\\M2003.h"
	.section	.text.CLK_DisableCKO,"ax",%progbits
	.hidden	CLK_DisableCKO                  @ -- Begin function CLK_DisableCKO
	.globl	CLK_DisableCKO
	.p2align	2
	.type	CLK_DisableCKO,%function
	.code	16                              @ @CLK_DisableCKO
	.thumb_func
CLK_DisableCKO:
.Lfunc_begin0:
	.loc	2 33 0                          @ ../../../Library/StdDriver/src/clk.c:33:0
	.fnstart
	.cfi_sections .debug_frame
	.cfi_startproc
@ %bb.0:
	ldr	r1, __arm_cp.0_0
.Ltmp0:
	.loc	2 35 18 prologue_end            @ ../../../Library/StdDriver/src/clk.c:35:18
	ldr	r0, [r1]
	movs	r2, #64
	bics	r0, r2
	str	r0, [r1]
	.loc	2 36 1                          @ ../../../Library/StdDriver/src/clk.c:36:1
	bx	lr
.Ltmp1:
	.p2align	2
@ %bb.1:
	.loc	2 0 1 is_stmt 0                 @ ../../../Library/StdDriver/src/clk.c:0:1
__arm_cp.0_0:
	.long	1073742344                      @ 0x40000208
.Lcpi_end0:
	.size	__arm_cp.0_0, .Lcpi_end0-__arm_cp.0_0
.Lfunc_end0:
	.size	CLK_DisableCKO, .Lfunc_end0-CLK_DisableCKO
	.cfi_endproc
	.cantunwind
	.fnend
                                        @ -- End function
	.section	.text.CLK_EnableCKO,"ax",%progbits
	.hidden	CLK_EnableCKO                   @ -- Begin function CLK_EnableCKO
	.globl	CLK_EnableCKO
	.p2align	2
	.type	CLK_EnableCKO,%function
	.code	16                              @ @CLK_EnableCKO
	.thumb_func
CLK_EnableCKO:
.Lfunc_begin1:
	.loc	2 55 0 is_stmt 1                @ ../../../Library/StdDriver/src/clk.c:55:0
	.fnstart
	.cfi_startproc
@ %bb.0:
	.pad	#12
	sub	sp, #12
	.cfi_def_cfa_offset 12
	str	r0, [sp, #8]
	str	r1, [sp, #4]
	str	r2, [sp]
.Ltmp2:
	.loc	2 57 45 prologue_end            @ ../../../Library/StdDriver/src/clk.c:57:45
	ldr	r0, [sp, #4]
	.loc	2 57 58 is_stmt 0               @ ../../../Library/StdDriver/src/clk.c:57:58
	ldr	r1, [sp]
	.loc	2 57 73                         @ ../../../Library/StdDriver/src/clk.c:57:73
	lsls	r1, r1, #5
	.loc	2 57 43                         @ ../../../Library/StdDriver/src/clk.c:57:43
	orrs	r0, r1
	movs	r1, #16
	.loc	2 57 55                         @ ../../../Library/StdDriver/src/clk.c:57:55
	orrs	r0, r1
	ldr	r1, __arm_cp.1_0
	.loc	2 57 18                         @ ../../../Library/StdDriver/src/clk.c:57:18
	str	r0, [r1]
	ldr	r1, __arm_cp.1_1
	.loc	2 60 18 is_stmt 1               @ ../../../Library/StdDriver/src/clk.c:60:18
	ldr	r0, [r1]
	movs	r2, #64
	orrs	r0, r2
	str	r0, [r1]
	ldr	r1, __arm_cp.1_2
	.loc	2 63 26                         @ ../../../Library/StdDriver/src/clk.c:63:26
	ldr	r0, [r1]
	movs	r2, #3
	lsls	r2, r2, #28
	.loc	2 63 34 is_stmt 0               @ ../../../Library/StdDriver/src/clk.c:63:34
	bics	r0, r2
	.loc	2 63 67                         @ ../../../Library/StdDriver/src/clk.c:63:67
	ldr	r2, [sp, #8]
	.loc	2 63 64                         @ ../../../Library/StdDriver/src/clk.c:63:64
	orrs	r0, r2
	.loc	2 63 18                         @ ../../../Library/StdDriver/src/clk.c:63:18
	str	r0, [r1]
	.loc	2 64 1 epilogue_begin is_stmt 1 @ ../../../Library/StdDriver/src/clk.c:64:1
	add	sp, #12
	bx	lr
.Ltmp3:
	.p2align	2
@ %bb.1:
	.loc	2 0 1 is_stmt 0                 @ ../../../Library/StdDriver/src/clk.c:0:1
__arm_cp.1_0:
	.long	1073742432                      @ 0x40000260
.Lcpi_end1:
	.size	__arm_cp.1_0, .Lcpi_end1-__arm_cp.1_0
__arm_cp.1_1:
	.long	1073742344                      @ 0x40000208
.Lcpi_end2:
	.size	__arm_cp.1_1, .Lcpi_end2-__arm_cp.1_1
__arm_cp.1_2:
	.long	1073742356                      @ 0x40000214
.Lcpi_end3:
	.size	__arm_cp.1_2, .Lcpi_end3-__arm_cp.1_2
.Lfunc_end1:
	.size	CLK_EnableCKO, .Lfunc_end1-CLK_EnableCKO
	.cfi_endproc
	.cantunwind
	.fnend
                                        @ -- End function
	.section	.text.CLK_PowerDown,"ax",%progbits
	.hidden	CLK_PowerDown                   @ -- Begin function CLK_PowerDown
	.globl	CLK_PowerDown
	.p2align	2
	.type	CLK_PowerDown,%function
	.code	16                              @ @CLK_PowerDown
	.thumb_func
CLK_PowerDown:
.Lfunc_begin2:
	.loc	2 74 0 is_stmt 1                @ ../../../Library/StdDriver/src/clk.c:74:0
	.fnstart
	.cfi_startproc
@ %bb.0:
	.pad	#4
	sub	sp, #4
	.cfi_def_cfa_offset 4
	movs	r0, #0
.Ltmp4:
	.loc	2 75 23 prologue_end            @ ../../../Library/StdDriver/src/clk.c:75:23
	str	r0, [sp]
	ldr	r1, __arm_cp.2_0
	.loc	2 78 14                         @ ../../../Library/StdDriver/src/clk.c:78:14
	ldr	r0, [r1]
	movs	r2, #4
	orrs	r0, r2
	str	r0, [r1]
	ldr	r1, __arm_cp.2_1
	.loc	2 81 17                         @ ../../../Library/StdDriver/src/clk.c:81:17
	ldr	r0, [r1]
	movs	r2, #128
	orrs	r0, r2
	str	r0, [r1]
	ldr	r1, __arm_cp.2_2
	.loc	2 84 34                         @ ../../../Library/StdDriver/src/clk.c:84:34
	ldr	r0, [r1]
	movs	r2, #2
	.loc	2 84 39 is_stmt 0               @ ../../../Library/StdDriver/src/clk.c:84:39
	ands	r0, r2
	.loc	2 84 23                         @ ../../../Library/StdDriver/src/clk.c:84:23
	str	r0, [sp]
	.loc	2 87 19 is_stmt 1               @ ../../../Library/StdDriver/src/clk.c:87:19
	ldr	r0, [r1]
	bics	r0, r2
	str	r0, [r1]
	.loc	2 90 5                          @ ../../../Library/StdDriver/src/clk.c:90:5
	wfi
.Ltmp5:
	.loc	2 93 8                          @ ../../../Library/StdDriver/src/clk.c:93:8
	ldr	r0, [sp]
.Ltmp6:
	.loc	2 93 8 is_stmt 0                @ ../../../Library/StdDriver/src/clk.c:93:8
	cbz	r0, .LBB2_2
	b	.LBB2_1
.LBB2_1:
	.loc	2 0 8                           @ ../../../Library/StdDriver/src/clk.c:0:8
	ldr	r1, __arm_cp.2_2
.Ltmp7:
	.loc	2 93 41                         @ ../../../Library/StdDriver/src/clk.c:93:41
	ldr	r0, [r1]
	movs	r2, #2
	orrs	r0, r2
	str	r0, [r1]
	.loc	2 93 27                         @ ../../../Library/StdDriver/src/clk.c:93:27
	b	.LBB2_2
.Ltmp8:
.LBB2_2:
	.loc	2 94 1 epilogue_begin is_stmt 1 @ ../../../Library/StdDriver/src/clk.c:94:1
	add	sp, #4
	bx	lr
.Ltmp9:
	.p2align	2
@ %bb.3:
	.loc	2 0 1 is_stmt 0                 @ ../../../Library/StdDriver/src/clk.c:0:1
__arm_cp.2_0:
	.long	3758157072                      @ 0xe000ed10
.Lcpi_end4:
	.size	__arm_cp.2_0, .Lcpi_end4-__arm_cp.2_0
__arm_cp.2_1:
	.long	1073742336                      @ 0x40000200
.Lcpi_end5:
	.size	__arm_cp.2_1, .Lcpi_end5-__arm_cp.2_1
__arm_cp.2_2:
	.long	3758153744                      @ 0xe000e010
.Lcpi_end6:
	.size	__arm_cp.2_2, .Lcpi_end6-__arm_cp.2_2
.Lfunc_end2:
	.size	CLK_PowerDown, .Lfunc_end2-CLK_PowerDown
	.cfi_endproc
	.cantunwind
	.fnend
                                        @ -- End function
	.section	.text.CLK_Idle,"ax",%progbits
	.hidden	CLK_Idle                        @ -- Begin function CLK_Idle
	.globl	CLK_Idle
	.p2align	2
	.type	CLK_Idle,%function
	.code	16                              @ @CLK_Idle
	.thumb_func
CLK_Idle:
.Lfunc_begin3:
	.loc	2 105 0 is_stmt 1               @ ../../../Library/StdDriver/src/clk.c:105:0
	.fnstart
	.cfi_startproc
@ %bb.0:
	ldr	r1, __arm_cp.3_0
.Ltmp10:
	.loc	2 107 14 prologue_end           @ ../../../Library/StdDriver/src/clk.c:107:14
	ldr	r0, [r1]
	movs	r2, #4
	bics	r0, r2
	str	r0, [r1]
	ldr	r1, __arm_cp.3_1
	.loc	2 110 17                        @ ../../../Library/StdDriver/src/clk.c:110:17
	ldr	r0, [r1]
	movs	r2, #128
	bics	r0, r2
	str	r0, [r1]
	.loc	2 113 5                         @ ../../../Library/StdDriver/src/clk.c:113:5
	wfi
	.loc	2 114 1                         @ ../../../Library/StdDriver/src/clk.c:114:1
	bx	lr
.Ltmp11:
	.p2align	2
@ %bb.1:
	.loc	2 0 1 is_stmt 0                 @ ../../../Library/StdDriver/src/clk.c:0:1
__arm_cp.3_0:
	.long	3758157072                      @ 0xe000ed10
.Lcpi_end7:
	.size	__arm_cp.3_0, .Lcpi_end7-__arm_cp.3_0
__arm_cp.3_1:
	.long	1073742336                      @ 0x40000200
.Lcpi_end8:
	.size	__arm_cp.3_1, .Lcpi_end8-__arm_cp.3_1
.Lfunc_end3:
	.size	CLK_Idle, .Lfunc_end3-CLK_Idle
	.cfi_endproc
	.cantunwind
	.fnend
                                        @ -- End function
	.section	.text.CLK_GetHCLKFreq,"ax",%progbits
	.hidden	CLK_GetHCLKFreq                 @ -- Begin function CLK_GetHCLKFreq
	.globl	CLK_GetHCLKFreq
	.p2align	2
	.type	CLK_GetHCLKFreq,%function
	.code	16                              @ @CLK_GetHCLKFreq
	.thumb_func
CLK_GetHCLKFreq:
.Lfunc_begin4:
	.loc	2 124 0 is_stmt 1               @ ../../../Library/StdDriver/src/clk.c:124:0
	.fnstart
	.cfi_startproc
@ %bb.0:
	.save	{r7, lr}
	push	{r7, lr}
	.cfi_def_cfa_offset 8
	.cfi_offset lr, -4
	.cfi_offset r7, -8
.Ltmp12:
	.loc	2 125 5 prologue_end            @ ../../../Library/StdDriver/src/clk.c:125:5
	bl	SystemCoreClockUpdate
	.loc	2 126 12                        @ ../../../Library/StdDriver/src/clk.c:126:12
	ldr	r0, __arm_cp.4_0
	ldr	r0, [r0]
	.loc	2 126 5 epilogue_begin is_stmt 0 @ ../../../Library/StdDriver/src/clk.c:126:5
	pop	{r7, pc}
.Ltmp13:
	.p2align	2
@ %bb.1:
	.loc	2 0 5                           @ ../../../Library/StdDriver/src/clk.c:0:5
__arm_cp.4_0:
	.long	SystemCoreClock
.Lcpi_end9:
	.size	__arm_cp.4_0, .Lcpi_end9-__arm_cp.4_0
.Lfunc_end4:
	.size	CLK_GetHCLKFreq, .Lfunc_end4-CLK_GetHCLKFreq
	.cfi_endproc
	.cantunwind
	.fnend
                                        @ -- End function
	.section	.text.CLK_GetPCLK0Freq,"ax",%progbits
	.hidden	CLK_GetPCLK0Freq                @ -- Begin function CLK_GetPCLK0Freq
	.globl	CLK_GetPCLK0Freq
	.p2align	2
	.type	CLK_GetPCLK0Freq,%function
	.code	16                              @ @CLK_GetPCLK0Freq
	.thumb_func
CLK_GetPCLK0Freq:
.Lfunc_begin5:
	.loc	2 136 0 is_stmt 1               @ ../../../Library/StdDriver/src/clk.c:136:0
	.fnstart
	.cfi_startproc
@ %bb.0:
	.save	{r7, lr}
	push	{r7, lr}
	.cfi_def_cfa_offset 8
	.cfi_offset lr, -4
	.cfi_offset r7, -8
	.pad	#8
	sub	sp, #8
	.cfi_def_cfa_offset 16
.Ltmp14:
	.loc	2 139 5 prologue_end            @ ../../../Library/StdDriver/src/clk.c:139:5
	bl	SystemCoreClockUpdate
	ldr	r0, __arm_cp.5_0
	.loc	2 140 22                        @ ../../../Library/StdDriver/src/clk.c:140:22
	ldr	r0, [r0]
	movs	r1, #7
	.loc	2 140 30 is_stmt 0              @ ../../../Library/StdDriver/src/clk.c:140:30
	ands	r0, r1
	.loc	2 140 14                        @ ../../../Library/StdDriver/src/clk.c:140:14
	str	r0, [sp, #4]
	.loc	2 141 13 is_stmt 1              @ ../../../Library/StdDriver/src/clk.c:141:13
	ldr	r0, __arm_cp.5_1
	ldr	r0, [r0]
	.loc	2 141 32 is_stmt 0              @ ../../../Library/StdDriver/src/clk.c:141:32
	ldr	r1, [sp, #4]
	.loc	2 141 29                        @ ../../../Library/StdDriver/src/clk.c:141:29
	lsrs	r0, r1
	.loc	2 141 5 epilogue_begin          @ ../../../Library/StdDriver/src/clk.c:141:5
	add	sp, #8
	pop	{r7, pc}
.Ltmp15:
	.p2align	2
@ %bb.1:
	.loc	2 0 5                           @ ../../../Library/StdDriver/src/clk.c:0:5
__arm_cp.5_0:
	.long	1073742388                      @ 0x40000234
.Lcpi_end10:
	.size	__arm_cp.5_0, .Lcpi_end10-__arm_cp.5_0
__arm_cp.5_1:
	.long	SystemCoreClock
.Lcpi_end11:
	.size	__arm_cp.5_1, .Lcpi_end11-__arm_cp.5_1
.Lfunc_end5:
	.size	CLK_GetPCLK0Freq, .Lfunc_end5-CLK_GetPCLK0Freq
	.cfi_endproc
	.cantunwind
	.fnend
                                        @ -- End function
	.section	.text.CLK_GetPCLK1Freq,"ax",%progbits
	.hidden	CLK_GetPCLK1Freq                @ -- Begin function CLK_GetPCLK1Freq
	.globl	CLK_GetPCLK1Freq
	.p2align	2
	.type	CLK_GetPCLK1Freq,%function
	.code	16                              @ @CLK_GetPCLK1Freq
	.thumb_func
CLK_GetPCLK1Freq:
.Lfunc_begin6:
	.loc	2 151 0 is_stmt 1               @ ../../../Library/StdDriver/src/clk.c:151:0
	.fnstart
	.cfi_startproc
@ %bb.0:
	.save	{r7, lr}
	push	{r7, lr}
	.cfi_def_cfa_offset 8
	.cfi_offset lr, -4
	.cfi_offset r7, -8
	.pad	#8
	sub	sp, #8
	.cfi_def_cfa_offset 16
.Ltmp16:
	.loc	2 154 5 prologue_end            @ ../../../Library/StdDriver/src/clk.c:154:5
	bl	SystemCoreClockUpdate
	ldr	r0, __arm_cp.6_0
	.loc	2 155 22                        @ ../../../Library/StdDriver/src/clk.c:155:22
	ldr	r0, [r0]
	movs	r1, #112
	.loc	2 155 30 is_stmt 0              @ ../../../Library/StdDriver/src/clk.c:155:30
	ands	r0, r1
	.loc	2 155 57                        @ ../../../Library/StdDriver/src/clk.c:155:57
	lsrs	r0, r0, #4
	.loc	2 155 14                        @ ../../../Library/StdDriver/src/clk.c:155:14
	str	r0, [sp, #4]
	.loc	2 156 13 is_stmt 1              @ ../../../Library/StdDriver/src/clk.c:156:13
	ldr	r0, __arm_cp.6_1
	ldr	r0, [r0]
	.loc	2 156 32 is_stmt 0              @ ../../../Library/StdDriver/src/clk.c:156:32
	ldr	r1, [sp, #4]
	.loc	2 156 29                        @ ../../../Library/StdDriver/src/clk.c:156:29
	lsrs	r0, r1
	.loc	2 156 5 epilogue_begin          @ ../../../Library/StdDriver/src/clk.c:156:5
	add	sp, #8
	pop	{r7, pc}
.Ltmp17:
	.p2align	2
@ %bb.1:
	.loc	2 0 5                           @ ../../../Library/StdDriver/src/clk.c:0:5
__arm_cp.6_0:
	.long	1073742388                      @ 0x40000234
.Lcpi_end12:
	.size	__arm_cp.6_0, .Lcpi_end12-__arm_cp.6_0
__arm_cp.6_1:
	.long	SystemCoreClock
.Lcpi_end13:
	.size	__arm_cp.6_1, .Lcpi_end13-__arm_cp.6_1
.Lfunc_end6:
	.size	CLK_GetPCLK1Freq, .Lfunc_end6-CLK_GetPCLK1Freq
	.cfi_endproc
	.cantunwind
	.fnend
                                        @ -- End function
	.section	.text.CLK_GetPCLK2Freq,"ax",%progbits
	.hidden	CLK_GetPCLK2Freq                @ -- Begin function CLK_GetPCLK2Freq
	.globl	CLK_GetPCLK2Freq
	.p2align	2
	.type	CLK_GetPCLK2Freq,%function
	.code	16                              @ @CLK_GetPCLK2Freq
	.thumb_func
CLK_GetPCLK2Freq:
.Lfunc_begin7:
	.loc	2 166 0 is_stmt 1               @ ../../../Library/StdDriver/src/clk.c:166:0
	.fnstart
	.cfi_startproc
@ %bb.0:
	.save	{r7, lr}
	push	{r7, lr}
	.cfi_def_cfa_offset 8
	.cfi_offset lr, -4
	.cfi_offset r7, -8
	.pad	#8
	sub	sp, #8
	.cfi_def_cfa_offset 16
.Ltmp18:
	.loc	2 169 5 prologue_end            @ ../../../Library/StdDriver/src/clk.c:169:5
	bl	SystemCoreClockUpdate
	ldr	r0, __arm_cp.7_0
	.loc	2 170 22                        @ ../../../Library/StdDriver/src/clk.c:170:22
	ldr	r0, [r0]
	movw	r1, #1792
	.loc	2 170 30 is_stmt 0              @ ../../../Library/StdDriver/src/clk.c:170:30
	ands	r0, r1
	.loc	2 170 57                        @ ../../../Library/StdDriver/src/clk.c:170:57
	lsrs	r0, r0, #8
	.loc	2 170 14                        @ ../../../Library/StdDriver/src/clk.c:170:14
	str	r0, [sp, #4]
	.loc	2 171 13 is_stmt 1              @ ../../../Library/StdDriver/src/clk.c:171:13
	ldr	r0, __arm_cp.7_1
	ldr	r0, [r0]
	.loc	2 171 32 is_stmt 0              @ ../../../Library/StdDriver/src/clk.c:171:32
	ldr	r1, [sp, #4]
	.loc	2 171 29                        @ ../../../Library/StdDriver/src/clk.c:171:29
	lsrs	r0, r1
	.loc	2 171 5 epilogue_begin          @ ../../../Library/StdDriver/src/clk.c:171:5
	add	sp, #8
	pop	{r7, pc}
.Ltmp19:
	.p2align	2
@ %bb.1:
	.loc	2 0 5                           @ ../../../Library/StdDriver/src/clk.c:0:5
__arm_cp.7_0:
	.long	1073742388                      @ 0x40000234
.Lcpi_end14:
	.size	__arm_cp.7_0, .Lcpi_end14-__arm_cp.7_0
__arm_cp.7_1:
	.long	SystemCoreClock
.Lcpi_end15:
	.size	__arm_cp.7_1, .Lcpi_end15-__arm_cp.7_1
.Lfunc_end7:
	.size	CLK_GetPCLK2Freq, .Lfunc_end7-CLK_GetPCLK2Freq
	.cfi_endproc
	.cantunwind
	.fnend
                                        @ -- End function
	.section	.text.CLK_GetCPUFreq,"ax",%progbits
	.hidden	CLK_GetCPUFreq                  @ -- Begin function CLK_GetCPUFreq
	.globl	CLK_GetCPUFreq
	.p2align	2
	.type	CLK_GetCPUFreq,%function
	.code	16                              @ @CLK_GetCPUFreq
	.thumb_func
CLK_GetCPUFreq:
.Lfunc_begin8:
	.loc	2 181 0 is_stmt 1               @ ../../../Library/StdDriver/src/clk.c:181:0
	.fnstart
	.cfi_startproc
@ %bb.0:
	.save	{r7, lr}
	push	{r7, lr}
	.cfi_def_cfa_offset 8
	.cfi_offset lr, -4
	.cfi_offset r7, -8
.Ltmp20:
	.loc	2 182 5 prologue_end            @ ../../../Library/StdDriver/src/clk.c:182:5
	bl	SystemCoreClockUpdate
	.loc	2 183 12                        @ ../../../Library/StdDriver/src/clk.c:183:12
	ldr	r0, __arm_cp.8_0
	ldr	r0, [r0]
	.loc	2 183 5 epilogue_begin is_stmt 0 @ ../../../Library/StdDriver/src/clk.c:183:5
	pop	{r7, pc}
.Ltmp21:
	.p2align	2
@ %bb.1:
	.loc	2 0 5                           @ ../../../Library/StdDriver/src/clk.c:0:5
__arm_cp.8_0:
	.long	SystemCoreClock
.Lcpi_end16:
	.size	__arm_cp.8_0, .Lcpi_end16-__arm_cp.8_0
.Lfunc_end8:
	.size	CLK_GetCPUFreq, .Lfunc_end8-CLK_GetCPUFreq
	.cfi_endproc
	.cantunwind
	.fnend
                                        @ -- End function
	.section	.text.CLK_SetCoreClock,"ax",%progbits
	.hidden	CLK_SetCoreClock                @ -- Begin function CLK_SetCoreClock
	.globl	CLK_SetCoreClock
	.p2align	2
	.type	CLK_SetCoreClock,%function
	.code	16                              @ @CLK_SetCoreClock
	.thumb_func
CLK_SetCoreClock:
.Lfunc_begin9:
	.loc	2 196 0 is_stmt 1               @ ../../../Library/StdDriver/src/clk.c:196:0
	.fnstart
	.cfi_startproc
@ %bb.0:
	.save	{r7, lr}
	push	{r7, lr}
	.cfi_def_cfa_offset 8
	.cfi_offset lr, -4
	.cfi_offset r7, -8
	.pad	#8
	sub	sp, #8
	.cfi_def_cfa_offset 16
	str	r0, [sp, #4]
	ldr	r0, __arm_cp.9_0
.Ltmp22:
	.loc	2 198 13 prologue_end           @ ../../../Library/StdDriver/src/clk.c:198:13
	str	r0, [sp, #4]
	movs	r0, #5
	movs	r1, #0
	.loc	2 204 5                         @ ../../../Library/StdDriver/src/clk.c:204:5
	bl	CLK_SetHCLK
	.loc	2 207 12                        @ ../../../Library/StdDriver/src/clk.c:207:12
	ldr	r0, [sp, #4]
	.loc	2 207 5 epilogue_begin is_stmt 0 @ ../../../Library/StdDriver/src/clk.c:207:5
	add	sp, #8
	pop	{r7, pc}
.Ltmp23:
	.p2align	2
@ %bb.1:
	.loc	2 0 5                           @ ../../../Library/StdDriver/src/clk.c:0:5
__arm_cp.9_0:
	.long	24000000                        @ 0x16e3600
.Lcpi_end17:
	.size	__arm_cp.9_0, .Lcpi_end17-__arm_cp.9_0
.Lfunc_end9:
	.size	CLK_SetCoreClock, .Lfunc_end9-CLK_SetCoreClock
	.cfi_endproc
	.cantunwind
	.fnend
                                        @ -- End function
	.section	.text.CLK_SetHCLK,"ax",%progbits
	.hidden	CLK_SetHCLK                     @ -- Begin function CLK_SetHCLK
	.globl	CLK_SetHCLK
	.p2align	2
	.type	CLK_SetHCLK,%function
	.code	16                              @ @CLK_SetHCLK
	.thumb_func
CLK_SetHCLK:
.Lfunc_begin10:
	.loc	2 224 0 is_stmt 1               @ ../../../Library/StdDriver/src/clk.c:224:0
	.fnstart
	.cfi_startproc
@ %bb.0:
	.save	{r7, lr}
	push	{r7, lr}
	.cfi_def_cfa_offset 8
	.cfi_offset lr, -4
	.cfi_offset r7, -8
	.pad	#16
	sub	sp, #16
	.cfi_def_cfa_offset 24
	str	r0, [sp, #12]
	str	r1, [sp, #8]
	ldr	r0, __arm_cp.10_0
.Ltmp24:
	.loc	2 228 23 prologue_end           @ ../../../Library/StdDriver/src/clk.c:228:23
	ldr	r1, [r0]
	movs	r0, #16
	.loc	2 228 30 is_stmt 0              @ ../../../Library/StdDriver/src/clk.c:228:30
	ands	r1, r0
	.loc	2 228 16                        @ ../../../Library/StdDriver/src/clk.c:228:16
	str	r1, [sp, #4]
	ldr	r2, __arm_cp.10_1
	.loc	2 231 17 is_stmt 1              @ ../../../Library/StdDriver/src/clk.c:231:17
	ldr	r1, [r2]
	movs	r3, #4
	str	r3, [sp]                        @ 4-byte Spill
	orrs	r1, r3
	str	r1, [r2]
	.loc	2 232 5                         @ ../../../Library/StdDriver/src/clk.c:232:5
	bl	CLK_WaitClockReady
	ldr	r3, [sp]                        @ 4-byte Reload
	ldr	r1, __arm_cp.10_2
	.loc	2 233 26                        @ ../../../Library/StdDriver/src/clk.c:233:26
	ldr	r0, [r1]
	movs	r2, #5
	.loc	2 233 34 is_stmt 0              @ ../../../Library/StdDriver/src/clk.c:233:34
	orrs	r0, r2
	movs	r2, #2
	.loc	2 233 64                        @ ../../../Library/StdDriver/src/clk.c:233:64
	bics	r0, r2
	.loc	2 233 18                        @ ../../../Library/StdDriver/src/clk.c:233:18
	str	r0, [r1]
	ldr	r2, __arm_cp.10_3
	.loc	2 236 25 is_stmt 1              @ ../../../Library/StdDriver/src/clk.c:236:25
	ldr	r0, [r2]
	.loc	2 236 32 is_stmt 0              @ ../../../Library/StdDriver/src/clk.c:236:32
	orrs	r0, r3
	movs	r3, #11
	.loc	2 236 59                        @ ../../../Library/StdDriver/src/clk.c:236:59
	bics	r0, r3
	.loc	2 236 17                        @ ../../../Library/StdDriver/src/clk.c:236:17
	str	r0, [r2]
	ldr	r2, __arm_cp.10_4
	.loc	2 239 26 is_stmt 1              @ ../../../Library/StdDriver/src/clk.c:239:26
	ldr	r0, [r2]
	movs	r3, #15
	.loc	2 239 34 is_stmt 0              @ ../../../Library/StdDriver/src/clk.c:239:34
	bics	r0, r3
	.loc	2 239 66                        @ ../../../Library/StdDriver/src/clk.c:239:66
	ldr	r3, [sp, #8]
	.loc	2 239 64                        @ ../../../Library/StdDriver/src/clk.c:239:64
	orrs	r0, r3
	.loc	2 239 18                        @ ../../../Library/StdDriver/src/clk.c:239:18
	str	r0, [r2]
	.loc	2 242 26 is_stmt 1              @ ../../../Library/StdDriver/src/clk.c:242:26
	ldr	r0, [r1]
	movs	r2, #7
	.loc	2 242 34 is_stmt 0              @ ../../../Library/StdDriver/src/clk.c:242:34
	bics	r0, r2
	.loc	2 242 66                        @ ../../../Library/StdDriver/src/clk.c:242:66
	ldr	r2, [sp, #12]
	.loc	2 242 64                        @ ../../../Library/StdDriver/src/clk.c:242:64
	orrs	r0, r2
	.loc	2 242 18                        @ ../../../Library/StdDriver/src/clk.c:242:18
	str	r0, [r1]
	.loc	2 245 5 is_stmt 1               @ ../../../Library/StdDriver/src/clk.c:245:5
	bl	SystemCoreClockUpdate
.Ltmp25:
	.loc	2 248 9                         @ ../../../Library/StdDriver/src/clk.c:248:9
	ldr	r0, __arm_cp.10_5
	ldr	r0, [r0]
	ldr	r1, __arm_cp.10_6
	.loc	2 248 40 is_stmt 0              @ ../../../Library/StdDriver/src/clk.c:248:40
	cmp	r0, r1
	blo	.LBB10_3
	b	.LBB10_1
.LBB10_1:
	.loc	2 248 43                        @ ../../../Library/StdDriver/src/clk.c:248:43
	ldr	r0, __arm_cp.10_5
	ldr	r0, [r0]
	ldr	r1, __arm_cp.10_7
.Ltmp26:
	.loc	2 248 8                         @ ../../../Library/StdDriver/src/clk.c:248:8
	cmp	r0, r1
	bhi	.LBB10_3
	b	.LBB10_2
.LBB10_2:
	.loc	2 0 8                           @ ../../../Library/StdDriver/src/clk.c:0:8
	ldr	r1, __arm_cp.10_3
.Ltmp27:
	.loc	2 250 29 is_stmt 1              @ ../../../Library/StdDriver/src/clk.c:250:29
	ldr	r0, [r1]
	movs	r2, #3
	.loc	2 250 36 is_stmt 0              @ ../../../Library/StdDriver/src/clk.c:250:36
	orrs	r0, r2
	movs	r2, #12
	.loc	2 250 63                        @ ../../../Library/StdDriver/src/clk.c:250:63
	bics	r0, r2
	.loc	2 250 21                        @ ../../../Library/StdDriver/src/clk.c:250:21
	str	r0, [r1]
	.loc	2 251 5 is_stmt 1               @ ../../../Library/StdDriver/src/clk.c:251:5
	b	.LBB10_7
.Ltmp28:
.LBB10_3:
	.loc	2 252 14                        @ ../../../Library/StdDriver/src/clk.c:252:14
	ldr	r0, __arm_cp.10_5
	ldr	r0, [r0]
	ldr	r1, __arm_cp.10_8
	.loc	2 252 45 is_stmt 0              @ ../../../Library/StdDriver/src/clk.c:252:45
	cmp	r0, r1
	blo	.LBB10_6
	b	.LBB10_4
.LBB10_4:
	.loc	2 252 48                        @ ../../../Library/StdDriver/src/clk.c:252:48
	ldr	r0, __arm_cp.10_5
	ldr	r0, [r0]
	ldr	r1, __arm_cp.10_9
.Ltmp29:
	.loc	2 252 13                        @ ../../../Library/StdDriver/src/clk.c:252:13
	cmp	r0, r1
	bhi	.LBB10_6
	b	.LBB10_5
.LBB10_5:
	.loc	2 0 13                          @ ../../../Library/StdDriver/src/clk.c:0:13
	ldr	r1, __arm_cp.10_3
.Ltmp30:
	.loc	2 254 29 is_stmt 1              @ ../../../Library/StdDriver/src/clk.c:254:29
	ldr	r0, [r1]
	movs	r2, #2
	.loc	2 254 36 is_stmt 0              @ ../../../Library/StdDriver/src/clk.c:254:36
	orrs	r0, r2
	movs	r2, #13
	.loc	2 254 63                        @ ../../../Library/StdDriver/src/clk.c:254:63
	bics	r0, r2
	.loc	2 254 21                        @ ../../../Library/StdDriver/src/clk.c:254:21
	str	r0, [r1]
	.loc	2 255 5 is_stmt 1               @ ../../../Library/StdDriver/src/clk.c:255:5
	b	.LBB10_6
.Ltmp31:
.LBB10_6:
	.loc	2 0 5 is_stmt 0                 @ ../../../Library/StdDriver/src/clk.c:0:5
	b	.LBB10_7
.LBB10_7:
.Ltmp32:
	.loc	2 256 8 is_stmt 1               @ ../../../Library/StdDriver/src/clk.c:256:8
	ldr	r0, __arm_cp.10_5
	ldr	r0, [r0]
	ldr	r1, __arm_cp.10_10
.Ltmp33:
	.loc	2 256 8 is_stmt 0               @ ../../../Library/StdDriver/src/clk.c:256:8
	cmp	r0, r1
	bhi	.LBB10_9
	b	.LBB10_8
.LBB10_8:
	.loc	2 0 8                           @ ../../../Library/StdDriver/src/clk.c:0:8
	ldr	r1, __arm_cp.10_3
.Ltmp34:
	.loc	2 258 29 is_stmt 1              @ ../../../Library/StdDriver/src/clk.c:258:29
	ldr	r0, [r1]
	movs	r2, #1
	.loc	2 258 36 is_stmt 0              @ ../../../Library/StdDriver/src/clk.c:258:36
	orrs	r0, r2
	movs	r2, #14
	.loc	2 258 63                        @ ../../../Library/StdDriver/src/clk.c:258:63
	bics	r0, r2
	.loc	2 258 21                        @ ../../../Library/StdDriver/src/clk.c:258:21
	str	r0, [r1]
	.loc	2 259 5 is_stmt 1               @ ../../../Library/StdDriver/src/clk.c:259:5
	b	.LBB10_9
.Ltmp35:
.LBB10_9:
	.loc	2 262 8                         @ ../../../Library/StdDriver/src/clk.c:262:8
	ldr	r0, [sp, #12]
.Ltmp36:
	.loc	2 262 8 is_stmt 0               @ ../../../Library/StdDriver/src/clk.c:262:8
	cmp	r0, #5
	beq	.LBB10_13
	b	.LBB10_10
.LBB10_10:
.Ltmp37:
	.loc	2 264 12 is_stmt 1              @ ../../../Library/StdDriver/src/clk.c:264:12
	ldr	r0, [sp, #4]
.Ltmp38:
	.loc	2 264 12 is_stmt 0              @ ../../../Library/StdDriver/src/clk.c:264:12
	cbnz	r0, .LBB10_12
	b	.LBB10_11
.LBB10_11:
	.loc	2 0 12                          @ ../../../Library/StdDriver/src/clk.c:0:12
	ldr	r1, __arm_cp.10_1
.Ltmp39:
	.loc	2 266 25 is_stmt 1              @ ../../../Library/StdDriver/src/clk.c:266:25
	ldr	r0, [r1]
	movs	r2, #4
	bics	r0, r2
	str	r0, [r1]
	.loc	2 267 9                         @ ../../../Library/StdDriver/src/clk.c:267:9
	b	.LBB10_12
.Ltmp40:
.LBB10_12:
	.loc	2 268 5                         @ ../../../Library/StdDriver/src/clk.c:268:5
	b	.LBB10_13
.Ltmp41:
.LBB10_13:
	.loc	2 269 1 epilogue_begin          @ ../../../Library/StdDriver/src/clk.c:269:1
	add	sp, #16
	pop	{r7, pc}
.Ltmp42:
	.p2align	2
@ %bb.14:
	.loc	2 0 1 is_stmt 0                 @ ../../../Library/StdDriver/src/clk.c:0:1
__arm_cp.10_0:
	.long	1073742416                      @ 0x40000250
.Lcpi_end18:
	.size	__arm_cp.10_0, .Lcpi_end18-__arm_cp.10_0
__arm_cp.10_1:
	.long	1073742336                      @ 0x40000200
.Lcpi_end19:
	.size	__arm_cp.10_1, .Lcpi_end19-__arm_cp.10_1
__arm_cp.10_2:
	.long	1073742352                      @ 0x40000210
.Lcpi_end20:
	.size	__arm_cp.10_2, .Lcpi_end20-__arm_cp.10_2
__arm_cp.10_3:
	.long	1073791052                      @ 0x4000c04c
.Lcpi_end21:
	.size	__arm_cp.10_3, .Lcpi_end21-__arm_cp.10_3
__arm_cp.10_4:
	.long	1073742368                      @ 0x40000220
.Lcpi_end22:
	.size	__arm_cp.10_4, .Lcpi_end22-__arm_cp.10_4
__arm_cp.10_5:
	.long	SystemCoreClock
.Lcpi_end23:
	.size	__arm_cp.10_5, .Lcpi_end23-__arm_cp.10_5
__arm_cp.10_6:
	.long	50000000                        @ 0x2faf080
.Lcpi_end24:
	.size	__arm_cp.10_6, .Lcpi_end24-__arm_cp.10_6
__arm_cp.10_7:
	.long	74999999                        @ 0x47868bf
.Lcpi_end25:
	.size	__arm_cp.10_7, .Lcpi_end25-__arm_cp.10_7
__arm_cp.10_8:
	.long	25000000                        @ 0x17d7840
.Lcpi_end26:
	.size	__arm_cp.10_8, .Lcpi_end26-__arm_cp.10_8
__arm_cp.10_9:
	.long	49999999                        @ 0x2faf07f
.Lcpi_end27:
	.size	__arm_cp.10_9, .Lcpi_end27-__arm_cp.10_9
__arm_cp.10_10:
	.long	24999999                        @ 0x17d783f
.Lcpi_end28:
	.size	__arm_cp.10_10, .Lcpi_end28-__arm_cp.10_10
.Lfunc_end10:
	.size	CLK_SetHCLK, .Lfunc_end10-CLK_SetHCLK
	.cfi_endproc
	.cantunwind
	.fnend
                                        @ -- End function
	.section	.text.CLK_WaitClockReady,"ax",%progbits
	.hidden	CLK_WaitClockReady              @ -- Begin function CLK_WaitClockReady
	.globl	CLK_WaitClockReady
	.p2align	2
	.type	CLK_WaitClockReady,%function
	.code	16                              @ @CLK_WaitClockReady
	.thumb_func
CLK_WaitClockReady:
.Lfunc_begin11:
	.loc	2 465 0 is_stmt 1               @ ../../../Library/StdDriver/src/clk.c:465:0
	.fnstart
	.cfi_startproc
@ %bb.0:
	.pad	#12
	sub	sp, #12
	.cfi_def_cfa_offset 12
	str	r0, [sp, #8]
.Ltmp43:
	.loc	2 466 30 prologue_end           @ ../../../Library/StdDriver/src/clk.c:466:30
	ldr	r0, __arm_cp.11_0
	ldr	r0, [r0]
	.loc	2 466 46 is_stmt 0              @ ../../../Library/StdDriver/src/clk.c:466:46
	lsrs	r0, r0, #1
	.loc	2 466 14                        @ ../../../Library/StdDriver/src/clk.c:466:14
	str	r0, [sp, #4]
	movs	r0, #1
	.loc	2 467 14 is_stmt 1              @ ../../../Library/StdDriver/src/clk.c:467:14
	str	r0, [sp]
	.loc	2 469 22                        @ ../../../Library/StdDriver/src/clk.c:469:22
	ldr	r1, __arm_cp.11_1
	movs	r0, #0
	str	r0, [r1]
	.loc	2 470 5                         @ ../../../Library/StdDriver/src/clk.c:470:5
	b	.LBB11_1
.LBB11_1:                               @ =>This Inner Loop Header: Depth=1
	.loc	2 0 5 is_stmt 0                 @ ../../../Library/StdDriver/src/clk.c:0:5
	ldr	r0, __arm_cp.11_2
	.loc	2 470 17                        @ ../../../Library/StdDriver/src/clk.c:470:17
	ldr	r0, [r0]
	.loc	2 470 26                        @ ../../../Library/StdDriver/src/clk.c:470:26
	ldr	r1, [sp, #8]
	.loc	2 470 24                        @ ../../../Library/StdDriver/src/clk.c:470:24
	ands	r0, r1
	.loc	2 470 5                         @ ../../../Library/StdDriver/src/clk.c:470:5
	cmp	r0, r1
	beq	.LBB11_5
	b	.LBB11_2
.LBB11_2:                               @   in Loop: Header=BB11_1 Depth=1
.Ltmp44:
	.loc	2 472 12 is_stmt 1              @ ../../../Library/StdDriver/src/clk.c:472:12
	ldr	r0, [sp, #4]
	subs	r0, r0, #1
	str	r0, [sp, #4]
.Ltmp45:
	.loc	2 472 12 is_stmt 0              @ ../../../Library/StdDriver/src/clk.c:472:12
	cbnz	r0, .LBB11_4
	b	.LBB11_3
.LBB11_3:
	.loc	2 0 12                          @ ../../../Library/StdDriver/src/clk.c:0:12
	movs	r0, #0
.Ltmp46:
	.loc	2 474 20 is_stmt 1              @ ../../../Library/StdDriver/src/clk.c:474:20
	str	r0, [sp]
	.loc	2 475 13                        @ ../../../Library/StdDriver/src/clk.c:475:13
	b	.LBB11_5
.Ltmp47:
.LBB11_4:                               @   in Loop: Header=BB11_1 Depth=1
	.loc	2 470 5                         @ ../../../Library/StdDriver/src/clk.c:470:5
	b	.LBB11_1
.LBB11_5:
.Ltmp48:
	.loc	2 479 8                         @ ../../../Library/StdDriver/src/clk.c:479:8
	ldr	r0, [sp, #4]
.Ltmp49:
	.loc	2 479 8 is_stmt 0               @ ../../../Library/StdDriver/src/clk.c:479:8
	cbnz	r0, .LBB11_7
	b	.LBB11_6
.LBB11_6:
.Ltmp50:
	.loc	2 480 26 is_stmt 1              @ ../../../Library/StdDriver/src/clk.c:480:26
	ldr	r1, __arm_cp.11_1
	movs	r0, #0
	mvns	r0, r0
	str	r0, [r1]
	.loc	2 480 9 is_stmt 0               @ ../../../Library/StdDriver/src/clk.c:480:9
	b	.LBB11_7
.Ltmp51:
.LBB11_7:
	.loc	2 482 12 is_stmt 1              @ ../../../Library/StdDriver/src/clk.c:482:12
	ldr	r0, [sp]
	.loc	2 482 5 epilogue_begin is_stmt 0 @ ../../../Library/StdDriver/src/clk.c:482:5
	add	sp, #12
	bx	lr
.Ltmp52:
	.p2align	2
@ %bb.8:
	.loc	2 0 5                           @ ../../../Library/StdDriver/src/clk.c:0:5
__arm_cp.11_0:
	.long	SystemCoreClock
.Lcpi_end29:
	.size	__arm_cp.11_0, .Lcpi_end29-__arm_cp.11_0
__arm_cp.11_1:
	.long	g_CLK_i32ErrCode
.Lcpi_end30:
	.size	__arm_cp.11_1, .Lcpi_end30-__arm_cp.11_1
__arm_cp.11_2:
	.long	1073742416                      @ 0x40000250
.Lcpi_end31:
	.size	__arm_cp.11_2, .Lcpi_end31-__arm_cp.11_2
.Lfunc_end11:
	.size	CLK_WaitClockReady, .Lfunc_end11-CLK_WaitClockReady
	.cfi_endproc
	.cantunwind
	.fnend
                                        @ -- End function
	.section	.text.CLK_SetModuleClock,"ax",%progbits
	.hidden	CLK_SetModuleClock              @ -- Begin function CLK_SetModuleClock
	.globl	CLK_SetModuleClock
	.p2align	2
	.type	CLK_SetModuleClock,%function
	.code	16                              @ @CLK_SetModuleClock
	.thumb_func
CLK_SetModuleClock:
.Lfunc_begin12:
	.loc	2 312 0 is_stmt 1               @ ../../../Library/StdDriver/src/clk.c:312:0
	.fnstart
	.cfi_startproc
@ %bb.0:
	.pad	#52
	sub	sp, #52
	.cfi_def_cfa_offset 52
	str	r0, [sp, #48]
	str	r1, [sp, #44]
	str	r2, [sp, #40]
	movs	r0, #0
.Ltmp53:
	.loc	2 313 14 prologue_end           @ ../../../Library/StdDriver/src/clk.c:313:14
	str	r0, [sp, #36]
	.loc	2 313 28 is_stmt 0              @ ../../../Library/StdDriver/src/clk.c:313:28
	str	r0, [sp, #32]
	movs	r1, #12
	.loc	2 314 14 is_stmt 1              @ ../../../Library/StdDriver/src/clk.c:314:14
	str	r1, [sp, #28]
	movs	r2, #8
	str	r2, [sp, #24]
	movs	r1, #4
	str	r1, [sp, #20]
	str	r0, [sp, #16]
	movs	r3, #16
	.loc	2 315 14                        @ ../../../Library/StdDriver/src/clk.c:315:14
	str	r3, [sp, #12]
	str	r2, [sp, #8]
	str	r1, [sp, #4]
	str	r0, [sp]
.Ltmp54:
	.loc	2 317 8                         @ ../../../Library/StdDriver/src/clk.c:317:8
	ldr	r0, [sp, #48]
	lsrs	r0, r0, #10
.Ltmp55:
	.loc	2 317 8 is_stmt 0               @ ../../../Library/StdDriver/src/clk.c:317:8
	lsls	r0, r0, #24
	cbz	r0, .LBB12_2
	b	.LBB12_1
.LBB12_1:
	.loc	2 0 8                           @ ../../../Library/StdDriver/src/clk.c:0:8
	add	r0, sp, #48
.Ltmp56:
	.loc	2 320 56 is_stmt 1              @ ../../../Library/StdDriver/src/clk.c:320:56
	ldrh	r1, [r0, #2]
	movs	r0, #12
	.loc	2 320 45 is_stmt 0              @ ../../../Library/StdDriver/src/clk.c:320:45
	ands	r1, r0
	mov	r0, sp
	ldr	r0, [r0, r1]
	ldr	r1, __arm_cp.12_0
	.loc	2 320 42                        @ ../../../Library/StdDriver/src/clk.c:320:42
	adds	r0, r0, r1
	.loc	2 320 16                        @ ../../../Library/StdDriver/src/clk.c:320:16
	str	r0, [sp, #32]
	.loc	2 322 24 is_stmt 1              @ ../../../Library/StdDriver/src/clk.c:322:24
	ldr	r0, [sp, #32]
	ldr	r0, [r0]
	.loc	2 322 41 is_stmt 0              @ ../../../Library/StdDriver/src/clk.c:322:41
	ldr	r2, [sp, #48]
	lsrs	r1, r2, #10
	uxtb	r1, r1
	.loc	2 322 76                        @ ../../../Library/StdDriver/src/clk.c:322:76
	lsls	r2, r2, #22
	lsrs	r2, r2, #27
	.loc	2 322 73                        @ ../../../Library/StdDriver/src/clk.c:322:73
	lsls	r1, r2
	.loc	2 322 36                        @ ../../../Library/StdDriver/src/clk.c:322:36
	bics	r0, r1
	.loc	2 322 113                       @ ../../../Library/StdDriver/src/clk.c:322:113
	ldr	r1, [sp, #40]
	.loc	2 322 111                       @ ../../../Library/StdDriver/src/clk.c:322:111
	orrs	r0, r1
	.loc	2 322 9                         @ ../../../Library/StdDriver/src/clk.c:322:9
	ldr	r1, [sp, #32]
	.loc	2 322 21                        @ ../../../Library/StdDriver/src/clk.c:322:21
	str	r0, [r1]
	.loc	2 323 5 is_stmt 1               @ ../../../Library/StdDriver/src/clk.c:323:5
	b	.LBB12_2
.Ltmp57:
.LBB12_2:
	.loc	2 325 8                         @ ../../../Library/StdDriver/src/clk.c:325:8
	ldr	r0, [sp, #48]
	lsls	r0, r0, #4
	lsrs	r0, r0, #29
.Ltmp58:
	.loc	2 325 8 is_stmt 0               @ ../../../Library/StdDriver/src/clk.c:325:8
	cbz	r0, .LBB12_4
	b	.LBB12_3
.LBB12_3:
.Ltmp59:
	.loc	2 328 56 is_stmt 1              @ ../../../Library/StdDriver/src/clk.c:328:56
	ldr	r0, [sp, #48]
	.loc	2 328 45 is_stmt 0              @ ../../../Library/StdDriver/src/clk.c:328:45
	lsrs	r1, r0, #26
	movs	r0, #12
	ands	r1, r0
	add	r0, sp, #16
	ldr	r0, [r0, r1]
	ldr	r1, __arm_cp.12_1
	.loc	2 328 42                        @ ../../../Library/StdDriver/src/clk.c:328:42
	adds	r0, r0, r1
	.loc	2 328 16                        @ ../../../Library/StdDriver/src/clk.c:328:16
	str	r0, [sp, #36]
	.loc	2 330 24 is_stmt 1              @ ../../../Library/StdDriver/src/clk.c:330:24
	ldr	r0, [sp, #36]
	ldr	r0, [r0]
	.loc	2 330 41 is_stmt 0              @ ../../../Library/StdDriver/src/clk.c:330:41
	ldr	r2, [sp, #48]
	lsls	r1, r2, #4
	lsrs	r1, r1, #29
	.loc	2 330 76                        @ ../../../Library/StdDriver/src/clk.c:330:76
	lsls	r2, r2, #7
	lsrs	r2, r2, #27
	.loc	2 330 73                        @ ../../../Library/StdDriver/src/clk.c:330:73
	lsls	r1, r2
	.loc	2 330 36                        @ ../../../Library/StdDriver/src/clk.c:330:36
	bics	r0, r1
	.loc	2 330 113                       @ ../../../Library/StdDriver/src/clk.c:330:113
	ldr	r1, [sp, #44]
	.loc	2 330 111                       @ ../../../Library/StdDriver/src/clk.c:330:111
	orrs	r0, r1
	.loc	2 330 9                         @ ../../../Library/StdDriver/src/clk.c:330:9
	ldr	r1, [sp, #36]
	.loc	2 330 21                        @ ../../../Library/StdDriver/src/clk.c:330:21
	str	r0, [r1]
	.loc	2 331 5 is_stmt 1               @ ../../../Library/StdDriver/src/clk.c:331:5
	b	.LBB12_4
.Ltmp60:
.LBB12_4:
	.loc	2 332 1 epilogue_begin          @ ../../../Library/StdDriver/src/clk.c:332:1
	add	sp, #52
	bx	lr
.Ltmp61:
	.p2align	2
@ %bb.5:
	.loc	2 0 1 is_stmt 0                 @ ../../../Library/StdDriver/src/clk.c:0:1
__arm_cp.12_0:
	.long	1073742368                      @ 0x40000220
.Lcpi_end32:
	.size	__arm_cp.12_0, .Lcpi_end32-__arm_cp.12_0
__arm_cp.12_1:
	.long	1073742352                      @ 0x40000210
.Lcpi_end33:
	.size	__arm_cp.12_1, .Lcpi_end33-__arm_cp.12_1
.Lfunc_end12:
	.size	CLK_SetModuleClock, .Lfunc_end12-CLK_SetModuleClock
	.cfi_endproc
	.cantunwind
	.fnend
                                        @ -- End function
	.section	.text.CLK_SetSysTickClockSrc,"ax",%progbits
	.hidden	CLK_SetSysTickClockSrc          @ -- Begin function CLK_SetSysTickClockSrc
	.globl	CLK_SetSysTickClockSrc
	.p2align	2
	.type	CLK_SetSysTickClockSrc,%function
	.code	16                              @ @CLK_SetSysTickClockSrc
	.thumb_func
CLK_SetSysTickClockSrc:
.Lfunc_begin13:
	.loc	2 344 0 is_stmt 1               @ ../../../Library/StdDriver/src/clk.c:344:0
	.fnstart
	.cfi_startproc
@ %bb.0:
	.pad	#4
	sub	sp, #4
	.cfi_def_cfa_offset 4
	str	r0, [sp]
	ldr	r1, __arm_cp.13_0
.Ltmp62:
	.loc	2 345 26 prologue_end           @ ../../../Library/StdDriver/src/clk.c:345:26
	ldr	r0, [r1]
	movs	r2, #56
	.loc	2 345 34 is_stmt 0              @ ../../../Library/StdDriver/src/clk.c:345:34
	bics	r0, r2
	.loc	2 345 65                        @ ../../../Library/StdDriver/src/clk.c:345:65
	ldr	r2, [sp]
	.loc	2 345 63                        @ ../../../Library/StdDriver/src/clk.c:345:63
	orrs	r0, r2
	.loc	2 345 18                        @ ../../../Library/StdDriver/src/clk.c:345:18
	str	r0, [r1]
	.loc	2 346 1 epilogue_begin is_stmt 1 @ ../../../Library/StdDriver/src/clk.c:346:1
	add	sp, #4
	bx	lr
.Ltmp63:
	.p2align	2
@ %bb.1:
	.loc	2 0 1 is_stmt 0                 @ ../../../Library/StdDriver/src/clk.c:0:1
__arm_cp.13_0:
	.long	1073742352                      @ 0x40000210
.Lcpi_end34:
	.size	__arm_cp.13_0, .Lcpi_end34-__arm_cp.13_0
.Lfunc_end13:
	.size	CLK_SetSysTickClockSrc, .Lfunc_end13-CLK_SetSysTickClockSrc
	.cfi_endproc
	.cantunwind
	.fnend
                                        @ -- End function
	.section	.text.CLK_EnableXtalRC,"ax",%progbits
	.hidden	CLK_EnableXtalRC                @ -- Begin function CLK_EnableXtalRC
	.globl	CLK_EnableXtalRC
	.p2align	2
	.type	CLK_EnableXtalRC,%function
	.code	16                              @ @CLK_EnableXtalRC
	.thumb_func
CLK_EnableXtalRC:
.Lfunc_begin14:
	.loc	2 358 0 is_stmt 1               @ ../../../Library/StdDriver/src/clk.c:358:0
	.fnstart
	.cfi_startproc
@ %bb.0:
	.pad	#4
	sub	sp, #4
	.cfi_def_cfa_offset 4
	str	r0, [sp]
.Ltmp64:
	.loc	2 359 20 prologue_end           @ ../../../Library/StdDriver/src/clk.c:359:20
	ldr	r2, [sp]
	ldr	r1, __arm_cp.14_0
	.loc	2 359 17 is_stmt 0              @ ../../../Library/StdDriver/src/clk.c:359:17
	ldr	r0, [r1]
	orrs	r0, r2
	str	r0, [r1]
	.loc	2 360 1 epilogue_begin is_stmt 1 @ ../../../Library/StdDriver/src/clk.c:360:1
	add	sp, #4
	bx	lr
.Ltmp65:
	.p2align	2
@ %bb.1:
	.loc	2 0 1 is_stmt 0                 @ ../../../Library/StdDriver/src/clk.c:0:1
__arm_cp.14_0:
	.long	1073742336                      @ 0x40000200
.Lcpi_end35:
	.size	__arm_cp.14_0, .Lcpi_end35-__arm_cp.14_0
.Lfunc_end14:
	.size	CLK_EnableXtalRC, .Lfunc_end14-CLK_EnableXtalRC
	.cfi_endproc
	.cantunwind
	.fnend
                                        @ -- End function
	.section	.text.CLK_DisableXtalRC,"ax",%progbits
	.hidden	CLK_DisableXtalRC               @ -- Begin function CLK_DisableXtalRC
	.globl	CLK_DisableXtalRC
	.p2align	2
	.type	CLK_DisableXtalRC,%function
	.code	16                              @ @CLK_DisableXtalRC
	.thumb_func
CLK_DisableXtalRC:
.Lfunc_begin15:
	.loc	2 372 0 is_stmt 1               @ ../../../Library/StdDriver/src/clk.c:372:0
	.fnstart
	.cfi_startproc
@ %bb.0:
	.pad	#4
	sub	sp, #4
	.cfi_def_cfa_offset 4
	str	r0, [sp]
.Ltmp66:
	.loc	2 373 21 prologue_end           @ ../../../Library/StdDriver/src/clk.c:373:21
	ldr	r2, [sp]
	ldr	r1, __arm_cp.15_0
	.loc	2 373 17 is_stmt 0              @ ../../../Library/StdDriver/src/clk.c:373:17
	ldr	r0, [r1]
	bics	r0, r2
	str	r0, [r1]
	.loc	2 374 1 epilogue_begin is_stmt 1 @ ../../../Library/StdDriver/src/clk.c:374:1
	add	sp, #4
	bx	lr
.Ltmp67:
	.p2align	2
@ %bb.1:
	.loc	2 0 1 is_stmt 0                 @ ../../../Library/StdDriver/src/clk.c:0:1
__arm_cp.15_0:
	.long	1073742336                      @ 0x40000200
.Lcpi_end36:
	.size	__arm_cp.15_0, .Lcpi_end36-__arm_cp.15_0
.Lfunc_end15:
	.size	CLK_DisableXtalRC, .Lfunc_end15-CLK_DisableXtalRC
	.cfi_endproc
	.cantunwind
	.fnend
                                        @ -- End function
	.section	.text.CLK_EnableModuleClock,"ax",%progbits
	.hidden	CLK_EnableModuleClock           @ -- Begin function CLK_EnableModuleClock
	.globl	CLK_EnableModuleClock
	.p2align	2
	.type	CLK_EnableModuleClock,%function
	.code	16                              @ @CLK_EnableModuleClock
	.thumb_func
CLK_EnableModuleClock:
.Lfunc_begin16:
	.loc	2 405 0 is_stmt 1               @ ../../../Library/StdDriver/src/clk.c:405:0
	.fnstart
	.cfi_startproc
@ %bb.0:
	.pad	#12
	sub	sp, #12
	.cfi_def_cfa_offset 12
	str	r0, [sp, #8]
	movs	r0, #0
.Ltmp68:
	.loc	2 406 14 prologue_end           @ ../../../Library/StdDriver/src/clk.c:406:14
	str	r0, [sp, #4]
	.loc	2 406 31 is_stmt 0              @ ../../../Library/StdDriver/src/clk.c:406:31
	str	r0, [sp]
	.loc	2 408 25 is_stmt 1              @ ../../../Library/StdDriver/src/clk.c:408:25
	ldr	r1, [sp, #8]
	movs	r0, #31
	ands	r1, r0
	movs	r0, #1
	.loc	2 408 22 is_stmt 0              @ ../../../Library/StdDriver/src/clk.c:408:22
	lsls	r0, r1
	.loc	2 408 15                        @ ../../../Library/StdDriver/src/clk.c:408:15
	str	r0, [sp, #4]
	ldr	r0, __arm_cp.16_0
	.loc	2 409 16 is_stmt 1              @ ../../../Library/StdDriver/src/clk.c:409:16
	str	r0, [sp]
	.loc	2 410 21                        @ ../../../Library/StdDriver/src/clk.c:410:21
	ldr	r0, [sp, #8]
	.loc	2 410 49 is_stmt 0              @ ../../../Library/StdDriver/src/clk.c:410:49
	lsrs	r0, r0, #30
	lsls	r1, r0, #2
	.loc	2 410 16                        @ ../../../Library/StdDriver/src/clk.c:410:16
	ldr	r0, [sp]
	adds	r0, r0, r1
	str	r0, [sp]
	.loc	2 412 41 is_stmt 1              @ ../../../Library/StdDriver/src/clk.c:412:41
	ldr	r2, [sp, #4]
	.loc	2 412 27 is_stmt 0              @ ../../../Library/StdDriver/src/clk.c:412:27
	ldr	r1, [sp]
	.loc	2 412 38                        @ ../../../Library/StdDriver/src/clk.c:412:38
	ldr	r0, [r1]
	orrs	r0, r2
	str	r0, [r1]
	.loc	2 413 1 epilogue_begin is_stmt 1 @ ../../../Library/StdDriver/src/clk.c:413:1
	add	sp, #12
	bx	lr
.Ltmp69:
	.p2align	2
@ %bb.1:
	.loc	2 0 1 is_stmt 0                 @ ../../../Library/StdDriver/src/clk.c:0:1
__arm_cp.16_0:
	.long	1073742340                      @ 0x40000204
.Lcpi_end37:
	.size	__arm_cp.16_0, .Lcpi_end37-__arm_cp.16_0
.Lfunc_end16:
	.size	CLK_EnableModuleClock, .Lfunc_end16-CLK_EnableModuleClock
	.cfi_endproc
	.cantunwind
	.fnend
                                        @ -- End function
	.section	.text.CLK_DisableModuleClock,"ax",%progbits
	.hidden	CLK_DisableModuleClock          @ -- Begin function CLK_DisableModuleClock
	.globl	CLK_DisableModuleClock
	.p2align	2
	.type	CLK_DisableModuleClock,%function
	.code	16                              @ @CLK_DisableModuleClock
	.thumb_func
CLK_DisableModuleClock:
.Lfunc_begin17:
	.loc	2 444 0 is_stmt 1               @ ../../../Library/StdDriver/src/clk.c:444:0
	.fnstart
	.cfi_startproc
@ %bb.0:
	.pad	#12
	sub	sp, #12
	.cfi_def_cfa_offset 12
	str	r0, [sp, #8]
	movs	r0, #0
.Ltmp70:
	.loc	2 445 14 prologue_end           @ ../../../Library/StdDriver/src/clk.c:445:14
	str	r0, [sp, #4]
	.loc	2 445 31 is_stmt 0              @ ../../../Library/StdDriver/src/clk.c:445:31
	str	r0, [sp]
	.loc	2 447 26 is_stmt 1              @ ../../../Library/StdDriver/src/clk.c:447:26
	ldr	r1, [sp, #8]
	movs	r0, #31
	ands	r1, r0
	movs	r0, #1
	.loc	2 447 23 is_stmt 0              @ ../../../Library/StdDriver/src/clk.c:447:23
	lsls	r0, r1
	.loc	2 447 17                        @ ../../../Library/StdDriver/src/clk.c:447:17
	mvns	r0, r0
	.loc	2 447 15                        @ ../../../Library/StdDriver/src/clk.c:447:15
	str	r0, [sp, #4]
	ldr	r0, __arm_cp.17_0
	.loc	2 448 16 is_stmt 1              @ ../../../Library/StdDriver/src/clk.c:448:16
	str	r0, [sp]
	.loc	2 449 21                        @ ../../../Library/StdDriver/src/clk.c:449:21
	ldr	r0, [sp, #8]
	.loc	2 449 49 is_stmt 0              @ ../../../Library/StdDriver/src/clk.c:449:49
	lsrs	r0, r0, #30
	lsls	r1, r0, #2
	.loc	2 449 16                        @ ../../../Library/StdDriver/src/clk.c:449:16
	ldr	r0, [sp]
	adds	r0, r0, r1
	str	r0, [sp]
	.loc	2 451 32 is_stmt 1              @ ../../../Library/StdDriver/src/clk.c:451:32
	ldr	r2, [sp, #4]
	.loc	2 451 18 is_stmt 0              @ ../../../Library/StdDriver/src/clk.c:451:18
	ldr	r1, [sp]
	.loc	2 451 29                        @ ../../../Library/StdDriver/src/clk.c:451:29
	ldr	r0, [r1]
	ands	r0, r2
	str	r0, [r1]
	.loc	2 452 1 epilogue_begin is_stmt 1 @ ../../../Library/StdDriver/src/clk.c:452:1
	add	sp, #12
	bx	lr
.Ltmp71:
	.p2align	2
@ %bb.1:
	.loc	2 0 1 is_stmt 0                 @ ../../../Library/StdDriver/src/clk.c:0:1
__arm_cp.17_0:
	.long	1073742340                      @ 0x40000204
.Lcpi_end38:
	.size	__arm_cp.17_0, .Lcpi_end38-__arm_cp.17_0
.Lfunc_end17:
	.size	CLK_DisableModuleClock, .Lfunc_end17-CLK_DisableModuleClock
	.cfi_endproc
	.cantunwind
	.fnend
                                        @ -- End function
	.section	.text.CLK_EnableSysTick,"ax",%progbits
	.hidden	CLK_EnableSysTick               @ -- Begin function CLK_EnableSysTick
	.globl	CLK_EnableSysTick
	.p2align	2
	.type	CLK_EnableSysTick,%function
	.code	16                              @ @CLK_EnableSysTick
	.thumb_func
CLK_EnableSysTick:
.Lfunc_begin18:
	.loc	2 497 0 is_stmt 1               @ ../../../Library/StdDriver/src/clk.c:497:0
	.fnstart
	.cfi_startproc
@ %bb.0:
	.pad	#8
	sub	sp, #8
	.cfi_def_cfa_offset 8
	str	r0, [sp, #4]
	str	r1, [sp]
	ldr	r1, __arm_cp.18_0
	movs	r0, #0
.Ltmp72:
	.loc	2 499 19 prologue_end           @ ../../../Library/StdDriver/src/clk.c:499:19
	str	r0, [r1]
.Ltmp73:
	.loc	2 502 8                         @ ../../../Library/StdDriver/src/clk.c:502:8
	ldr	r0, [sp, #4]
.Ltmp74:
	.loc	2 502 8 is_stmt 0               @ ../../../Library/StdDriver/src/clk.c:502:8
	cmp	r0, #4
	bne	.LBB18_2
	b	.LBB18_1
.LBB18_1:
	.loc	2 0 8                           @ ../../../Library/StdDriver/src/clk.c:0:8
	ldr	r1, __arm_cp.18_0
.Ltmp75:
	.loc	2 504 23 is_stmt 1              @ ../../../Library/StdDriver/src/clk.c:504:23
	ldr	r0, [r1]
	movs	r2, #4
	orrs	r0, r2
	str	r0, [r1]
	.loc	2 505 5                         @ ../../../Library/StdDriver/src/clk.c:505:5
	b	.LBB18_3
.Ltmp76:
.LBB18_2:
	.loc	2 0 5 is_stmt 0                 @ ../../../Library/StdDriver/src/clk.c:0:5
	ldr	r1, __arm_cp.18_1
.Ltmp77:
	.loc	2 508 21 is_stmt 1              @ ../../../Library/StdDriver/src/clk.c:508:21
	ldr	r0, [r1]
	movs	r2, #8
	orrs	r0, r2
	str	r0, [r1]
	ldr	r1, __arm_cp.18_2
	.loc	2 509 30                        @ ../../../Library/StdDriver/src/clk.c:509:30
	ldr	r0, [r1]
	movs	r2, #56
	.loc	2 509 38 is_stmt 0              @ ../../../Library/StdDriver/src/clk.c:509:38
	bics	r0, r2
	.loc	2 509 69                        @ ../../../Library/StdDriver/src/clk.c:509:69
	ldr	r2, [sp, #4]
	.loc	2 509 67                        @ ../../../Library/StdDriver/src/clk.c:509:67
	orrs	r0, r2
	.loc	2 509 22                        @ ../../../Library/StdDriver/src/clk.c:509:22
	str	r0, [r1]
	b	.LBB18_3
.Ltmp78:
.LBB18_3:
	.loc	2 513 21 is_stmt 1              @ ../../../Library/StdDriver/src/clk.c:513:21
	ldr	r0, [sp]
	ldr	r1, __arm_cp.18_3
	.loc	2 513 19 is_stmt 0              @ ../../../Library/StdDriver/src/clk.c:513:19
	str	r0, [r1]
	ldr	r1, __arm_cp.18_4
	movs	r0, #0
	.loc	2 516 18 is_stmt 1              @ ../../../Library/StdDriver/src/clk.c:516:18
	str	r0, [r1]
	ldr	r1, __arm_cp.18_0
	.loc	2 519 19                        @ ../../../Library/StdDriver/src/clk.c:519:19
	ldr	r0, [r1]
	movs	r2, #3
	orrs	r0, r2
	str	r0, [r1]
	.loc	2 520 1 epilogue_begin          @ ../../../Library/StdDriver/src/clk.c:520:1
	add	sp, #8
	bx	lr
.Ltmp79:
	.p2align	2
@ %bb.4:
	.loc	2 0 1 is_stmt 0                 @ ../../../Library/StdDriver/src/clk.c:0:1
__arm_cp.18_0:
	.long	3758153744                      @ 0xe000e010
.Lcpi_end39:
	.size	__arm_cp.18_0, .Lcpi_end39-__arm_cp.18_0
__arm_cp.18_1:
	.long	1073742340                      @ 0x40000204
.Lcpi_end40:
	.size	__arm_cp.18_1, .Lcpi_end40-__arm_cp.18_1
__arm_cp.18_2:
	.long	1073742352                      @ 0x40000210
.Lcpi_end41:
	.size	__arm_cp.18_2, .Lcpi_end41-__arm_cp.18_2
__arm_cp.18_3:
	.long	3758153748                      @ 0xe000e014
.Lcpi_end42:
	.size	__arm_cp.18_3, .Lcpi_end42-__arm_cp.18_3
__arm_cp.18_4:
	.long	3758153752                      @ 0xe000e018
.Lcpi_end43:
	.size	__arm_cp.18_4, .Lcpi_end43-__arm_cp.18_4
.Lfunc_end18:
	.size	CLK_EnableSysTick, .Lfunc_end18-CLK_EnableSysTick
	.cfi_endproc
	.cantunwind
	.fnend
                                        @ -- End function
	.section	.text.CLK_DisableSysTick,"ax",%progbits
	.hidden	CLK_DisableSysTick              @ -- Begin function CLK_DisableSysTick
	.globl	CLK_DisableSysTick
	.p2align	2
	.type	CLK_DisableSysTick,%function
	.code	16                              @ @CLK_DisableSysTick
	.thumb_func
CLK_DisableSysTick:
.Lfunc_begin19:
	.loc	2 529 0 is_stmt 1               @ ../../../Library/StdDriver/src/clk.c:529:0
	.fnstart
	.cfi_startproc
@ %bb.0:
	ldr	r1, __arm_cp.19_0
	movs	r0, #0
.Ltmp80:
	.loc	2 531 19 prologue_end           @ ../../../Library/StdDriver/src/clk.c:531:19
	str	r0, [r1]
	.loc	2 532 1                         @ ../../../Library/StdDriver/src/clk.c:532:1
	bx	lr
.Ltmp81:
	.p2align	2
@ %bb.1:
	.loc	2 0 1 is_stmt 0                 @ ../../../Library/StdDriver/src/clk.c:0:1
__arm_cp.19_0:
	.long	3758153744                      @ 0xe000e010
.Lcpi_end44:
	.size	__arm_cp.19_0, .Lcpi_end44-__arm_cp.19_0
.Lfunc_end19:
	.size	CLK_DisableSysTick, .Lfunc_end19-CLK_DisableSysTick
	.cfi_endproc
	.cantunwind
	.fnend
                                        @ -- End function
	.section	.text.CLK_SetPowerDownMode,"ax",%progbits
	.hidden	CLK_SetPowerDownMode            @ -- Begin function CLK_SetPowerDownMode
	.globl	CLK_SetPowerDownMode
	.p2align	2
	.type	CLK_SetPowerDownMode,%function
	.code	16                              @ @CLK_SetPowerDownMode
	.thumb_func
CLK_SetPowerDownMode:
.Lfunc_begin20:
	.loc	2 546 0 is_stmt 1               @ ../../../Library/StdDriver/src/clk.c:546:0
	.fnstart
	.cfi_startproc
@ %bb.0:
	.pad	#12
	sub	sp, #12
	.cfi_def_cfa_offset 12
	str	r0, [sp, #4]
.Ltmp82:
	.loc	2 547 30 prologue_end           @ ../../../Library/StdDriver/src/clk.c:547:30
	ldr	r0, __arm_cp.20_0
	ldr	r0, [r0]
	.loc	2 547 46 is_stmt 0              @ ../../../Library/StdDriver/src/clk.c:547:46
	lsls	r0, r0, #1
	.loc	2 547 14                        @ ../../../Library/StdDriver/src/clk.c:547:14
	str	r0, [sp]
	.loc	2 549 5 is_stmt 1               @ ../../../Library/StdDriver/src/clk.c:549:5
	b	.LBB20_1
.LBB20_1:                               @ =>This Inner Loop Header: Depth=1
	.loc	2 0 5 is_stmt 0                 @ ../../../Library/StdDriver/src/clk.c:0:5
	ldr	r0, __arm_cp.20_1
	.loc	2 549 16                        @ ../../../Library/StdDriver/src/clk.c:549:16
	ldr	r0, [r0]
	.loc	2 549 5                         @ ../../../Library/StdDriver/src/clk.c:549:5
	lsls	r0, r0, #24
	cmp	r0, #0
	bpl	.LBB20_5
	b	.LBB20_2
.LBB20_2:                               @   in Loop: Header=BB20_1 Depth=1
.Ltmp83:
	.loc	2 551 12 is_stmt 1              @ ../../../Library/StdDriver/src/clk.c:551:12
	ldr	r0, [sp]
	subs	r0, r0, #1
	str	r0, [sp]
.Ltmp84:
	.loc	2 551 12 is_stmt 0              @ ../../../Library/StdDriver/src/clk.c:551:12
	cbnz	r0, .LBB20_4
	b	.LBB20_3
.LBB20_3:
.Ltmp85:
	.loc	2 553 13 is_stmt 1              @ ../../../Library/StdDriver/src/clk.c:553:13
	b	.LBB20_5
.Ltmp86:
.LBB20_4:                               @   in Loop: Header=BB20_1 Depth=1
	.loc	2 549 5                         @ ../../../Library/StdDriver/src/clk.c:549:5
	b	.LBB20_1
.LBB20_5:
	.loc	2 0 5 is_stmt 0                 @ ../../../Library/StdDriver/src/clk.c:0:5
	ldr	r1, __arm_cp.20_1
	.loc	2 556 25 is_stmt 1              @ ../../../Library/StdDriver/src/clk.c:556:25
	ldr	r0, [r1]
	movs	r2, #7
	.loc	2 556 32 is_stmt 0              @ ../../../Library/StdDriver/src/clk.c:556:32
	bics	r0, r2
	.loc	2 556 63                        @ ../../../Library/StdDriver/src/clk.c:556:63
	ldr	r2, [sp, #4]
	.loc	2 556 60                        @ ../../../Library/StdDriver/src/clk.c:556:60
	orrs	r0, r2
	.loc	2 556 17                        @ ../../../Library/StdDriver/src/clk.c:556:17
	str	r0, [r1]
.Ltmp87:
	.loc	2 558 8 is_stmt 1               @ ../../../Library/StdDriver/src/clk.c:558:8
	ldr	r0, [sp]
.Ltmp88:
	.loc	2 558 8 is_stmt 0               @ ../../../Library/StdDriver/src/clk.c:558:8
	cbnz	r0, .LBB20_7
	b	.LBB20_6
.LBB20_6:
	.loc	2 0 8                           @ ../../../Library/StdDriver/src/clk.c:0:8
	movs	r0, #0
	mvns	r0, r0
.Ltmp89:
	.loc	2 559 9 is_stmt 1               @ ../../../Library/StdDriver/src/clk.c:559:9
	str	r0, [sp, #8]
	b	.LBB20_8
.LBB20_7:
	.loc	2 0 9 is_stmt 0                 @ ../../../Library/StdDriver/src/clk.c:0:9
	movs	r0, #0
	.loc	2 561 9 is_stmt 1               @ ../../../Library/StdDriver/src/clk.c:561:9
	str	r0, [sp, #8]
	b	.LBB20_8
.Ltmp90:
.LBB20_8:
	.loc	2 562 1                         @ ../../../Library/StdDriver/src/clk.c:562:1
	ldr	r0, [sp, #8]
	.loc	2 562 1 epilogue_begin is_stmt 0 @ ../../../Library/StdDriver/src/clk.c:562:1
	add	sp, #12
	bx	lr
.Ltmp91:
	.p2align	2
@ %bb.9:
	.loc	2 0 1                           @ ../../../Library/StdDriver/src/clk.c:0:1
__arm_cp.20_0:
	.long	SystemCoreClock
.Lcpi_end45:
	.size	__arm_cp.20_0, .Lcpi_end45-__arm_cp.20_0
__arm_cp.20_1:
	.long	1073742480                      @ 0x40000290
.Lcpi_end46:
	.size	__arm_cp.20_1, .Lcpi_end46-__arm_cp.20_1
.Lfunc_end20:
	.size	CLK_SetPowerDownMode, .Lfunc_end20-CLK_SetPowerDownMode
	.cfi_endproc
	.cantunwind
	.fnend
                                        @ -- End function
	.section	.text.CLK_EnableDPDWKPin,"ax",%progbits
	.hidden	CLK_EnableDPDWKPin              @ -- Begin function CLK_EnableDPDWKPin
	.globl	CLK_EnableDPDWKPin
	.p2align	2
	.type	CLK_EnableDPDWKPin,%function
	.code	16                              @ @CLK_EnableDPDWKPin
	.thumb_func
CLK_EnableDPDWKPin:
.Lfunc_begin21:
	.loc	2 582 0 is_stmt 1               @ ../../../Library/StdDriver/src/clk.c:582:0
	.fnstart
	.cfi_startproc
@ %bb.0:
	.pad	#24
	sub	sp, #24
	.cfi_def_cfa_offset 24
	str	r0, [sp, #16]
.Ltmp92:
	.loc	2 583 30 prologue_end           @ ../../../Library/StdDriver/src/clk.c:583:30
	ldr	r0, __arm_cp.21_0
	ldr	r0, [r0]
	.loc	2 583 46 is_stmt 0              @ ../../../Library/StdDriver/src/clk.c:583:46
	lsls	r0, r0, #1
	.loc	2 583 14                        @ ../../../Library/StdDriver/src/clk.c:583:14
	str	r0, [sp, #12]
	.loc	2 586 17 is_stmt 1              @ ../../../Library/StdDriver/src/clk.c:586:17
	ldr	r0, [sp, #16]
	movs	r1, #3
	lsls	r2, r1, #24
	.loc	2 586 33 is_stmt 0              @ ../../../Library/StdDriver/src/clk.c:586:33
	ands	r0, r2
	.loc	2 586 13                        @ ../../../Library/StdDriver/src/clk.c:586:13
	str	r0, [sp, #8]
	.loc	2 587 17 is_stmt 1              @ ../../../Library/StdDriver/src/clk.c:587:17
	ldr	r0, [sp, #16]
	lsls	r2, r1, #26
	.loc	2 587 33 is_stmt 0              @ ../../../Library/StdDriver/src/clk.c:587:33
	ands	r0, r2
	.loc	2 587 13                        @ ../../../Library/StdDriver/src/clk.c:587:13
	str	r0, [sp, #4]
	.loc	2 588 17 is_stmt 1              @ ../../../Library/StdDriver/src/clk.c:588:17
	ldr	r0, [sp, #16]
	lsls	r1, r1, #28
	.loc	2 588 33 is_stmt 0              @ ../../../Library/StdDriver/src/clk.c:588:33
	ands	r0, r1
	.loc	2 588 13                        @ ../../../Library/StdDriver/src/clk.c:588:13
	str	r0, [sp]
	.loc	2 590 5 is_stmt 1               @ ../../../Library/StdDriver/src/clk.c:590:5
	b	.LBB21_1
.LBB21_1:                               @ =>This Inner Loop Header: Depth=1
	.loc	2 0 5 is_stmt 0                 @ ../../../Library/StdDriver/src/clk.c:0:5
	ldr	r0, __arm_cp.21_1
	.loc	2 590 16                        @ ../../../Library/StdDriver/src/clk.c:590:16
	ldr	r0, [r0]
	.loc	2 590 5                         @ ../../../Library/StdDriver/src/clk.c:590:5
	lsls	r0, r0, #24
	cmp	r0, #0
	bpl	.LBB21_5
	b	.LBB21_2
.LBB21_2:                               @   in Loop: Header=BB21_1 Depth=1
.Ltmp93:
	.loc	2 592 12 is_stmt 1              @ ../../../Library/StdDriver/src/clk.c:592:12
	ldr	r0, [sp, #12]
	subs	r0, r0, #1
	str	r0, [sp, #12]
.Ltmp94:
	.loc	2 592 12 is_stmt 0              @ ../../../Library/StdDriver/src/clk.c:592:12
	cbnz	r0, .LBB21_4
	b	.LBB21_3
.LBB21_3:
.Ltmp95:
	.loc	2 594 13 is_stmt 1              @ ../../../Library/StdDriver/src/clk.c:594:13
	b	.LBB21_5
.Ltmp96:
.LBB21_4:                               @   in Loop: Header=BB21_1 Depth=1
	.loc	2 590 5                         @ ../../../Library/StdDriver/src/clk.c:590:5
	b	.LBB21_1
.LBB21_5:
.Ltmp97:
	.loc	2 598 8                         @ ../../../Library/StdDriver/src/clk.c:598:8
	ldr	r0, [sp, #8]
.Ltmp98:
	.loc	2 598 8 is_stmt 0               @ ../../../Library/StdDriver/src/clk.c:598:8
	cbz	r0, .LBB21_7
	b	.LBB21_6
.LBB21_6:
	.loc	2 0 8                           @ ../../../Library/StdDriver/src/clk.c:0:8
	ldr	r1, __arm_cp.21_1
.Ltmp99:
	.loc	2 600 29 is_stmt 1              @ ../../../Library/StdDriver/src/clk.c:600:29
	ldr	r0, [r1]
	movs	r2, #3
	lsls	r2, r2, #24
	.loc	2 600 36 is_stmt 0              @ ../../../Library/StdDriver/src/clk.c:600:36
	bics	r0, r2
	.loc	2 600 68                        @ ../../../Library/StdDriver/src/clk.c:600:68
	ldr	r2, [sp, #16]
	.loc	2 600 66                        @ ../../../Library/StdDriver/src/clk.c:600:66
	orrs	r0, r2
	.loc	2 600 21                        @ ../../../Library/StdDriver/src/clk.c:600:21
	str	r0, [r1]
	.loc	2 601 5 is_stmt 1               @ ../../../Library/StdDriver/src/clk.c:601:5
	b	.LBB21_14
.Ltmp100:
.LBB21_7:
	.loc	2 602 13                        @ ../../../Library/StdDriver/src/clk.c:602:13
	ldr	r0, [sp, #4]
.Ltmp101:
	.loc	2 602 13 is_stmt 0              @ ../../../Library/StdDriver/src/clk.c:602:13
	cbz	r0, .LBB21_9
	b	.LBB21_8
.LBB21_8:
	.loc	2 0 13                          @ ../../../Library/StdDriver/src/clk.c:0:13
	ldr	r1, __arm_cp.21_1
.Ltmp102:
	.loc	2 604 29 is_stmt 1              @ ../../../Library/StdDriver/src/clk.c:604:29
	ldr	r0, [r1]
	movs	r2, #3
	lsls	r2, r2, #26
	.loc	2 604 36 is_stmt 0              @ ../../../Library/StdDriver/src/clk.c:604:36
	bics	r0, r2
	.loc	2 604 68                        @ ../../../Library/StdDriver/src/clk.c:604:68
	ldr	r2, [sp, #16]
	.loc	2 604 66                        @ ../../../Library/StdDriver/src/clk.c:604:66
	orrs	r0, r2
	.loc	2 604 21                        @ ../../../Library/StdDriver/src/clk.c:604:21
	str	r0, [r1]
	.loc	2 605 5 is_stmt 1               @ ../../../Library/StdDriver/src/clk.c:605:5
	b	.LBB21_13
.Ltmp103:
.LBB21_9:
	.loc	2 606 13                        @ ../../../Library/StdDriver/src/clk.c:606:13
	ldr	r0, [sp]
.Ltmp104:
	.loc	2 606 13 is_stmt 0              @ ../../../Library/StdDriver/src/clk.c:606:13
	cbz	r0, .LBB21_11
	b	.LBB21_10
.LBB21_10:
	.loc	2 0 13                          @ ../../../Library/StdDriver/src/clk.c:0:13
	ldr	r1, __arm_cp.21_1
.Ltmp105:
	.loc	2 608 29 is_stmt 1              @ ../../../Library/StdDriver/src/clk.c:608:29
	ldr	r0, [r1]
	movs	r2, #3
	lsls	r2, r2, #28
	.loc	2 608 36 is_stmt 0              @ ../../../Library/StdDriver/src/clk.c:608:36
	bics	r0, r2
	.loc	2 608 68                        @ ../../../Library/StdDriver/src/clk.c:608:68
	ldr	r2, [sp, #16]
	.loc	2 608 66                        @ ../../../Library/StdDriver/src/clk.c:608:66
	orrs	r0, r2
	.loc	2 608 21                        @ ../../../Library/StdDriver/src/clk.c:608:21
	str	r0, [r1]
	.loc	2 609 5 is_stmt 1               @ ../../../Library/StdDriver/src/clk.c:609:5
	b	.LBB21_12
.Ltmp106:
.LBB21_11:
	.loc	2 0 5 is_stmt 0                 @ ../../../Library/StdDriver/src/clk.c:0:5
	ldr	r1, __arm_cp.21_1
.Ltmp107:
	.loc	2 612 29 is_stmt 1              @ ../../../Library/StdDriver/src/clk.c:612:29
	ldr	r0, [r1]
	movs	r2, #3
	lsls	r2, r2, #24
	.loc	2 612 36 is_stmt 0              @ ../../../Library/StdDriver/src/clk.c:612:36
	bics	r0, r2
	.loc	2 612 68                        @ ../../../Library/StdDriver/src/clk.c:612:68
	ldr	r2, [sp, #16]
	.loc	2 612 66                        @ ../../../Library/StdDriver/src/clk.c:612:66
	orrs	r0, r2
	.loc	2 612 21                        @ ../../../Library/StdDriver/src/clk.c:612:21
	str	r0, [r1]
	b	.LBB21_12
.Ltmp108:
.LBB21_12:
	.loc	2 0 21                          @ ../../../Library/StdDriver/src/clk.c:0:21
	b	.LBB21_13
.LBB21_13:
	b	.LBB21_14
.LBB21_14:
.Ltmp109:
	.loc	2 615 8 is_stmt 1               @ ../../../Library/StdDriver/src/clk.c:615:8
	ldr	r0, [sp, #12]
.Ltmp110:
	.loc	2 615 8 is_stmt 0               @ ../../../Library/StdDriver/src/clk.c:615:8
	cbnz	r0, .LBB21_16
	b	.LBB21_15
.LBB21_15:
	.loc	2 0 8                           @ ../../../Library/StdDriver/src/clk.c:0:8
	movs	r0, #0
	mvns	r0, r0
.Ltmp111:
	.loc	2 616 9 is_stmt 1               @ ../../../Library/StdDriver/src/clk.c:616:9
	str	r0, [sp, #20]
	b	.LBB21_17
.LBB21_16:
	.loc	2 0 9 is_stmt 0                 @ ../../../Library/StdDriver/src/clk.c:0:9
	movs	r0, #0
	.loc	2 618 9 is_stmt 1               @ ../../../Library/StdDriver/src/clk.c:618:9
	str	r0, [sp, #20]
	b	.LBB21_17
.Ltmp112:
.LBB21_17:
	.loc	2 619 1                         @ ../../../Library/StdDriver/src/clk.c:619:1
	ldr	r0, [sp, #20]
	.loc	2 619 1 epilogue_begin is_stmt 0 @ ../../../Library/StdDriver/src/clk.c:619:1
	add	sp, #24
	bx	lr
.Ltmp113:
	.p2align	2
@ %bb.18:
	.loc	2 0 1                           @ ../../../Library/StdDriver/src/clk.c:0:1
__arm_cp.21_0:
	.long	SystemCoreClock
.Lcpi_end47:
	.size	__arm_cp.21_0, .Lcpi_end47-__arm_cp.21_0
__arm_cp.21_1:
	.long	1073742480                      @ 0x40000290
.Lcpi_end48:
	.size	__arm_cp.21_1, .Lcpi_end48-__arm_cp.21_1
.Lfunc_end21:
	.size	CLK_EnableDPDWKPin, .Lfunc_end21-CLK_EnableDPDWKPin
	.cfi_endproc
	.cantunwind
	.fnend
                                        @ -- End function
	.section	.text.CLK_GetPMUWKSrc,"ax",%progbits
	.hidden	CLK_GetPMUWKSrc                 @ -- Begin function CLK_GetPMUWKSrc
	.globl	CLK_GetPMUWKSrc
	.p2align	2
	.type	CLK_GetPMUWKSrc,%function
	.code	16                              @ @CLK_GetPMUWKSrc
	.thumb_func
CLK_GetPMUWKSrc:
.Lfunc_begin22:
	.loc	2 628 0 is_stmt 1               @ ../../../Library/StdDriver/src/clk.c:628:0
	.fnstart
	.cfi_startproc
@ %bb.0:
	ldr	r0, __arm_cp.22_0
.Ltmp114:
	.loc	2 629 18 prologue_end           @ ../../../Library/StdDriver/src/clk.c:629:18
	ldr	r0, [r0]
	.loc	2 629 5 is_stmt 0               @ ../../../Library/StdDriver/src/clk.c:629:5
	bx	lr
.Ltmp115:
	.p2align	2
@ %bb.1:
	.loc	2 0 5                           @ ../../../Library/StdDriver/src/clk.c:0:5
__arm_cp.22_0:
	.long	1073742484                      @ 0x40000294
.Lcpi_end49:
	.size	__arm_cp.22_0, .Lcpi_end49-__arm_cp.22_0
.Lfunc_end22:
	.size	CLK_GetPMUWKSrc, .Lfunc_end22-CLK_GetPMUWKSrc
	.cfi_endproc
	.cantunwind
	.fnend
                                        @ -- End function
	.section	.text.CLK_EnableSPDWKPin,"ax",%progbits
	.hidden	CLK_EnableSPDWKPin              @ -- Begin function CLK_EnableSPDWKPin
	.globl	CLK_EnableSPDWKPin
	.p2align	2
	.type	CLK_EnableSPDWKPin,%function
	.code	16                              @ @CLK_EnableSPDWKPin
	.thumb_func
CLK_EnableSPDWKPin:
.Lfunc_begin23:
	.loc	2 646 0 is_stmt 1               @ ../../../Library/StdDriver/src/clk.c:646:0
	.fnstart
	.cfi_startproc
@ %bb.0:
	.pad	#24
	sub	sp, #24
	.cfi_def_cfa_offset 24
	str	r0, [sp, #20]
	str	r1, [sp, #16]
	str	r2, [sp, #12]
	str	r3, [sp, #8]
	movs	r0, #0
.Ltmp116:
	.loc	2 647 14 prologue_end           @ ../../../Library/StdDriver/src/clk.c:647:14
	str	r0, [sp, #4]
	.loc	2 648 14                        @ ../../../Library/StdDriver/src/clk.c:648:14
	str	r0, [sp]
	ldr	r0, __arm_cp.23_0
	.loc	2 651 16                        @ ../../../Library/StdDriver/src/clk.c:651:16
	str	r0, [sp, #4]
	.loc	2 652 28                        @ ../../../Library/StdDriver/src/clk.c:652:28
	ldr	r0, [sp, #20]
	.loc	2 652 26 is_stmt 0              @ ../../../Library/StdDriver/src/clk.c:652:26
	lsls	r1, r0, #2
	.loc	2 652 16                        @ ../../../Library/StdDriver/src/clk.c:652:16
	ldr	r0, [sp, #4]
	adds	r0, r0, r1
	str	r0, [sp, #4]
	.loc	2 654 17 is_stmt 1              @ ../../../Library/StdDriver/src/clk.c:654:17
	ldr	r0, [sp, #4]
	ldr	r0, [r0]
	.loc	2 654 15 is_stmt 0              @ ../../../Library/StdDriver/src/clk.c:654:15
	str	r0, [sp]
	.loc	2 655 18 is_stmt 1              @ ../../../Library/StdDriver/src/clk.c:655:18
	ldr	r0, [sp]
	movw	r1, #503
	.loc	2 655 28 is_stmt 0              @ ../../../Library/StdDriver/src/clk.c:655:28
	bics	r0, r1
	.loc	2 656 18 is_stmt 1              @ ../../../Library/StdDriver/src/clk.c:656:18
	ldr	r1, [sp, #16]
	.loc	2 656 25 is_stmt 0              @ ../../../Library/StdDriver/src/clk.c:656:25
	lsls	r1, r1, #4
	.loc	2 655 158 is_stmt 1             @ ../../../Library/StdDriver/src/clk.c:655:158
	orrs	r0, r1
	.loc	2 656 55                        @ ../../../Library/StdDriver/src/clk.c:656:55
	ldr	r1, [sp, #12]
	.loc	2 656 53 is_stmt 0              @ ../../../Library/StdDriver/src/clk.c:656:53
	orrs	r0, r1
	.loc	2 656 72                        @ ../../../Library/StdDriver/src/clk.c:656:72
	ldr	r1, [sp, #8]
	.loc	2 656 70                        @ ../../../Library/StdDriver/src/clk.c:656:70
	orrs	r0, r1
	movs	r1, #1
	.loc	2 656 86                        @ ../../../Library/StdDriver/src/clk.c:656:86
	orrs	r0, r1
	.loc	2 655 15 is_stmt 1              @ ../../../Library/StdDriver/src/clk.c:655:15
	str	r0, [sp]
	.loc	2 657 5                         @ ../../../Library/StdDriver/src/clk.c:657:5
	ldr	r0, [sp]
	ldr	r1, [sp, #4]
	str	r0, [r1]
	.loc	2 658 1 epilogue_begin          @ ../../../Library/StdDriver/src/clk.c:658:1
	add	sp, #24
	bx	lr
.Ltmp117:
	.p2align	2
@ %bb.1:
	.loc	2 0 1 is_stmt 0                 @ ../../../Library/StdDriver/src/clk.c:0:1
__arm_cp.23_0:
	.long	1073742500                      @ 0x400002a4
.Lcpi_end50:
	.size	__arm_cp.23_0, .Lcpi_end50-__arm_cp.23_0
.Lfunc_end23:
	.size	CLK_EnableSPDWKPin, .Lfunc_end23-CLK_EnableSPDWKPin
	.cfi_endproc
	.cantunwind
	.fnend
                                        @ -- End function
	.section	.text.CLK_GetModuleClockSource,"ax",%progbits
	.hidden	CLK_GetModuleClockSource        @ -- Begin function CLK_GetModuleClockSource
	.globl	CLK_GetModuleClockSource
	.p2align	2
	.type	CLK_GetModuleClockSource,%function
	.code	16                              @ @CLK_GetModuleClockSource
	.thumb_func
CLK_GetModuleClockSource:
.Lfunc_begin24:
	.loc	2 680 0 is_stmt 1               @ ../../../Library/StdDriver/src/clk.c:680:0
	.fnstart
	.cfi_startproc
@ %bb.0:
	.pad	#28
	sub	sp, #28
	.cfi_def_cfa_offset 28
	str	r0, [sp, #24]
	movs	r0, #0
.Ltmp118:
	.loc	2 681 14 prologue_end           @ ../../../Library/StdDriver/src/clk.c:681:14
	str	r0, [sp, #20]
	.loc	2 681 31 is_stmt 0              @ ../../../Library/StdDriver/src/clk.c:681:31
	str	r0, [sp, #16]
	movs	r1, #12
	.loc	2 682 14 is_stmt 1              @ ../../../Library/StdDriver/src/clk.c:682:14
	str	r1, [sp, #12]
	movs	r1, #8
	str	r1, [sp, #8]
	movs	r1, #4
	str	r1, [sp, #4]
	str	r0, [sp]
.Ltmp119:
	.loc	2 684 8                         @ ../../../Library/StdDriver/src/clk.c:684:8
	ldr	r0, [sp, #24]
	lsls	r0, r0, #4
	lsrs	r0, r0, #29
.Ltmp120:
	.loc	2 684 8 is_stmt 0               @ ../../../Library/StdDriver/src/clk.c:684:8
	cbz	r0, .LBB24_2
	b	.LBB24_1
.LBB24_1:
.Ltmp121:
	.loc	2 687 60 is_stmt 1              @ ../../../Library/StdDriver/src/clk.c:687:60
	ldr	r0, [sp, #24]
	.loc	2 687 49 is_stmt 0              @ ../../../Library/StdDriver/src/clk.c:687:49
	lsrs	r1, r0, #26
	movs	r0, #12
	ands	r1, r0
	mov	r0, sp
	ldr	r0, [r0, r1]
	ldr	r1, __arm_cp.24_0
	.loc	2 687 46                        @ ../../../Library/StdDriver/src/clk.c:687:46
	adds	r0, r0, r1
	.loc	2 687 20                        @ ../../../Library/StdDriver/src/clk.c:687:20
	str	r0, [sp, #16]
	.loc	2 690 23 is_stmt 1              @ ../../../Library/StdDriver/src/clk.c:690:23
	ldr	r0, [sp, #16]
	ldr	r0, [r0]
	.loc	2 690 55 is_stmt 0              @ ../../../Library/StdDriver/src/clk.c:690:55
	ldr	r1, [sp, #24]
	lsls	r2, r1, #4
	lsrs	r2, r2, #29
	.loc	2 690 90                        @ ../../../Library/StdDriver/src/clk.c:690:90
	lsls	r1, r1, #7
	lsrs	r1, r1, #27
	.loc	2 690 87                        @ ../../../Library/StdDriver/src/clk.c:690:87
	lsls	r2, r1
	.loc	2 690 52                        @ ../../../Library/StdDriver/src/clk.c:690:52
	ands	r0, r2
	.loc	2 690 124                       @ ../../../Library/StdDriver/src/clk.c:690:124
	lsrs	r0, r1
	.loc	2 690 19                        @ ../../../Library/StdDriver/src/clk.c:690:19
	str	r0, [sp, #20]
	.loc	2 691 5 is_stmt 1               @ ../../../Library/StdDriver/src/clk.c:691:5
	b	.LBB24_2
.Ltmp122:
.LBB24_2:
	.loc	2 693 12                        @ ../../../Library/StdDriver/src/clk.c:693:12
	ldr	r0, [sp, #20]
	.loc	2 693 5 epilogue_begin is_stmt 0 @ ../../../Library/StdDriver/src/clk.c:693:5
	add	sp, #28
	bx	lr
.Ltmp123:
	.p2align	2
@ %bb.3:
	.loc	2 0 5                           @ ../../../Library/StdDriver/src/clk.c:0:5
__arm_cp.24_0:
	.long	1073742352                      @ 0x40000210
.Lcpi_end51:
	.size	__arm_cp.24_0, .Lcpi_end51-__arm_cp.24_0
.Lfunc_end24:
	.size	CLK_GetModuleClockSource, .Lfunc_end24-CLK_GetModuleClockSource
	.cfi_endproc
	.cantunwind
	.fnend
                                        @ -- End function
	.section	.text.CLK_GetModuleClockDivider,"ax",%progbits
	.hidden	CLK_GetModuleClockDivider       @ -- Begin function CLK_GetModuleClockDivider
	.globl	CLK_GetModuleClockDivider
	.p2align	2
	.type	CLK_GetModuleClockDivider,%function
	.code	16                              @ @CLK_GetModuleClockDivider
	.thumb_func
CLK_GetModuleClockDivider:
.Lfunc_begin25:
	.loc	2 707 0 is_stmt 1               @ ../../../Library/StdDriver/src/clk.c:707:0
	.fnstart
	.cfi_startproc
@ %bb.0:
	.pad	#28
	sub	sp, #28
	.cfi_def_cfa_offset 28
	str	r0, [sp, #24]
	movs	r0, #0
.Ltmp124:
	.loc	2 708 14 prologue_end           @ ../../../Library/StdDriver/src/clk.c:708:14
	str	r0, [sp, #20]
	.loc	2 708 31 is_stmt 0              @ ../../../Library/StdDriver/src/clk.c:708:31
	str	r0, [sp, #16]
	movs	r1, #16
	.loc	2 709 14 is_stmt 1              @ ../../../Library/StdDriver/src/clk.c:709:14
	str	r1, [sp, #12]
	movs	r1, #8
	str	r1, [sp, #8]
	movs	r1, #4
	str	r1, [sp, #4]
	str	r0, [sp]
.Ltmp125:
	.loc	2 711 8                         @ ../../../Library/StdDriver/src/clk.c:711:8
	ldr	r0, [sp, #24]
	lsrs	r0, r0, #10
.Ltmp126:
	.loc	2 711 8 is_stmt 0               @ ../../../Library/StdDriver/src/clk.c:711:8
	lsls	r0, r0, #24
	cbz	r0, .LBB25_2
	b	.LBB25_1
.LBB25_1:
	.loc	2 0 8                           @ ../../../Library/StdDriver/src/clk.c:0:8
	add	r0, sp, #24
.Ltmp127:
	.loc	2 714 60 is_stmt 1              @ ../../../Library/StdDriver/src/clk.c:714:60
	ldrh	r1, [r0, #2]
	movs	r0, #12
	.loc	2 714 49 is_stmt 0              @ ../../../Library/StdDriver/src/clk.c:714:49
	ands	r1, r0
	mov	r0, sp
	ldr	r0, [r0, r1]
	ldr	r1, __arm_cp.25_0
	.loc	2 714 46                        @ ../../../Library/StdDriver/src/clk.c:714:46
	adds	r0, r0, r1
	.loc	2 714 20                        @ ../../../Library/StdDriver/src/clk.c:714:20
	str	r0, [sp, #16]
	.loc	2 716 23 is_stmt 1              @ ../../../Library/StdDriver/src/clk.c:716:23
	ldr	r0, [sp, #16]
	ldr	r0, [r0]
	.loc	2 716 55 is_stmt 0              @ ../../../Library/StdDriver/src/clk.c:716:55
	ldr	r1, [sp, #24]
	lsrs	r2, r1, #10
	uxtb	r2, r2
	.loc	2 716 90                        @ ../../../Library/StdDriver/src/clk.c:716:90
	lsls	r1, r1, #22
	lsrs	r1, r1, #27
	.loc	2 716 87                        @ ../../../Library/StdDriver/src/clk.c:716:87
	lsls	r2, r1
	.loc	2 716 52                        @ ../../../Library/StdDriver/src/clk.c:716:52
	ands	r0, r2
	.loc	2 716 124                       @ ../../../Library/StdDriver/src/clk.c:716:124
	lsrs	r0, r1
	.loc	2 716 19                        @ ../../../Library/StdDriver/src/clk.c:716:19
	str	r0, [sp, #20]
	.loc	2 717 5 is_stmt 1               @ ../../../Library/StdDriver/src/clk.c:717:5
	b	.LBB25_2
.Ltmp128:
.LBB25_2:
	.loc	2 719 12                        @ ../../../Library/StdDriver/src/clk.c:719:12
	ldr	r0, [sp, #20]
	.loc	2 719 5 epilogue_begin is_stmt 0 @ ../../../Library/StdDriver/src/clk.c:719:5
	add	sp, #28
	bx	lr
.Ltmp129:
	.p2align	2
@ %bb.3:
	.loc	2 0 5                           @ ../../../Library/StdDriver/src/clk.c:0:5
__arm_cp.25_0:
	.long	1073742368                      @ 0x40000220
.Lcpi_end52:
	.size	__arm_cp.25_0, .Lcpi_end52-__arm_cp.25_0
.Lfunc_end25:
	.size	CLK_GetModuleClockDivider, .Lfunc_end25-CLK_GetModuleClockDivider
	.cfi_endproc
	.cantunwind
	.fnend
                                        @ -- End function
	.hidden	g_CLK_i32ErrCode                @ @g_CLK_i32ErrCode
	.type	g_CLK_i32ErrCode,%object
	.section	.bss.g_CLK_i32ErrCode,"aw",%nobits
	.globl	g_CLK_i32ErrCode
	.p2align	2, 0x0
g_CLK_i32ErrCode:
	.long	0                               @ 0x0
	.size	g_CLK_i32ErrCode, 4

	.type	.L__const.CLK_SetModuleClock.au32SelTbl,%object @ @__const.CLK_SetModuleClock.au32SelTbl
	.section	.rodata.cst16,"aM",%progbits,16
	.p2align	2, 0x0
.L__const.CLK_SetModuleClock.au32SelTbl:
	.long	0                               @ 0x0
	.long	4                               @ 0x4
	.long	8                               @ 0x8
	.long	12                              @ 0xc
	.size	.L__const.CLK_SetModuleClock.au32SelTbl, 16

	.type	.L__const.CLK_SetModuleClock.au32DivTbl,%object @ @__const.CLK_SetModuleClock.au32DivTbl
	.p2align	2, 0x0
.L__const.CLK_SetModuleClock.au32DivTbl:
	.long	0                               @ 0x0
	.long	4                               @ 0x4
	.long	8                               @ 0x8
	.long	16                              @ 0x10
	.size	.L__const.CLK_SetModuleClock.au32DivTbl, 16

	.type	.L__const.CLK_GetModuleClockSource.au32SelTbl,%object @ @__const.CLK_GetModuleClockSource.au32SelTbl
	.p2align	2, 0x0
.L__const.CLK_GetModuleClockSource.au32SelTbl:
	.long	0                               @ 0x0
	.long	4                               @ 0x4
	.long	8                               @ 0x8
	.long	12                              @ 0xc
	.size	.L__const.CLK_GetModuleClockSource.au32SelTbl, 16

	.type	.L__const.CLK_GetModuleClockDivider.au32DivTbl,%object @ @__const.CLK_GetModuleClockDivider.au32DivTbl
	.p2align	2, 0x0
.L__const.CLK_GetModuleClockDivider.au32DivTbl:
	.long	0                               @ 0x0
	.long	4                               @ 0x4
	.long	8                               @ 0x8
	.long	16                              @ 0x10
	.size	.L__const.CLK_GetModuleClockDivider.au32DivTbl, 16

	.section	".note.GNU-stack","",%progbits
	.eabi_attribute	30, 6	@ Tag_ABI_optimization_goals
	.ARM_attribute	16, 1	@ Tag_AV_eba