	.text
	.syntax unified
	.eabi_attribute	67, "2.09"	@ Tag_conformance
	.cpu	cortex-m23
	.eabi_attribute	6, 16	@ Tag_CPU_arch
	.eabi_attribute	7, 77	@ Tag_CPU_arch_profile
	.eabi_attribute	8, 0	@ Tag_ARM_ISA_use
	.eabi_attribute	9, 3	@ Tag_THUMB_ISA_use
	.eabi_attribute	34, 0	@ Tag_CPU_unaligned_access
	.eabi_attribute	17, 1	@ Tag_ABI_PCS_GOT_use
	.eabi_attribute	20, 2	@ Tag_ABI_FP_denormal
	.eabi_attribute	21, 0	@ Tag_ABI_FP_exceptions
	.eabi_attribute	23, 1	@ Tag_ABI_FP_number_model
	.eabi_attribute	24, 1	@ Tag_ABI_align_needed
	.eabi_attribute	25, 1	@ Tag_ABI_align_preserved
	.eabi_attribute	38, 1	@ Tag_ABI_FP_16bit_format
	.eabi_attribute	18, 2	@ Tag_ABI_PCS_wchar_t
	.eabi_attribute	26, 1	@ Tag_ABI_enum_size
	.eabi_attribute	14, 0	@ Tag_ABI_PCS_R9_use
	.file	"EEPROM_Emulate.c"
	.file	1 "C:\\Keil_v5\\ARM\\ARMCLANG\\bin\\..\\include" "stdint.h"
	.file	2 "D:\\SourceCode\\_Avery_M2003\\M2003BSP_FLASH_EMULATE_EEPROM\\SampleCode\\Template\\Keil" "../EEPROM_Emulate.c"
	.file	3 "D:\\SourceCode\\_Avery_M2003\\M2003BSP_FLASH_EMULATE_EEPROM\\SampleCode\\Template\\Keil" "../../../Library/Device/Nuvoton/M2003/Include\\clk_reg.h"
	.file	4 "D:\\SourceCode\\_Avery_M2003\\M2003BSP_FLASH_EMULATE_EEPROM\\SampleCode\\Template\\Keil" "../../../Library/Device/Nuvoton/M2003/Include\\fmc_reg.h"
	.file	5 "D:\\SourceCode\\_Avery_M2003\\M2003BSP_FLASH_EMULATE_EEPROM\\SampleCode\\Template\\Keil" "../../../Library/Device/Nuvoton/M2003/Include\\sys_reg.h"
	.section	.text.FMC_Enable,"ax",%progbits
	.hidden	FMC_Enable                      @ -- Begin function FMC_Enable
	.globl	FMC_Enable
	.p2align	2
	.type	FMC_Enable,%function
	.code	16                              @ @FMC_Enable
	.thumb_func
FMC_Enable:
.Lfunc_begin0:
	.loc	2 21 0                          @ ../EEPROM_Emulate.c:21:0
	.fnstart
	.cfi_sections .debug_frame
	.cfi_startproc
@ %bb.0:
	.save	{r7, lr}
	push	{r7, lr}
	.cfi_def_cfa_offset 8
	.cfi_offset lr, -4
	.cfi_offset r7, -8
.Ltmp0:
	.loc	2 23 3 prologue_end             @ ../EEPROM_Emulate.c:23:3
	bl	SYS_UnlockReg
	ldr	r1, __arm_cp.0_0
	.loc	2 29 15                         @ ../EEPROM_Emulate.c:29:15
	ldr	r0, [r1]
	movs	r2, #2
	orrs	r0, r2
	str	r0, [r1]
	ldr	r1, __arm_cp.0_1
	.loc	2 31 15                         @ ../EEPROM_Emulate.c:31:15
	ldr	r0, [r1]
	movs	r2, #1
	orrs	r0, r2
	str	r0, [r1]
	.loc	2 33 3                          @ ../EEPROM_Emulate.c:33:3
	ldr	r0, [r1]
	movs	r2, #8
	orrs	r0, r2
	str	r0, [r1]
	.loc	2 34 1 epilogue_begin           @ ../EEPROM_Emulate.c:34:1
	pop	{r7, pc}
.Ltmp1:
	.p2align	2
@ %bb.1:
	.loc	2 0 1 is_stmt 0                 @ ../EEPROM_Emulate.c:0:1
__arm_cp.0_0:
	.long	1073742340                      @ 0x40000204
.Lcpi_end0:
	.size	__arm_cp.0_0, .Lcpi_end0-__arm_cp.0_0
__arm_cp.0_1:
	.long	1073790976                      @ 0x4000c000
.Lcpi_end1:
	.size	__arm_cp.0_1, .Lcpi_end1-__arm_cp.0_1
.Lfunc_end0:
	.size	FMC_Enable, .Lfunc_end0-FMC_Enable
	.cfi_endproc
	.cantunwind
	.fnend
                                        @ -- End function
	.section	.text.SYS_UnlockReg,"ax",%progbits
	.p2align	2                               @ -- Begin function SYS_UnlockReg
	.type	SYS_UnlockReg,%function
	.code	16                              @ @SYS_UnlockReg
	.thumb_func
SYS_UnlockReg:
.Lfunc_begin1:
	.fnstart
	.cfi_startproc
@ %bb.0:
	.file	6 "D:\\SourceCode\\_Avery_M2003\\M2003BSP_FLASH_EMULATE_EEPROM\\SampleCode\\Template\\Keil" "../../../Library/StdDriver/inc\\sys.h"
	.loc	6 650 5 prologue_end is_stmt 1  @ ../../../Library/StdDriver/inc\sys.h:650:5
	b	.LBB1_1
.LBB1_1:                                @ =>This Inner Loop Header: Depth=1
	.loc	6 0 5 is_stmt 0                 @ ../../../Library/StdDriver/inc\sys.h:0:5
	ldr	r1, __arm_cp.1_0
	movs	r0, #89
.Ltmp2:
	.loc	6 652 22 is_stmt 1              @ ../../../Library/StdDriver/inc\sys.h:652:22
	str	r0, [r1]
	movs	r0, #22
	.loc	6 653 22                        @ ../../../Library/StdDriver/inc\sys.h:653:22
	str	r0, [r1]
	movs	r0, #136
	.loc	6 654 22                        @ ../../../Library/StdDriver/inc\sys.h:654:22
	str	r0, [r1]
	.loc	6 655 5                         @ ../../../Library/StdDriver/inc\sys.h:655:5
	b	.LBB1_2
.Ltmp3:
.LBB1_2:                                @   in Loop: Header=BB1_1 Depth=1
	.loc	6 0 5 is_stmt 0                 @ ../../../Library/StdDriver/inc\sys.h:0:5
	ldr	r0, __arm_cp.1_0
	.loc	6 656 16 is_stmt 1              @ ../../../Library/StdDriver/inc\sys.h:656:16
	ldr	r0, [r0]
.Ltmp4:
	.loc	6 655 5                         @ ../../../Library/StdDriver/inc\sys.h:655:5
	cmp	r0, #0
	beq	.LBB1_1
	b	.LBB1_3
.Ltmp5:
.LBB1_3:
	.loc	6 657 1                         @ ../../../Library/StdDriver/inc\sys.h:657:1
	bx	lr
.Ltmp6:
	.p2align	2
@ %bb.4:
	.loc	6 0 1 is_stmt 0                 @ ../../../Library/StdDriver/inc\sys.h:0:1
__arm_cp.1_0:
	.long	1073742080                      @ 0x40000100
.Lcpi_end2:
	.size	__arm_cp.1_0, .Lcpi_end2-__arm_cp.1_0
.Lfunc_end1:
	.size	SYS_UnlockReg, .Lfunc_end1-SYS_UnlockReg
	.cfi_endproc
	.cantunwind
	.fnend
                                        @ -- End function
	.section	.text.Init_EEPROM,"ax",%progbits
	.hidden	Init_EEPROM                     @ -- Begin function Init_EEPROM
	.globl	Init_EEPROM
	.p2align	2
	.type	Init_EEPROM,%function
	.code	16                              @ @Init_EEPROM
	.thumb_func
Init_EEPROM:
.Lfunc_begin2:
	.loc	2 45 0 is_stmt 1                @ ../EEPROM_Emulate.c:45:0
	.fnstart
	.cfi_startproc
@ %bb.0:
	.pad	#16
	sub	sp, #16
	.cfi_def_cfa_offset 16
	str	r0, [sp, #8]
	str	r1, [sp, #4]
.Ltmp7:
	.loc	2 49 20 prologue_end            @ ../EEPROM_Emulate.c:49:20
	ldr	r1, [sp, #8]
	.loc	2 49 18 is_stmt 0               @ ../EEPROM_Emulate.c:49:18
	ldr	r0, __arm_cp.2_0
	str	r1, [r0]
	.loc	2 51 18 is_stmt 1               @ ../EEPROM_Emulate.c:51:18
	ldr	r1, [sp, #4]
	.loc	2 51 16 is_stmt 0               @ ../EEPROM_Emulate.c:51:16
	ldr	r2, __arm_cp.2_1
	str	r1, [r2]
.Ltmp8:
	.loc	2 55 6 is_stmt 1                @ ../EEPROM_Emulate.c:55:6
	ldr	r0, [r0]
.Ltmp9:
	.loc	2 55 6 is_stmt 0                @ ../EEPROM_Emulate.c:55:6
	cmp	r0, #129
	blo	.LBB2_2
	b	.LBB2_1
.LBB2_1:
	.loc	2 0 6                           @ ../EEPROM_Emulate.c:0:6
	movs	r0, #1
.Ltmp10:
	.loc	2 56 5 is_stmt 1                @ ../EEPROM_Emulate.c:56:5
	str	r0, [sp, #12]
	b	.LBB2_10
.Ltmp11:
.LBB2_2:
	.loc	2 58 7                          @ ../EEPROM_Emulate.c:58:7
	ldr	r0, __arm_cp.2_1
	ldr	r0, [r0]
	.loc	2 58 28 is_stmt 0               @ ../EEPROM_Emulate.c:58:28
	cbz	r0, .LBB2_4
	b	.LBB2_3
.LBB2_3:
	.loc	2 58 32                         @ ../EEPROM_Emulate.c:58:32
	ldr	r0, __arm_cp.2_1
	ldr	r0, [r0]
.Ltmp12:
	.loc	2 58 6                          @ ../EEPROM_Emulate.c:58:6
	cmp	r0, #9
	blo	.LBB2_5
	b	.LBB2_4
.LBB2_4:
	.loc	2 0 6                           @ ../EEPROM_Emulate.c:0:6
	movs	r0, #2
.Ltmp13:
	.loc	2 59 5 is_stmt 1                @ ../EEPROM_Emulate.c:59:5
	str	r0, [sp, #12]
	b	.LBB2_10
.Ltmp14:
.LBB2_5:
	.loc	2 0 5 is_stmt 0                 @ ../EEPROM_Emulate.c:0:5
	movs	r0, #0
.Ltmp15:
	.loc	2 62 9 is_stmt 1                @ ../EEPROM_Emulate.c:62:9
	str	r0, [sp]
	.loc	2 62 7 is_stmt 0                @ ../EEPROM_Emulate.c:62:7
	b	.LBB2_6
.LBB2_6:                                @ =>This Inner Loop Header: Depth=1
.Ltmp16:
	.loc	2 62 14                         @ ../EEPROM_Emulate.c:62:14
	ldr	r0, [sp]
.Ltmp17:
	.loc	2 62 3                          @ ../EEPROM_Emulate.c:62:3
	cmp	r0, #127
	bhi	.LBB2_9
	b	.LBB2_7
.LBB2_7:                                @   in Loop: Header=BB2_6 Depth=1
.Ltmp18:
	.loc	2 64 18 is_stmt 1               @ ../EEPROM_Emulate.c:64:18
	ldr	r2, [sp]
	.loc	2 64 5 is_stmt 0                @ ../EEPROM_Emulate.c:64:5
	ldr	r1, __arm_cp.2_2
	movs	r0, #255
	.loc	2 64 21                         @ ../EEPROM_Emulate.c:64:21
	strb	r0, [r1, r2]
	.loc	2 65 3 is_stmt 1                @ ../EEPROM_Emulate.c:65:3
	b	.LBB2_8
.Ltmp19:
.LBB2_8:                                @   in Loop: Header=BB2_6 Depth=1
	.loc	2 62 39                         @ ../EEPROM_Emulate.c:62:39
	ldr	r0, [sp]
	adds	r0, r0, #1
	str	r0, [sp]
	.loc	2 62 3 is_stmt 0                @ ../EEPROM_Emulate.c:62:3
	b	.LBB2_6
.Ltmp20:
.LBB2_9:
	.loc	2 0 3                           @ ../EEPROM_Emulate.c:0:3
	movs	r0, #0
	.loc	2 67 3 is_stmt 1                @ ../EEPROM_Emulate.c:67:3
	str	r0, [sp, #12]
	b	.LBB2_10
.LBB2_10:
	.loc	2 68 1                          @ ../EEPROM_Emulate.c:68:1
	ldr	r0, [sp, #12]
	.loc	2 68 1 epilogue_begin is_stmt 0 @ ../EEPROM_Emulate.c:68:1
	add	sp, #16
	bx	lr
.Ltmp21:
	.p2align	2
@ %bb.11:
	.loc	2 0 1                           @ ../EEPROM_Emulate.c:0:1
__arm_cp.2_0:
	.long	Amount_of_Data
.Lcpi_end3:
	.size	__arm_cp.2_0, .Lcpi_end3-__arm_cp.2_0
__arm_cp.2_1:
	.long	Amount_Pages
.Lcpi_end4:
	.size	__arm_cp.2_1, .Lcpi_end4-__arm_cp.2_1
__arm_cp.2_2:
	.long	Written_Data
.Lcpi_end5:
	.size	__arm_cp.2_2, .Lcpi_end5-__arm_cp.2_2
.Lfunc_end2:
	.size	Init_EEPROM, .Lfunc_end2-Init_EEPROM
	.cfi_endproc
	.cantunwind
	.fnend
                                        @ -- End function
	.section	.text.Search_Valid_Page,"ax",%progbits
	.hidden	Search_Valid_Page               @ -- Begin function Search_Valid_Page
	.globl	Search_Valid_Page
	.p2align	2
	.type	Search_Valid_Page,%function
	.code	16                              @ @Search_Valid_Page
	.thumb_func
Search_Valid_Page:
.Lfunc_begin3:
	.loc	2 74 0 is_stmt 1                @ ../EEPROM_Emulate.c:74:0
	.fnstart
	.cfi_startproc
@ %bb.0:
	.save	{r7, lr}
	push	{r7, lr}
	.cfi_def_cfa_offset 8
	.cfi_offset lr, -4
	.cfi_offset r7, -8
	.pad	#32
	sub	sp, #32
	.cfi_def_cfa_offset 40
.Ltmp22:
	.loc	2 80 3 prologue_end             @ ../EEPROM_Emulate.c:80:3
	bl	FMC_Enable
	.loc	2 81 22                         @ ../EEPROM_Emulate.c:81:22
	ldr	r1, __arm_cp.3_0
	movs	r0, #0
	str	r0, [r1]
.Ltmp23:
	.loc	2 84 9                          @ ../EEPROM_Emulate.c:84:9
	str	r0, [sp, #28]
	.loc	2 84 7 is_stmt 0                @ ../EEPROM_Emulate.c:84:7
	b	.LBB3_1
.LBB3_1:                                @ =>This Inner Loop Header: Depth=1
.Ltmp24:
	.loc	2 84 14                         @ ../EEPROM_Emulate.c:84:14
	ldr	r0, [sp, #28]
	.loc	2 84 18                         @ ../EEPROM_Emulate.c:84:18
	ldr	r1, __arm_cp.3_1
	ldr	r1, [r1]
.Ltmp25:
	.loc	2 84 3                          @ ../EEPROM_Emulate.c:84:3
	cmp	r0, r1
	bhs	.LBB3_4
	b	.LBB3_2
.LBB3_2:                                @   in Loop: Header=BB3_1 Depth=1
.Ltmp26:
	.loc	2 86 85 is_stmt 1               @ ../EEPROM_Emulate.c:86:85
	ldr	r0, [sp, #28]
	.loc	2 86 83 is_stmt 0               @ ../EEPROM_Emulate.c:86:83
	lsls	r0, r0, #9
	movw	r1, #30720
	.loc	2 86 60                         @ ../EEPROM_Emulate.c:86:60
	adds	r0, r0, r1
	.loc	2 86 32                         @ ../EEPROM_Emulate.c:86:32
	bl	FMC_Read
	.loc	2 86 17                         @ ../EEPROM_Emulate.c:86:17
	ldr	r1, [sp, #28]
	.loc	2 86 5                          @ ../EEPROM_Emulate.c:86:5
	lsls	r2, r1, #1
	mov	r1, sp
	.loc	2 86 20                         @ ../EEPROM_Emulate.c:86:20
	strh	r0, [r1, r2]
	.loc	2 87 3 is_stmt 1                @ ../EEPROM_Emulate.c:87:3
	b	.LBB3_3
.Ltmp27:
.LBB3_3:                                @   in Loop: Header=BB3_1 Depth=1
	.loc	2 84 33                         @ ../EEPROM_Emulate.c:84:33
	ldr	r0, [sp, #28]
	adds	r0, r0, #1
	str	r0, [sp, #28]
	.loc	2 84 3 is_stmt 0                @ ../EEPROM_Emulate.c:84:3
	b	.LBB3_1
.Ltmp28:
.LBB3_4:
	.loc	2 0 3                           @ ../EEPROM_Emulate.c:0:3
	movs	r0, #0
.Ltmp29:
	.loc	2 90 9 is_stmt 1                @ ../EEPROM_Emulate.c:90:9
	str	r0, [sp, #28]
	.loc	2 90 7 is_stmt 0                @ ../EEPROM_Emulate.c:90:7
	b	.LBB3_5
.LBB3_5:                                @ =>This Inner Loop Header: Depth=1
.Ltmp30:
	.loc	2 90 14                         @ ../EEPROM_Emulate.c:90:14
	ldr	r0, [sp, #28]
	.loc	2 90 18                         @ ../EEPROM_Emulate.c:90:18
	ldr	r1, __arm_cp.3_1
	ldr	r1, [r1]
.Ltmp31:
	.loc	2 90 3                          @ ../EEPROM_Emulate.c:90:3
	cmp	r0, r1
	bhs	.LBB3_10
	b	.LBB3_6
.LBB3_6:                                @   in Loop: Header=BB3_5 Depth=1
.Ltmp32:
	.loc	2 92 20 is_stmt 1               @ ../EEPROM_Emulate.c:92:20
	ldr	r0, [sp, #28]
	.loc	2 92 8 is_stmt 0                @ ../EEPROM_Emulate.c:92:8
	lsls	r1, r0, #1
	mov	r0, sp
	ldrh	r0, [r0, r1]
	ldr	r1, __arm_cp.3_2
.Ltmp33:
	.loc	2 92 8                          @ ../EEPROM_Emulate.c:92:8
	cmp	r0, r1
	beq	.LBB3_8
	b	.LBB3_7
.LBB3_7:                                @   in Loop: Header=BB3_5 Depth=1
.Ltmp34:
	.loc	2 93 28 is_stmt 1               @ ../EEPROM_Emulate.c:93:28
	ldr	r0, [sp, #28]
	.loc	2 93 26 is_stmt 0               @ ../EEPROM_Emulate.c:93:26
	ldr	r1, __arm_cp.3_0
	str	r0, [r1]
	.loc	2 93 7                          @ ../EEPROM_Emulate.c:93:7
	b	.LBB3_8
.Ltmp35:
.LBB3_8:                                @   in Loop: Header=BB3_5 Depth=1
	.loc	2 94 3 is_stmt 1                @ ../EEPROM_Emulate.c:94:3
	b	.LBB3_9
.Ltmp36:
.LBB3_9:                                @   in Loop: Header=BB3_5 Depth=1
	.loc	2 90 33                         @ ../EEPROM_Emulate.c:90:33
	ldr	r0, [sp, #28]
	adds	r0, r0, #1
	str	r0, [sp, #28]
	.loc	2 90 3 is_stmt 0                @ ../EEPROM_Emulate.c:90:3
	b	.LBB3_5
.Ltmp37:
.LBB3_10:
	.loc	2 96 18 is_stmt 1               @ ../EEPROM_Emulate.c:96:18
	ldr	r0, __arm_cp.3_0
	ldr	r0, [r0]
	.loc	2 96 6 is_stmt 0                @ ../EEPROM_Emulate.c:96:6
	lsls	r1, r0, #1
	mov	r0, sp
	ldrh	r0, [r0, r1]
	ldr	r1, __arm_cp.3_2
.Ltmp38:
	.loc	2 96 6                          @ ../EEPROM_Emulate.c:96:6
	cmp	r0, r1
	bne	.LBB3_12
	b	.LBB3_11
.LBB3_11:
.Ltmp39:
	.loc	2 99 59 is_stmt 1               @ ../EEPROM_Emulate.c:99:59
	ldr	r0, __arm_cp.3_0
	ldr	r0, [r0]
	.loc	2 99 57 is_stmt 0               @ ../EEPROM_Emulate.c:99:57
	lsls	r0, r0, #9
	movw	r1, #30720
	.loc	2 99 34                         @ ../EEPROM_Emulate.c:99:34
	adds	r0, r0, r1
	ldr	r1, __arm_cp.3_6
	.loc	2 99 5                          @ ../EEPROM_Emulate.c:99:5
	bl	FMC_Write
	.loc	2 101 20 is_stmt 1              @ ../EEPROM_Emulate.c:101:20
	ldr	r1, __arm_cp.3_5
	movs	r0, #2
	str	r0, [r1]
	.loc	2 102 3                         @ ../EEPROM_Emulate.c:102:3
	b	.LBB3_32
.Ltmp40:
.LBB3_12:
	.loc	2 107 65                        @ ../EEPROM_Emulate.c:107:65
	ldr	r0, __arm_cp.3_0
	ldr	r0, [r0]
	.loc	2 107 63 is_stmt 0              @ ../EEPROM_Emulate.c:107:63
	lsls	r0, r0, #9
	movw	r1, #30720
	.loc	2 107 40                        @ ../EEPROM_Emulate.c:107:40
	adds	r0, r0, r1
	.loc	2 107 12                        @ ../EEPROM_Emulate.c:107:12
	bl	FMC_Read
	.loc	2 107 10                        @ ../EEPROM_Emulate.c:107:10
	str	r0, [sp, #24]
	add	r1, sp, #24
	.loc	2 108 13 is_stmt 1              @ ../EEPROM_Emulate.c:108:13
	ldrh	r2, [r1, #2]
	add	r0, sp, #20
	.loc	2 108 10 is_stmt 0              @ ../EEPROM_Emulate.c:108:10
	strb	r2, [r0]
	.loc	2 109 13 is_stmt 1              @ ../EEPROM_Emulate.c:109:13
	ldrb	r1, [r1, #3]
	add	r2, sp, #16
	.loc	2 109 10 is_stmt 0              @ ../EEPROM_Emulate.c:109:10
	strb	r1, [r2]
.Ltmp41:
	.loc	2 111 8 is_stmt 1               @ ../EEPROM_Emulate.c:111:8
	ldrb	r0, [r0]
.Ltmp42:
	.loc	2 111 8 is_stmt 0               @ ../EEPROM_Emulate.c:111:8
	cmp	r0, #255
	bne	.LBB3_14
	b	.LBB3_13
.LBB3_13:
.Ltmp43:
	.loc	2 114 22 is_stmt 1              @ ../EEPROM_Emulate.c:114:22
	ldr	r1, __arm_cp.3_5
	movs	r0, #2
	str	r0, [r1]
	.loc	2 115 5                         @ ../EEPROM_Emulate.c:115:5
	b	.LBB3_31
.Ltmp44:
.LBB3_14:
	.loc	2 0 5 is_stmt 0                 @ ../EEPROM_Emulate.c:0:5
	add	r0, sp, #20
.Ltmp45:
	.loc	2 119 10 is_stmt 1              @ ../EEPROM_Emulate.c:119:10
	ldrb	r0, [r0]
	.loc	2 119 17 is_stmt 0              @ ../EEPROM_Emulate.c:119:17
	ldr	r1, __arm_cp.3_3
	ldr	r1, [r1]
.Ltmp46:
	.loc	2 119 10                        @ ../EEPROM_Emulate.c:119:10
	cmp	r0, r1
	bhs	.LBB3_16
	b	.LBB3_15
.LBB3_15:
.Ltmp47:
	.loc	2 121 30 is_stmt 1              @ ../EEPROM_Emulate.c:121:30
	ldr	r0, [sp, #16]
	add	r1, sp, #20
	.loc	2 121 22 is_stmt 0              @ ../EEPROM_Emulate.c:121:22
	ldrb	r2, [r1]
	.loc	2 121 9                         @ ../EEPROM_Emulate.c:121:9
	ldr	r1, __arm_cp.3_4
	.loc	2 121 28                        @ ../EEPROM_Emulate.c:121:28
	strb	r0, [r1, r2]
	.loc	2 122 7 is_stmt 1               @ ../EEPROM_Emulate.c:122:7
	b	.LBB3_16
.Ltmp48:
.LBB3_16:
	.loc	2 125 22                        @ ../EEPROM_Emulate.c:125:22
	ldr	r1, __arm_cp.3_5
	movw	r0, #512
	str	r0, [r1]
	movs	r0, #4
.Ltmp49:
	.loc	2 128 13                        @ ../EEPROM_Emulate.c:128:13
	str	r0, [sp, #28]
	.loc	2 128 11 is_stmt 0              @ ../EEPROM_Emulate.c:128:11
	b	.LBB3_17
.LBB3_17:                               @ =>This Inner Loop Header: Depth=1
.Ltmp50:
	.loc	2 128 18                        @ ../EEPROM_Emulate.c:128:18
	ldr	r0, [sp, #28]
.Ltmp51:
	.loc	2 128 7                         @ ../EEPROM_Emulate.c:128:7
	lsrs	r0, r0, #9
	cmp	r0, #0
	bne	.LBB3_30
	b	.LBB3_18
.LBB3_18:                               @   in Loop: Header=BB3_17 Depth=1
.Ltmp52:
	.loc	2 131 69 is_stmt 1              @ ../EEPROM_Emulate.c:131:69
	ldr	r0, __arm_cp.3_0
	ldr	r0, [r0]
	.loc	2 131 67 is_stmt 0              @ ../EEPROM_Emulate.c:131:67
	lsls	r0, r0, #9
	.loc	2 131 91                        @ ../EEPROM_Emulate.c:131:91
	ldr	r1, [sp, #28]
	.loc	2 131 44                        @ ../EEPROM_Emulate.c:131:44
	adds	r0, r0, r1
	movw	r1, #30720
	.loc	2 131 89                        @ ../EEPROM_Emulate.c:131:89
	adds	r0, r0, r1
	.loc	2 131 16                        @ ../EEPROM_Emulate.c:131:16
	bl	FMC_Read
	.loc	2 131 14                        @ ../EEPROM_Emulate.c:131:14
	str	r0, [sp, #24]
	.loc	2 132 17 is_stmt 1              @ ../EEPROM_Emulate.c:132:17
	ldr	r1, [sp, #24]
	add	r0, sp, #20
	.loc	2 132 14 is_stmt 0              @ ../EEPROM_Emulate.c:132:14
	strb	r1, [r0]
	.loc	2 133 17 is_stmt 1              @ ../EEPROM_Emulate.c:133:17
	ldr	r1, [sp, #24]
	.loc	2 133 39 is_stmt 0              @ ../EEPROM_Emulate.c:133:39
	lsrs	r1, r1, #8
	add	r2, sp, #16
	.loc	2 133 14                        @ ../EEPROM_Emulate.c:133:14
	strb	r1, [r2]
.Ltmp53:
	.loc	2 135 12 is_stmt 1              @ ../EEPROM_Emulate.c:135:12
	ldrb	r0, [r0]
.Ltmp54:
	.loc	2 135 12 is_stmt 0              @ ../EEPROM_Emulate.c:135:12
	cmp	r0, #255
	bne	.LBB3_20
	b	.LBB3_19
.LBB3_19:
.Ltmp55:
	.loc	2 138 28 is_stmt 1              @ ../EEPROM_Emulate.c:138:28
	ldr	r0, [sp, #28]
	.loc	2 138 26 is_stmt 0              @ ../EEPROM_Emulate.c:138:26
	ldr	r1, __arm_cp.3_5
	str	r0, [r1]
	.loc	2 139 11 is_stmt 1              @ ../EEPROM_Emulate.c:139:11
	b	.LBB3_30
.Ltmp56:
.LBB3_20:                               @   in Loop: Header=BB3_17 Depth=1
	.loc	2 0 11 is_stmt 0                @ ../EEPROM_Emulate.c:0:11
	add	r0, sp, #20
.Ltmp57:
	.loc	2 144 14 is_stmt 1              @ ../EEPROM_Emulate.c:144:14
	ldrb	r0, [r0]
	.loc	2 144 21 is_stmt 0              @ ../EEPROM_Emulate.c:144:21
	ldr	r1, __arm_cp.3_3
	ldr	r1, [r1]
.Ltmp58:
	.loc	2 144 14                        @ ../EEPROM_Emulate.c:144:14
	cmp	r0, r1
	bhs	.LBB3_22
	b	.LBB3_21
.LBB3_21:                               @   in Loop: Header=BB3_17 Depth=1
.Ltmp59:
	.loc	2 146 34 is_stmt 1              @ ../EEPROM_Emulate.c:146:34
	ldr	r0, [sp, #16]
	add	r1, sp, #20
	.loc	2 146 26 is_stmt 0              @ ../EEPROM_Emulate.c:146:26
	ldrb	r2, [r1]
	.loc	2 146 13                        @ ../EEPROM_Emulate.c:146:13
	ldr	r1, __arm_cp.3_4
	.loc	2 146 32                        @ ../EEPROM_Emulate.c:146:32
	strb	r0, [r1, r2]
	.loc	2 147 11 is_stmt 1              @ ../EEPROM_Emulate.c:147:11
	b	.LBB3_22
.Ltmp60:
.LBB3_22:                               @   in Loop: Header=BB3_17 Depth=1
	.loc	2 0 11 is_stmt 0                @ ../EEPROM_Emulate.c:0:11
	b	.LBB3_23
.LBB3_23:                               @   in Loop: Header=BB3_17 Depth=1
	add	r1, sp, #24
	.loc	2 151 17 is_stmt 1              @ ../EEPROM_Emulate.c:151:17
	ldrh	r2, [r1, #2]
	add	r0, sp, #20
	.loc	2 151 14 is_stmt 0              @ ../EEPROM_Emulate.c:151:14
	strb	r2, [r0]
	.loc	2 152 17 is_stmt 1              @ ../EEPROM_Emulate.c:152:17
	ldrb	r1, [r1, #3]
	add	r2, sp, #16
	.loc	2 152 14 is_stmt 0              @ ../EEPROM_Emulate.c:152:14
	strb	r1, [r2]
.Ltmp61:
	.loc	2 154 12 is_stmt 1              @ ../EEPROM_Emulate.c:154:12
	ldrb	r0, [r0]
.Ltmp62:
	.loc	2 154 12 is_stmt 0              @ ../EEPROM_Emulate.c:154:12
	cmp	r0, #255
	bne	.LBB3_25
	b	.LBB3_24
.LBB3_24:
.Ltmp63:
	.loc	2 157 28 is_stmt 1              @ ../EEPROM_Emulate.c:157:28
	ldr	r0, [sp, #28]
	.loc	2 157 30 is_stmt 0              @ ../EEPROM_Emulate.c:157:30
	adds	r0, r0, #2
	.loc	2 157 26                        @ ../EEPROM_Emulate.c:157:26
	ldr	r1, __arm_cp.3_5
	str	r0, [r1]
	.loc	2 158 11 is_stmt 1              @ ../EEPROM_Emulate.c:158:11
	b	.LBB3_30
.Ltmp64:
.LBB3_25:                               @   in Loop: Header=BB3_17 Depth=1
	.loc	2 0 11 is_stmt 0                @ ../EEPROM_Emulate.c:0:11
	add	r0, sp, #20
.Ltmp65:
	.loc	2 163 14 is_stmt 1              @ ../EEPROM_Emulate.c:163:14
	ldrb	r0, [r0]
	.loc	2 163 21 is_stmt 0              @ ../EEPROM_Emulate.c:163:21
	ldr	r1, __arm_cp.3_3
	ldr	r1, [r1]
.Ltmp66:
	.loc	2 163 14                        @ ../EEPROM_Emulate.c:163:14
	cmp	r0, r1
	bhs	.LBB3_27
	b	.LBB3_26
.LBB3_26:                               @   in Loop: Header=BB3_17 Depth=1
.Ltmp67:
	.loc	2 165 34 is_stmt 1              @ ../EEPROM_Emulate.c:165:34
	ldr	r0, [sp, #16]
	add	r1, sp, #20
	.loc	2 165 26 is_stmt 0              @ ../EEPROM_Emulate.c:165:26
	ldrb	r2, [r1]
	.loc	2 165 13                        @ ../EEPROM_Emulate.c:165:13
	ldr	r1, __arm_cp.3_4
	.loc	2 165 32                        @ ../EEPROM_Emulate.c:165:32
	strb	r0, [r1, r2]
	.loc	2 166 11 is_stmt 1              @ ../EEPROM_Emulate.c:166:11
	b	.LBB3_27
.Ltmp68:
.LBB3_27:                               @   in Loop: Header=BB3_17 Depth=1
	.loc	2 0 11 is_stmt 0                @ ../EEPROM_Emulate.c:0:11
	b	.LBB3_28
.LBB3_28:                               @   in Loop: Header=BB3_17 Depth=1
	.loc	2 168 7 is_stmt 1               @ ../EEPROM_Emulate.c:168:7
	b	.LBB3_29
.Ltmp69:
.LBB3_29:                               @   in Loop: Header=BB3_17 Depth=1
	.loc	2 128 45                        @ ../EEPROM_Emulate.c:128:45
	ldr	r0, [sp, #28]
	adds	r0, r0, #4
	str	r0, [sp, #28]
	.loc	2 128 7 is_stmt 0               @ ../EEPROM_Emulate.c:128:7
	b	.LBB3_17
.Ltmp70:
.LBB3_30:
	.loc	2 0 7                           @ ../EEPROM_Emulate.c:0:7
	b	.LBB3_31
.LBB3_31:
	b	.LBB3_32
.LBB3_32:
	.loc	2 171 1 epilogue_begin is_stmt 1 @ ../EEPROM_Emulate.c:171:1
	add	sp, #32
	pop	{r7, pc}
.Ltmp71:
	.p2align	2
@ %bb.33:
	.loc	2 0 1 is_stmt 0                 @ ../EEPROM_Emulate.c:0:1
__arm_cp.3_0:
	.long	Current_Valid_Page
.Lcpi_end6:
	.size	__arm_cp.3_0, .Lcpi_end6-__arm_cp.3_0
__arm_cp.3_1:
	.long	Amount_Pages
.Lcpi_end7:
	.size	__arm_cp.3_1, .Lcpi_end7-__arm_cp.3_1
__arm_cp.3_2:
	.long	65535                           @ 0xffff
.Lcpi_end8:
	.size	__arm_cp.3_2, .Lcpi_end8-__arm_cp.3_2
__arm_cp.3_3:
	.long	Amount_of_Data
.Lcpi_end9:
	.size	__arm_cp.3_3, .Lcpi_end9-__arm_cp.3_3
__arm_cp.3_4:
	.long	Written_Data
.Lcpi_end10:
	.size	__arm_cp.3_4, .Lcpi_end10-__arm_cp.3_4
__arm_cp.3_5:
	.long	Current_Cursor
.Lcpi_end11:
	.size	__arm_cp.3_5, .Lcpi_end11-__arm_cp.3_5
__arm_cp.3_6:
	.long	4294901760                      @ 0xffff0000
.Lcpi_end12:
	.size	__arm_cp.3_6, .Lcpi_end12-__arm_cp.3_6
.Lfunc_end3:
	.size	Search_Valid_Page, .Lfunc_end3-Search_Valid_Page
	.cfi_endproc
	.cantunwind
	.fnend
                                        @ -- End function
	.section	.text.Read_Data,"ax",%progbits
	.hidden	Read_Data                       @ -- Begin function Read_Data
	.globl	Read_Data
	.p2align	2
	.type	Read_Data,%function
	.code	16                              @ @Read_Data
	.thumb_func
Read_Data:
.Lfunc_begin4:
	.loc	2 181 0 is_stmt 1               @ ../EEPROM_Emulate.c:181:0
	.fnstart
	.cfi_startproc
@ %bb.0:
	.pad	#12
	sub	sp, #12
	.cfi_def_cfa_offset 12
	mov	r2, r0
                                        @ kill: def $r0 killed $r2
	add	r0, sp, #4
	strb	r2, [r0]
	str	r1, [sp]
.Ltmp72:
	.loc	2 184 6 prologue_end            @ ../EEPROM_Emulate.c:184:6
	ldrb	r0, [r0]
	.loc	2 184 15 is_stmt 0              @ ../EEPROM_Emulate.c:184:15
	ldr	r1, __arm_cp.4_0
	ldr	r1, [r1]
.Ltmp73:
	.loc	2 184 6                         @ ../EEPROM_Emulate.c:184:6
	cmp	r0, r1
	blo	.LBB4_2
	b	.LBB4_1
.LBB4_1:
	.loc	2 0 6                           @ ../EEPROM_Emulate.c:0:6
	movs	r0, #3
.Ltmp74:
	.loc	2 186 5 is_stmt 1               @ ../EEPROM_Emulate.c:186:5
	str	r0, [sp, #8]
	b	.LBB4_3
.Ltmp75:
.LBB4_2:
	.loc	2 0 5 is_stmt 0                 @ ../EEPROM_Emulate.c:0:5
	add	r0, sp, #4
	.loc	2 190 24 is_stmt 1              @ ../EEPROM_Emulate.c:190:24
	ldrb	r1, [r0]
	.loc	2 190 11 is_stmt 0              @ ../EEPROM_Emulate.c:190:11
	ldr	r0, __arm_cp.4_1
	ldrb	r0, [r0, r1]
	.loc	2 190 4                         @ ../EEPROM_Emulate.c:190:4
	ldr	r1, [sp]
	.loc	2 190 9                         @ ../EEPROM_Emulate.c:190:9
	strb	r0, [r1]
	movs	r0, #0
	.loc	2 192 3 is_stmt 1               @ ../EEPROM_Emulate.c:192:3
	str	r0, [sp, #8]
	b	.LBB4_3
.LBB4_3:
	.loc	2 193 1                         @ ../EEPROM_Emulate.c:193:1
	ldr	r0, [sp, #8]
	.loc	2 193 1 epilogue_begin is_stmt 0 @ ../EEPROM_Emulate.c:193:1
	add	sp, #12
	bx	lr
.Ltmp76:
	.p2align	2
@ %bb.4:
	.loc	2 0 1                           @ ../EEPROM_Emulate.c:0:1
__arm_cp.4_0:
	.long	Amount_of_Data
.Lcpi_end13:
	.size	__arm_cp.4_0, .Lcpi_end13-__arm_cp.4_0
__arm_cp.4_1:
	.long	Written_Data
.Lcpi_end14:
	.size	__arm_cp.4_1, .Lcpi_end14-__arm_cp.4_1
.Lfunc_end4:
	.size	Read_Data, .Lfunc_end4-Read_Data
	.cfi_endproc
	.cantunwind
	.fnend
                                        @ -- End function
	.section	.text.Write_Data,"ax",%progbits
	.hidden	Write_Data                      @ -- Begin function Write_Data
	.globl	Write_Data
	.p2align	2
	.type	Write_Data,%function
	.code	16                              @ @Write_Data
	.thumb_func
Write_Data:
.Lfunc_begin5:
	.loc	2 205 0 is_stmt 1               @ ../EEPROM_Emulate.c:205:0
	.fnstart
	.cfi_startproc
@ %bb.0:
	.save	{r4, lr}
	push	{r4, lr}
	.cfi_def_cfa_offset 8
	.cfi_offset lr, -4
	.cfi_offset r4, -8
	.pad	#40
	sub	sp, #40
	.cfi_def_cfa_offset 48
	mov	r2, r0
                                        @ kill: def $r0 killed $r1
                                        @ kill: def $r0 killed $r2
	add	r0, sp, #32
	strb	r2, [r0]
	add	r2, sp, #28
	strb	r1, [r2]
	movs	r1, #0
.Ltmp77:
	.loc	2 206 12 prologue_end           @ ../EEPROM_Emulate.c:206:12
	str	r1, [sp, #24]
.Ltmp78:
	.loc	2 209 6                         @ ../EEPROM_Emulate.c:209:6
	ldrb	r0, [r0]
	.loc	2 209 15 is_stmt 0              @ ../EEPROM_Emulate.c:209:15
	ldr	r1, __arm_cp.5_0
	ldr	r1, [r1]
.Ltmp79:
	.loc	2 209 6                         @ ../EEPROM_Emulate.c:209:6
	cmp	r0, r1
	blo	.LBB5_2
	b	.LBB5_1
.LBB5_1:
	.loc	2 0 6                           @ ../EEPROM_Emulate.c:0:6
	movs	r0, #3
.Ltmp80:
	.loc	2 211 5 is_stmt 1               @ ../EEPROM_Emulate.c:211:5
	str	r0, [sp, #36]
	b	.LBB5_13
.Ltmp81:
.LBB5_2:
	.loc	2 0 5 is_stmt 0                 @ ../EEPROM_Emulate.c:0:5
	add	r0, sp, #32
.Ltmp82:
	.loc	2 214 19 is_stmt 1              @ ../EEPROM_Emulate.c:214:19
	ldrb	r1, [r0]
	.loc	2 214 6 is_stmt 0               @ ../EEPROM_Emulate.c:214:6
	ldr	r0, __arm_cp.5_1
	ldrb	r0, [r0, r1]
	add	r1, sp, #28
	.loc	2 214 29                        @ ../EEPROM_Emulate.c:214:29
	ldrb	r1, [r1]
.Ltmp83:
	.loc	2 214 6                         @ ../EEPROM_Emulate.c:214:6
	cmp	r0, r1
	bne	.LBB5_4
	b	.LBB5_3
.LBB5_3:
	.loc	2 0 6                           @ ../EEPROM_Emulate.c:0:6
	movs	r0, #0
.Ltmp84:
	.loc	2 216 5 is_stmt 1               @ ../EEPROM_Emulate.c:216:5
	str	r0, [sp, #36]
	b	.LBB5_13
.Ltmp85:
.LBB5_4:
	.loc	2 220 6                         @ ../EEPROM_Emulate.c:220:6
	ldr	r0, __arm_cp.5_2
	ldr	r0, [r0]
.Ltmp86:
	.loc	2 220 6 is_stmt 0               @ ../EEPROM_Emulate.c:220:6
	lsrs	r0, r0, #9
	cbz	r0, .LBB5_6
	b	.LBB5_5
.LBB5_5:
.Ltmp87:
	.loc	2 222 5 is_stmt 1               @ ../EEPROM_Emulate.c:222:5
	bl	Manage_Next_Page
	.loc	2 223 3                         @ ../EEPROM_Emulate.c:223:3
	b	.LBB5_6
.Ltmp88:
.LBB5_6:
	.loc	2 226 3                         @ ../EEPROM_Emulate.c:226:3
	bl	FMC_Enable
.Ltmp89:
	.loc	2 229 7                         @ ../EEPROM_Emulate.c:229:7
	ldr	r0, __arm_cp.5_2
.Ltmp90:
	.loc	2 229 6 is_stmt 0               @ ../EEPROM_Emulate.c:229:6
	ldrb	r0, [r0]
	lsls	r0, r0, #30
	cbnz	r0, .LBB5_8
	b	.LBB5_7
.LBB5_7:
	.loc	2 0 6                           @ ../EEPROM_Emulate.c:0:6
	add	r0, sp, #32
.Ltmp91:
	.loc	2 232 26 is_stmt 1              @ ../EEPROM_Emulate.c:232:26
	str	r0, [sp, #20]                   @ 4-byte Spill
	ldrb	r0, [r0]
	.loc	2 232 52 is_stmt 0              @ ../EEPROM_Emulate.c:232:52
	ldr	r1, [sp, #28]
	.loc	2 232 57                        @ ../EEPROM_Emulate.c:232:57
	lsls	r1, r1, #8
	.loc	2 232 23                        @ ../EEPROM_Emulate.c:232:23
	adds	r0, r0, r1
	ldr	r1, __arm_cp.5_5
	.loc	2 232 49                        @ ../EEPROM_Emulate.c:232:49
	orrs	r0, r1
	.loc	2 232 10                        @ ../EEPROM_Emulate.c:232:10
	str	r0, [sp, #24]
	.loc	2 233 59 is_stmt 1              @ ../EEPROM_Emulate.c:233:59
	ldr	r0, __arm_cp.5_3
	ldr	r0, [r0]
	.loc	2 233 57 is_stmt 0              @ ../EEPROM_Emulate.c:233:57
	lsls	r0, r0, #9
	.loc	2 233 81                        @ ../EEPROM_Emulate.c:233:81
	ldr	r1, __arm_cp.5_2
	ldr	r1, [r1]
	.loc	2 233 34                        @ ../EEPROM_Emulate.c:233:34
	adds	r0, r0, r1
	movw	r1, #30720
	.loc	2 233 79                        @ ../EEPROM_Emulate.c:233:79
	adds	r0, r0, r1
	.loc	2 233 97                        @ ../EEPROM_Emulate.c:233:97
	ldr	r1, [sp, #24]
	.loc	2 233 5                         @ ../EEPROM_Emulate.c:233:5
	bl	FMC_Write
	ldr	r1, [sp, #20]                   @ 4-byte Reload
	.loc	2 235 27 is_stmt 1              @ ../EEPROM_Emulate.c:235:27
	ldr	r0, [sp, #28]
	.loc	2 235 18 is_stmt 0              @ ../EEPROM_Emulate.c:235:18
	ldrb	r2, [r1]
	.loc	2 235 5                         @ ../EEPROM_Emulate.c:235:5
	ldr	r1, __arm_cp.5_1
	.loc	2 235 25                        @ ../EEPROM_Emulate.c:235:25
	strb	r0, [r1, r2]
	.loc	2 236 3 is_stmt 1               @ ../EEPROM_Emulate.c:236:3
	b	.LBB5_9
.Ltmp92:
.LBB5_8:
	.loc	2 241 65                        @ ../EEPROM_Emulate.c:241:65
	ldr	r0, __arm_cp.5_3
	str	r0, [sp, #4]                    @ 4-byte Spill
	ldr	r0, [r0]
	.loc	2 241 63 is_stmt 0              @ ../EEPROM_Emulate.c:241:63
	lsls	r1, r0, #9
	.loc	2 241 88                        @ ../EEPROM_Emulate.c:241:88
	ldr	r0, __arm_cp.5_2
	str	r0, [sp, #12]                   @ 4-byte Spill
	ldr	r0, [r0]
	.loc	2 241 40                        @ ../EEPROM_Emulate.c:241:40
	adds	r0, r0, r1
	ldr	r1, __arm_cp.5_4
	.loc	2 241 85                        @ ../EEPROM_Emulate.c:241:85
	str	r1, [sp, #8]                    @ 4-byte Spill
	adds	r0, r0, r1
	.loc	2 241 12                        @ ../EEPROM_Emulate.c:241:12
	bl	FMC_Read
	ldr	r2, [sp, #4]                    @ 4-byte Reload
	ldr	r1, [sp, #8]                    @ 4-byte Reload
	mov	r3, r0
	.loc	2 241 10                        @ ../EEPROM_Emulate.c:241:10
	ldr	r0, [sp, #12]                   @ 4-byte Reload
	str	r3, [sp, #24]
	add	r3, sp, #24
	.loc	2 243 10 is_stmt 1              @ ../EEPROM_Emulate.c:243:10
	ldrh	r3, [r3]
	str	r3, [sp, #24]
	add	r3, sp, #32
	.loc	2 244 14                        @ ../EEPROM_Emulate.c:244:14
	str	r3, [sp, #16]                   @ 4-byte Spill
	ldrb	r3, [r3]
	.loc	2 244 20 is_stmt 0              @ ../EEPROM_Emulate.c:244:20
	lsls	r3, r3, #16
	.loc	2 244 41                        @ ../EEPROM_Emulate.c:244:41
	ldr	r4, [sp, #28]
	.loc	2 244 46                        @ ../EEPROM_Emulate.c:244:46
	lsls	r4, r4, #24
	.loc	2 244 38                        @ ../EEPROM_Emulate.c:244:38
	adds	r4, r3, r4
	.loc	2 244 10                        @ ../EEPROM_Emulate.c:244:10
	ldr	r3, [sp, #24]
	orrs	r3, r4
	str	r3, [sp, #24]
	.loc	2 246 59 is_stmt 1              @ ../EEPROM_Emulate.c:246:59
	ldr	r2, [r2]
	.loc	2 246 57 is_stmt 0              @ ../EEPROM_Emulate.c:246:57
	lsls	r2, r2, #9
	.loc	2 246 82                        @ ../EEPROM_Emulate.c:246:82
	ldr	r0, [r0]
	.loc	2 246 34                        @ ../EEPROM_Emulate.c:246:34
	adds	r0, r0, r2
	.loc	2 246 79                        @ ../EEPROM_Emulate.c:246:79
	adds	r0, r0, r1
	.loc	2 246 103                       @ ../EEPROM_Emulate.c:246:103
	ldr	r1, [sp, #24]
	.loc	2 246 5                         @ ../EEPROM_Emulate.c:246:5
	bl	FMC_Write
	ldr	r1, [sp, #16]                   @ 4-byte Reload
	.loc	2 248 27 is_stmt 1              @ ../EEPROM_Emulate.c:248:27
	ldr	r0, [sp, #28]
	.loc	2 248 18 is_stmt 0              @ ../EEPROM_Emulate.c:248:18
	ldrb	r2, [r1]
	.loc	2 248 5                         @ ../EEPROM_Emulate.c:248:5
	ldr	r1, __arm_cp.5_1
	.loc	2 248 25                        @ ../EEPROM_Emulate.c:248:25
	strb	r0, [r1, r2]
	b	.LBB5_9
.Ltmp93:
.LBB5_9:
	.loc	2 252 6 is_stmt 1               @ ../EEPROM_Emulate.c:252:6
	ldr	r0, __arm_cp.5_2
	ldr	r0, [r0]
	movw	r1, #510
.Ltmp94:
	.loc	2 252 6 is_stmt 0               @ ../EEPROM_Emulate.c:252:6
	cmp	r0, r1
	bne	.LBB5_11
	b	.LBB5_10
.LBB5_10:
.Ltmp95:
	.loc	2 255 5 is_stmt 1               @ ../EEPROM_Emulate.c:255:5
	bl	Manage_Next_Page
	.loc	2 256 3                         @ ../EEPROM_Emulate.c:256:3
	b	.LBB5_12
.Ltmp96:
.LBB5_11:
	.loc	2 261 20                        @ ../EEPROM_Emulate.c:261:20
	ldr	r1, __arm_cp.5_2
	ldr	r0, [r1]
	adds	r0, r0, #2
	str	r0, [r1]
	b	.LBB5_12
.Ltmp97:
.LBB5_12:
	.loc	2 0 20 is_stmt 0                @ ../EEPROM_Emulate.c:0:20
	movs	r0, #0
	.loc	2 264 3 is_stmt 1               @ ../EEPROM_Emulate.c:264:3
	str	r0, [sp, #36]
	b	.LBB5_13
.LBB5_13:
	.loc	2 265 1                         @ ../EEPROM_Emulate.c:265:1
	ldr	r0, [sp, #36]
	.loc	2 265 1 epilogue_begin is_stmt 0 @ ../EEPROM_Emulate.c:265:1
	add	sp, #40
	pop	{r4, pc}
.Ltmp98:
	.p2align	2
@ %bb.14:
	.loc	2 0 1                           @ ../EEPROM_Emulate.c:0:1
__arm_cp.5_0:
	.long	Amount_of_Data
.Lcpi_end15:
	.size	__arm_cp.5_0, .Lcpi_end15-__arm_cp.5_0
__arm_cp.5_1:
	.long	Written_Data
.Lcpi_end16:
	.size	__arm_cp.5_1, .Lcpi_end16-__arm_cp.5_1
__arm_cp.5_2:
	.long	Current_Cursor
.Lcpi_end17:
	.size	__arm_cp.5_2, .Lcpi_end17-__arm_cp.5_2
__arm_cp.5_3:
	.long	Current_Valid_Page
.Lcpi_end18:
	.size	__arm_cp.5_3, .Lcpi_end18-__arm_cp.5_3
__arm_cp.5_4:
	.long	30718                           @ 0x77fe
.Lcpi_end19:
	.size	__arm_cp.5_4, .Lcpi_end19-__arm_cp.5_4
__arm_cp.5_5:
	.long	4294901760                      @ 0xffff0000
.Lcpi_end20:
	.size	__arm_cp.5_5, .Lcpi_end20-__arm_cp.5_5
.Lfunc_end5:
	.size	Write_Data, .Lfunc_end5-Write_Data
	.cfi_endproc
	.cantunwind
	.fnend
                                        @ -- End function
	.section	.text.Manage_Next_Page,"ax",%progbits
	.hidden	Manage_Next_Page                @ -- Begin function Manage_Next_Page
	.globl	Manage_Next_Page
	.p2align	2
	.type	Manage_Next_Page,%function
	.code	16                              @ @Manage_Next_Page
	.thumb_func
Manage_Next_Page:
.Lfunc_begin6:
	.loc	2 271 0 is_stmt 1               @ ../EEPROM_Emulate.c:271:0
	.fnstart
	.cfi_startproc
@ %bb.0:
	.save	{r7, lr}
	push	{r7, lr}
	.cfi_def_cfa_offset 8
	.cfi_offset lr, -4
	.cfi_offset r7, -8
	.pad	#48
	sub	sp, #48
	.cfi_def_cfa_offset 56
	movs	r0, #0
.Ltmp99:
	.loc	2 272 12 prologue_end           @ ../EEPROM_Emulate.c:272:12
	str	r0, [sp, #44]
	.loc	2 272 31 is_stmt 0              @ ../EEPROM_Emulate.c:272:31
	str	r0, [sp, #32]
	.loc	2 272 41                        @ ../EEPROM_Emulate.c:272:41
	str	r0, [sp, #28]
	.loc	2 276 66 is_stmt 1              @ ../EEPROM_Emulate.c:276:66
	ldr	r0, __arm_cp.6_0
	str	r0, [sp, #20]                   @ 4-byte Spill
	ldr	r0, [r0]
	.loc	2 276 64 is_stmt 0              @ ../EEPROM_Emulate.c:276:64
	lsls	r0, r0, #9
	movw	r1, #30720
	.loc	2 276 41                        @ ../EEPROM_Emulate.c:276:41
	adds	r0, r0, r1
	.loc	2 276 13                        @ ../EEPROM_Emulate.c:276:13
	bl	FMC_Read
	mov	r1, r0
	.loc	2 276 11                        @ ../EEPROM_Emulate.c:276:11
	ldr	r0, [sp, #20]                   @ 4-byte Reload
	str	r1, [sp, #36]
.Ltmp100:
	.loc	2 279 7 is_stmt 1               @ ../EEPROM_Emulate.c:279:7
	ldr	r0, [r0]
	.loc	2 279 26 is_stmt 0              @ ../EEPROM_Emulate.c:279:26
	adds	r0, r0, #1
	.loc	2 279 34                        @ ../EEPROM_Emulate.c:279:34
	ldr	r1, __arm_cp.6_1
	ldr	r1, [r1]
.Ltmp101:
	.loc	2 279 6                         @ ../EEPROM_Emulate.c:279:6
	cmp	r0, r1
	bne	.LBB6_2
	b	.LBB6_1
.LBB6_1:
	.loc	2 0 6                           @ ../EEPROM_Emulate.c:0:6
	movs	r0, #0
.Ltmp102:
	.loc	2 281 14 is_stmt 1              @ ../EEPROM_Emulate.c:281:14
	str	r0, [sp, #24]
	.loc	2 283 12                        @ ../EEPROM_Emulate.c:283:12
	ldr	r0, [sp, #36]
	adds	r0, r0, #1
	str	r0, [sp, #36]
	.loc	2 284 3                         @ ../EEPROM_Emulate.c:284:3
	b	.LBB6_3
.Ltmp103:
.LBB6_2:
	.loc	2 287 16                        @ ../EEPROM_Emulate.c:287:16
	ldr	r0, __arm_cp.6_0
	ldr	r0, [r0]
	.loc	2 287 35 is_stmt 0              @ ../EEPROM_Emulate.c:287:35
	adds	r0, r0, #1
	.loc	2 287 14                        @ ../EEPROM_Emulate.c:287:14
	str	r0, [sp, #24]
	b	.LBB6_3
.Ltmp104:
.LBB6_3:
	.loc	2 291 3 is_stmt 1               @ ../EEPROM_Emulate.c:291:3
	bl	FMC_Enable
	.loc	2 294 3                         @ ../EEPROM_Emulate.c:294:3
	b	.LBB6_4
.LBB6_4:                                @ =>This Inner Loop Header: Depth=1
	.loc	2 294 10 is_stmt 0              @ ../EEPROM_Emulate.c:294:10
	ldr	r1, [sp, #44]
	.loc	2 294 14                        @ ../EEPROM_Emulate.c:294:14
	ldr	r0, __arm_cp.6_2
	ldr	r2, [r0]
	movs	r0, #0
	.loc	2 294 30                        @ ../EEPROM_Emulate.c:294:30
	cmp	r1, r2
	str	r0, [sp, #16]                   @ 4-byte Spill
	bhs	.LBB6_6
	b	.LBB6_5
.LBB6_5:                                @   in Loop: Header=BB6_4 Depth=1
	.loc	2 294 47                        @ ../EEPROM_Emulate.c:294:47
	ldr	r1, [sp, #44]
	.loc	2 294 34                        @ ../EEPROM_Emulate.c:294:34
	ldr	r0, __arm_cp.6_3
	ldrb	r0, [r0, r1]
	.loc	2 294 50                        @ ../EEPROM_Emulate.c:294:50
	subs	r0, #255
	rsbs	r1, r0, #0
	adcs	r0, r1
	str	r0, [sp, #16]                   @ 4-byte Spill
	b	.LBB6_6
.LBB6_6:                                @   in Loop: Header=BB6_4 Depth=1
	.loc	2 0 0                           @ ../EEPROM_Emulate.c:0:0
	ldr	r0, [sp, #16]                   @ 4-byte Reload
	.loc	2 294 3                         @ ../EEPROM_Emulate.c:294:3
	lsls	r0, r0, #31
	cbz	r0, .LBB6_8
	b	.LBB6_7
.LBB6_7:                                @   in Loop: Header=BB6_4 Depth=1
.Ltmp105:
	.loc	2 296 6 is_stmt 1               @ ../EEPROM_Emulate.c:296:6
	ldr	r0, [sp, #44]
	adds	r0, r0, #1
	str	r0, [sp, #44]
.Ltmp106:
	.loc	2 294 3                         @ ../EEPROM_Emulate.c:294:3
	b	.LBB6_4
.LBB6_8:
.Ltmp107:
	.loc	2 299 6                         @ ../EEPROM_Emulate.c:299:6
	ldr	r0, [sp, #44]
	.loc	2 299 11 is_stmt 0              @ ../EEPROM_Emulate.c:299:11
	ldr	r1, __arm_cp.6_2
	ldr	r1, [r1]
.Ltmp108:
	.loc	2 299 6                         @ ../EEPROM_Emulate.c:299:6
	cmp	r0, r1
	blo	.LBB6_10
	b	.LBB6_9
.LBB6_9:
	.loc	2 0 6                           @ ../EEPROM_Emulate.c:0:6
	add	r1, sp, #36
	ldr	r0, __arm_cp.6_6
.Ltmp109:
	.loc	2 302 13 is_stmt 1              @ ../EEPROM_Emulate.c:302:13
	strh	r0, [r1, #2]
	.loc	2 303 59                        @ ../EEPROM_Emulate.c:303:59
	ldr	r0, [sp, #24]
	.loc	2 303 57 is_stmt 0              @ ../EEPROM_Emulate.c:303:57
	lsls	r0, r0, #9
	movw	r1, #30720
	.loc	2 303 34                        @ ../EEPROM_Emulate.c:303:34
	str	r1, [sp, #8]                    @ 4-byte Spill
	adds	r0, r0, r1
	.loc	2 303 70                        @ ../EEPROM_Emulate.c:303:70
	ldr	r1, [sp, #36]
	.loc	2 303 5                         @ ../EEPROM_Emulate.c:303:5
	bl	FMC_Write
	ldr	r1, [sp, #8]                    @ 4-byte Reload
	.loc	2 304 20 is_stmt 1              @ ../EEPROM_Emulate.c:304:20
	ldr	r2, __arm_cp.6_4
	movs	r0, #2
	str	r0, [r2]
	.loc	2 305 59                        @ ../EEPROM_Emulate.c:305:59
	ldr	r0, __arm_cp.6_0
	str	r0, [sp, #12]                   @ 4-byte Spill
	ldr	r0, [r0]
	.loc	2 305 57 is_stmt 0              @ ../EEPROM_Emulate.c:305:57
	lsls	r0, r0, #9
	.loc	2 305 34                        @ ../EEPROM_Emulate.c:305:34
	adds	r0, r0, r1
	.loc	2 305 5                         @ ../EEPROM_Emulate.c:305:5
	bl	FMC_Erase
	ldr	r1, [sp, #12]                   @ 4-byte Reload
	.loc	2 306 26 is_stmt 1              @ ../EEPROM_Emulate.c:306:26
	ldr	r0, [sp, #24]
	.loc	2 306 24 is_stmt 0              @ ../EEPROM_Emulate.c:306:24
	str	r0, [r1]
	.loc	2 307 5 is_stmt 1               @ ../EEPROM_Emulate.c:307:5
	b	.LBB6_23
.Ltmp110:
.LBB6_10:
	.loc	2 0 5 is_stmt 0                 @ ../EEPROM_Emulate.c:0:5
	add	r0, sp, #36
	.loc	2 311 11 is_stmt 1              @ ../EEPROM_Emulate.c:311:11
	ldrh	r0, [r0]
	str	r0, [sp, #36]
	.loc	2 312 15                        @ ../EEPROM_Emulate.c:312:15
	ldr	r2, [sp, #44]
	.loc	2 312 17 is_stmt 0              @ ../EEPROM_Emulate.c:312:17
	lsls	r1, r2, #16
	.loc	2 312 38                        @ ../EEPROM_Emulate.c:312:38
	ldr	r0, __arm_cp.6_3
	ldrb	r0, [r0, r2]
	.loc	2 312 54                        @ ../EEPROM_Emulate.c:312:54
	lsls	r0, r0, #24
	.loc	2 312 35                        @ ../EEPROM_Emulate.c:312:35
	orrs	r1, r0
	.loc	2 312 11                        @ ../EEPROM_Emulate.c:312:11
	ldr	r0, [sp, #36]
	orrs	r0, r1
	str	r0, [sp, #36]
	.loc	2 313 57 is_stmt 1              @ ../EEPROM_Emulate.c:313:57
	ldr	r0, [sp, #24]
	.loc	2 313 55 is_stmt 0              @ ../EEPROM_Emulate.c:313:55
	lsls	r0, r0, #9
	movw	r1, #30720
	.loc	2 313 32                        @ ../EEPROM_Emulate.c:313:32
	adds	r0, r0, r1
	.loc	2 313 68                        @ ../EEPROM_Emulate.c:313:68
	ldr	r1, [sp, #36]
	.loc	2 313 3                         @ ../EEPROM_Emulate.c:313:3
	bl	FMC_Write
	.loc	2 314 4 is_stmt 1               @ ../EEPROM_Emulate.c:314:4
	ldr	r0, [sp, #44]
	adds	r0, r0, #1
	str	r0, [sp, #44]
	movs	r0, #4
.Ltmp111:
	.loc	2 316 9                         @ ../EEPROM_Emulate.c:316:9
	str	r0, [sp, #40]
	.loc	2 316 7 is_stmt 0               @ ../EEPROM_Emulate.c:316:7
	b	.LBB6_11
.LBB6_11:                               @ =>This Inner Loop Header: Depth=1
.Ltmp112:
	.loc	2 316 14                        @ ../EEPROM_Emulate.c:316:14
	ldr	r0, [sp, #44]
	.loc	2 316 18                        @ ../EEPROM_Emulate.c:316:18
	ldr	r1, __arm_cp.6_2
	ldr	r1, [r1]
.Ltmp113:
	.loc	2 316 3                         @ ../EEPROM_Emulate.c:316:3
	cmp	r0, r1
	bhs	.LBB6_20
	b	.LBB6_12
.LBB6_12:                               @   in Loop: Header=BB6_11 Depth=1
.Ltmp114:
	.loc	2 319 21 is_stmt 1              @ ../EEPROM_Emulate.c:319:21
	ldr	r1, [sp, #44]
	.loc	2 319 8 is_stmt 0               @ ../EEPROM_Emulate.c:319:8
	ldr	r0, __arm_cp.6_3
	ldrb	r0, [r0, r1]
.Ltmp115:
	.loc	2 319 8                         @ ../EEPROM_Emulate.c:319:8
	cmp	r0, #255
	bne	.LBB6_14
	b	.LBB6_13
.LBB6_13:                               @   in Loop: Header=BB6_11 Depth=1
.Ltmp116:
	.loc	2 321 7 is_stmt 1               @ ../EEPROM_Emulate.c:321:7
	b	.LBB6_19
.Ltmp117:
.LBB6_14:                               @   in Loop: Header=BB6_11 Depth=1
	.loc	2 328 10                        @ ../EEPROM_Emulate.c:328:10
	ldr	r0, [sp, #28]
.Ltmp118:
	.loc	2 328 10 is_stmt 0              @ ../EEPROM_Emulate.c:328:10
	cbnz	r0, .LBB6_16
	b	.LBB6_15
.LBB6_15:                               @   in Loop: Header=BB6_11 Depth=1
.Ltmp119:
	.loc	2 330 18 is_stmt 1              @ ../EEPROM_Emulate.c:330:18
	ldr	r1, [sp, #44]
	.loc	2 330 40 is_stmt 0              @ ../EEPROM_Emulate.c:330:40
	ldr	r0, __arm_cp.6_3
	ldrb	r0, [r0, r1]
	.loc	2 330 56                        @ ../EEPROM_Emulate.c:330:56
	lsls	r0, r0, #8
	.loc	2 330 37                        @ ../EEPROM_Emulate.c:330:37
	orrs	r1, r0
	.loc	2 330 14                        @ ../EEPROM_Emulate.c:330:14
	ldr	r0, [sp, #32]
	orrs	r0, r1
	str	r0, [sp, #32]
	movs	r0, #1
	.loc	2 331 19 is_stmt 1              @ ../EEPROM_Emulate.c:331:19
	str	r0, [sp, #28]
	.loc	2 332 7                         @ ../EEPROM_Emulate.c:332:7
	b	.LBB6_17
.Ltmp120:
.LBB6_16:                               @   in Loop: Header=BB6_11 Depth=1
	.loc	2 336 18                        @ ../EEPROM_Emulate.c:336:18
	ldr	r2, [sp, #44]
	.loc	2 336 20 is_stmt 0              @ ../EEPROM_Emulate.c:336:20
	lsls	r1, r2, #16
	.loc	2 336 41                        @ ../EEPROM_Emulate.c:336:41
	ldr	r0, __arm_cp.6_3
	ldrb	r0, [r0, r2]
	.loc	2 336 57                        @ ../EEPROM_Emulate.c:336:57
	lsls	r0, r0, #24
	.loc	2 336 38                        @ ../EEPROM_Emulate.c:336:38
	orrs	r1, r0
	.loc	2 336 14                        @ ../EEPROM_Emulate.c:336:14
	ldr	r0, [sp, #32]
	orrs	r0, r1
	str	r0, [sp, #32]
	.loc	2 337 63 is_stmt 1              @ ../EEPROM_Emulate.c:337:63
	ldr	r0, [sp, #24]
	.loc	2 337 61 is_stmt 0              @ ../EEPROM_Emulate.c:337:61
	lsls	r0, r0, #9
	.loc	2 337 75                        @ ../EEPROM_Emulate.c:337:75
	ldr	r1, [sp, #40]
	.loc	2 337 38                        @ ../EEPROM_Emulate.c:337:38
	adds	r0, r0, r1
	movw	r1, #30720
	.loc	2 337 73                        @ ../EEPROM_Emulate.c:337:73
	adds	r0, r0, r1
	.loc	2 337 78                        @ ../EEPROM_Emulate.c:337:78
	ldr	r1, [sp, #32]
	.loc	2 337 9                         @ ../EEPROM_Emulate.c:337:9
	bl	FMC_Write
	movs	r0, #0
	.loc	2 338 14 is_stmt 1              @ ../EEPROM_Emulate.c:338:14
	str	r0, [sp, #32]
	.loc	2 339 19                        @ ../EEPROM_Emulate.c:339:19
	str	r0, [sp, #28]
	.loc	2 340 11                        @ ../EEPROM_Emulate.c:340:11
	ldr	r0, [sp, #40]
	adds	r0, r0, #4
	str	r0, [sp, #40]
	b	.LBB6_17
.Ltmp121:
.LBB6_17:                               @   in Loop: Header=BB6_11 Depth=1
	.loc	2 0 11 is_stmt 0                @ ../EEPROM_Emulate.c:0:11
	b	.LBB6_18
.LBB6_18:                               @   in Loop: Header=BB6_11 Depth=1
	.loc	2 343 3 is_stmt 1               @ ../EEPROM_Emulate.c:343:3
	b	.LBB6_19
.Ltmp122:
.LBB6_19:                               @   in Loop: Header=BB6_11 Depth=1
	.loc	2 316 35                        @ ../EEPROM_Emulate.c:316:35
	ldr	r0, [sp, #44]
	adds	r0, r0, #1
	str	r0, [sp, #44]
	.loc	2 316 3 is_stmt 0               @ ../EEPROM_Emulate.c:316:3
	b	.LBB6_11
.Ltmp123:
.LBB6_20:
	.loc	2 346 20 is_stmt 1              @ ../EEPROM_Emulate.c:346:20
	ldr	r0, [sp, #40]
	.loc	2 346 18 is_stmt 0              @ ../EEPROM_Emulate.c:346:18
	ldr	r1, __arm_cp.6_4
	str	r0, [r1]
.Ltmp124:
	.loc	2 349 6 is_stmt 1               @ ../EEPROM_Emulate.c:349:6
	ldr	r0, [sp, #28]
.Ltmp125:
	.loc	2 349 6 is_stmt 0               @ ../EEPROM_Emulate.c:349:6
	cmp	r0, #1
	bne	.LBB6_22
	b	.LBB6_21
.LBB6_21:
.Ltmp126:
	.loc	2 351 10 is_stmt 1              @ ../EEPROM_Emulate.c:351:10
	ldr	r0, [sp, #32]
	ldr	r1, __arm_cp.6_5
	orrs	r0, r1
	str	r0, [sp, #32]
	.loc	2 352 59                        @ ../EEPROM_Emulate.c:352:59
	ldr	r0, [sp, #24]
	.loc	2 352 57 is_stmt 0              @ ../EEPROM_Emulate.c:352:57
	lsls	r0, r0, #9
	.loc	2 352 71                        @ ../EEPROM_Emulate.c:352:71
	ldr	r1, [sp, #40]
	.loc	2 352 34                        @ ../EEPROM_Emulate.c:352:34
	adds	r0, r0, r1
	movw	r1, #30720
	.loc	2 352 69                        @ ../EEPROM_Emulate.c:352:69
	adds	r0, r0, r1
	.loc	2 352 74                        @ ../EEPROM_Emulate.c:352:74
	ldr	r1, [sp, #32]
	.loc	2 352 5                         @ ../EEPROM_Emulate.c:352:5
	bl	FMC_Write
	.loc	2 353 20 is_stmt 1              @ ../EEPROM_Emulate.c:353:20
	ldr	r1, __arm_cp.6_4
	ldr	r0, [r1]
	adds	r0, r0, #2
	str	r0, [r1]
	.loc	2 354 3                         @ ../EEPROM_Emulate.c:354:3
	b	.LBB6_22
.Ltmp127:
.LBB6_22:
	.loc	2 357 57                        @ ../EEPROM_Emulate.c:357:57
	ldr	r0, __arm_cp.6_0
	str	r0, [sp, #4]                    @ 4-byte Spill
	ldr	r0, [r0]
	.loc	2 357 55 is_stmt 0              @ ../EEPROM_Emulate.c:357:55
	lsls	r0, r0, #9
	movw	r1, #30720
	.loc	2 357 32                        @ ../EEPROM_Emulate.c:357:32
	adds	r0, r0, r1
	.loc	2 357 3                         @ ../EEPROM_Emulate.c:357:3
	bl	FMC_Erase
	ldr	r1, [sp, #4]                    @ 4-byte Reload
	.loc	2 359 24 is_stmt 1              @ ../EEPROM_Emulate.c:359:24
	ldr	r0, [sp, #24]
	.loc	2 359 22 is_stmt 0              @ ../EEPROM_Emulate.c:359:22
	str	r0, [r1]
	.loc	2 360 1 is_stmt 1               @ ../EEPROM_Emulate.c:360:1
	b	.LBB6_23
.LBB6_23:
	.loc	2 360 1 epilogue_begin is_stmt 0 @ ../EEPROM_Emulate.c:360:1
	add	sp, #48
	pop	{r7, pc}
.Ltmp128:
	.p2align	2
@ %bb.24:
	.loc	2 0 1                           @ ../EEPROM_Emulate.c:0:1
__arm_cp.6_0:
	.long	Current_Valid_Page
.Lcpi_end21:
	.size	__arm_cp.6_0, .Lcpi_end21-__arm_cp.6_0
__arm_cp.6_1:
	.long	Amount_Pages
.Lcpi_end22:
	.size	__arm_cp.6_1, .Lcpi_end22-__arm_cp.6_1
__arm_cp.6_2:
	.long	Amount_of_Data
.Lcpi_end23:
	.size	__arm_cp.6_2, .Lcpi_end23-__arm_cp.6_2
__arm_cp.6_3:
	.long	Written_Data
.Lcpi_end24:
	.size	__arm_cp.6_3, .Lcpi_end24-__arm_cp.6_3
__arm_cp.6_4:
	.long	Current_Cursor
.Lcpi_end25:
	.size	__arm_cp.6_4, .Lcpi_end25-__arm_cp.6_4
__arm_cp.6_5:
	.long	4294901760                      @ 0xffff0000
.Lcpi_end26:
	.size	__arm_cp.6_5, .Lcpi_end26-__arm_cp.6_5
__arm_cp.6_6:
	.long	65535                           @ 0xffff
.Lcpi_end27:
	.size	__arm_cp.6_6, .Lcpi_end27-__arm_cp.6_6
.Lfunc_end6:
	.size	Manage_Next_Page, .Lfunc_end6-Manage_Next_Page
	.cfi_endproc
	.cantunwind
	.fnend
                                        @ -- End function
	.section	.text.Get_Cycle_Counter,"ax",%progbits
	.hidden	Get_Cycle_Counter               @ -- Begin function Get_Cycle_Counter
	.globl	Get_Cycle_Counter
	.p2align	2
	.type	Get_Cycle_Counter,%function
	.code	16                              @ @Get_Cycle_Counter
	.thumb_func
Get_Cycle_Counter:
.Lfunc_begin7:
	.loc	2 367 0 is_stmt 1               @ ../EEPROM_Emulate.c:367:0
	.fnstart
	.cfi_startproc
@ %bb.0:
	.save	{r7, lr}
	push	{r7, lr}
	.cfi_def_cfa_offset 8
	.cfi_offset lr, -4
	.cfi_offset r7, -8
	.pad	#8
	sub	sp, #8
	.cfi_def_cfa_offset 16
.Ltmp129:
	.loc	2 371 82 prologue_end           @ ../EEPROM_Emulate.c:371:82
	ldr	r0, __arm_cp.7_0
	ldr	r0, [r0]
	.loc	2 371 80 is_stmt 0              @ ../EEPROM_Emulate.c:371:80
	lsls	r0, r0, #9
	movw	r1, #30720
	.loc	2 371 57                        @ ../EEPROM_Emulate.c:371:57
	adds	r0, r0, r1
	.loc	2 371 29                        @ ../EEPROM_Emulate.c:371:29
	bl	FMC_Read
	mov	r1, r0
	add	r0, sp, #4
	.loc	2 371 17                        @ ../EEPROM_Emulate.c:371:17
	strh	r1, [r0]
	.loc	2 373 10 is_stmt 1              @ ../EEPROM_Emulate.c:373:10
	ldrh	r0, [r0]
	.loc	2 373 3 epilogue_begin is_stmt 0 @ ../EEPROM_Emulate.c:373:3
	add	sp, #8
	pop	{r7, pc}
.Ltmp130:
	.p2align	2
@ %bb.1:
	.loc	2 0 3                           @ ../EEPROM_Emulate.c:0:3
__arm_cp.7_0:
	.long	Current_Valid_Page
.Lcpi_end28:
	.size	__arm_cp.7_0, .Lcpi_end28-__arm_cp.7_0
.Lfunc_end7:
	.size	Get_Cycle_Counter, .Lfunc_end7-Get_Cycle_Counter
	.cfi_endproc
	.cantunwind
	.fnend
                                        @ -- End function
	.hidden	Current_Valid_Page              @ @Current_Valid_Page
	.type	Current_Valid_Page,%object
	.section	.bss.Current_Valid_Page,"aw",%nobits
	.globl	Current_Valid_Page
	.p2align	2, 0x0
Current_Valid_Page:
	.long	0                               @ 0x0
	.size	Current_Valid_Page, 4

	.hidden	Amount_of_Data                  @ @Amount_of_Data
	.type	Amount_of_Data,%object
	.section	.bss.Amount_of_Data,"aw",%nobits
	.globl	Amount_of_Data
	.p2align	2, 0x0
Amount_of_Data:
	.long	0                               @ 0x0
	.size	Amount_of_Data, 4

	.hidden	Amount_Pages                    @ @Amount_Pages
	.type	Amount_Pages,%object
	.section	.bss.Amount_Pages,"aw",%nobits
	.globl	Amount_Pages
	.p2align	2, 0x0
Amount_Pages:
	.long	0                               @ 0x0
	.size	Amount_Pages, 4

	.type	Written_Data,%object            @ @Written_Data
	.section	.bss.Written_Data,"aw",%nobits
Written_Data:
	.zero	128
	.size	Written_Data, 128

	.hidden	Current_Cursor                  @ @Current_Cursor
	.type	Current_Cursor,%object
	.section	.bss.Current_Cursor,"aw",%nobits
	.globl	Current_Cursor
	.p2align	2, 0x0
Current_Cursor:
	.long	0                               @ 0x0
	.size	Current_Cursor, 4

	.section	".note.GNU-stack","",%progbits
	.eabi_attribute	30, 6	@ Tag_ABI_optimization_goals
	.ARM_attribute	16, 1	@ Tag_AV_eba