	.text
	.syntax unified
	.eabi_attribute	67, "2.09"	@ Tag_conformance
	.cpu	cortex-m23
	.eabi_attribute	6, 16	@ Tag_CPU_arch
	.eabi_attribute	7, 77	@ Tag_CPU_arch_profile
	.eabi_attribute	8, 0	@ Tag_ARM_ISA_use
	.eabi_attribute	9, 3	@ Tag_THUMB_ISA_use
	.eabi_attribute	34, 0	@ Tag_CPU_unaligned_access
	.eabi_attribute	17, 1	@ Tag_ABI_PCS_GOT_use
	.eabi_attribute	20, 2	@ Tag_ABI_FP_denormal
	.eabi_attribute	21, 0	@ Tag_ABI_FP_exceptions
	.eabi_attribute	23, 1	@ Tag_ABI_FP_number_model
	.eabi_attribute	24, 1	@ Tag_ABI_align_needed
	.eabi_attribute	25, 1	@ Tag_ABI_align_preserved
	.eabi_attribute	38, 1	@ Tag_ABI_FP_16bit_format
	.eabi_attribute	18, 2	@ Tag_ABI_PCS_wchar_t
	.eabi_attribute	26, 1	@ Tag_ABI_enum_size
	.eabi_attribute	14, 0	@ Tag_ABI_PCS_R9_use
	.file	"main.c"
	.file	1 "D:\\SourceCode\\_Avery_M2003\\M2003BSP_FLASH_EMULATE_EEPROM\\SampleCode\\Template\\Keil" "../main.c"
	.file	2 "C:\\Keil_v5\\ARM\\ARMCLANG\\bin\\..\\include" "stdint.h"
	.file	3 "D:\\SourceCode\\_Avery_M2003\\M2003BSP_FLASH_EMULATE_EEPROM\\SampleCode\\Template\\Keil" "..\\misc_config.h"
	.file	4 "D:\\SourceCode\\_Avery_M2003\\M2003BSP_FLASH_EMULATE_EEPROM\\SampleCode\\Template\\Keil" "../../../Library/Device/Nuvoton/M2003/Include\\M2003.h"
	.file	5 "D:\\SourceCode\\_Avery_M2003\\M2003BSP_FLASH_EMULATE_EEPROM\\SampleCode\\Template\\Keil" "../../../Library/Device/Nuvoton/M2003/Include\\sys_reg.h"
	.file	6 "D:\\SourceCode\\_Avery_M2003\\M2003BSP_FLASH_EMULATE_EEPROM\\SampleCode\\Template\\Keil" "../../../Library/Device/Nuvoton/M2003/Include\\timer_reg.h"
	.file	7 "D:\\SourceCode\\_Avery_M2003\\M2003BSP_FLASH_EMULATE_EEPROM\\SampleCode\\Template\\Keil" "../../../Library/Device/Nuvoton/M2003/Include\\uart_reg.h"
	.file	8 "D:\\SourceCode\\_Avery_M2003\\M2003BSP_FLASH_EMULATE_EEPROM\\SampleCode\\Template\\Keil" "../../../Library/Device/Nuvoton/M2003/Include\\gpio_reg.h"
	.file	9 "D:\\SourceCode\\_Avery_M2003\\M2003BSP_FLASH_EMULATE_EEPROM\\SampleCode\\Template\\Keil" "../../../Library/CMSIS/Core/Include\\core_cm23.h"
	.section	.text.get_systick,"ax",%progbits
	.hidden	get_systick                     @ -- Begin function get_systick
	.globl	get_systick
	.p2align	2
	.type	get_systick,%function
	.code	16                              @ @get_systick
	.thumb_func
get_systick:
.Lfunc_begin0:
	.fnstart
	.cfi_sections .debug_frame
	.cfi_startproc
@ %bb.0:
	.loc	1 42 10 prologue_end            @ ../main.c:42:10
	ldr	r0, __arm_cp.0_0
	ldr	r0, [r0]
	.loc	1 42 2 is_stmt 0                @ ../main.c:42:2
	bx	lr
.Ltmp0:
	.p2align	2
@ %bb.1:
	.loc	1 0 2                           @ ../main.c:0:2
__arm_cp.0_0:
	.long	counter_systick
.Lcpi_end0:
	.size	__arm_cp.0_0, .Lcpi_end0-__arm_cp.0_0
.Lfunc_end0:
	.size	get_systick, .Lfunc_end0-get_systick
	.cfi_endproc
	.cantunwind
	.fnend
                                        @ -- End function
	.section	.text.set_systick,"ax",%progbits
	.hidden	set_systick                     @ -- Begin function set_systick
	.globl	set_systick
	.p2align	2
	.type	set_systick,%function
	.code	16                              @ @set_systick
	.thumb_func
set_systick:
.Lfunc_begin1:
	.loc	1 46 0 is_stmt 1                @ ../main.c:46:0
	.fnstart
	.cfi_startproc
@ %bb.0:
	.pad	#4
	sub	sp, #4
	.cfi_def_cfa_offset 4
	str	r0, [sp]
.Ltmp1:
	.loc	1 47 20 prologue_end            @ ../main.c:47:20
	ldr	r0, [sp]
	.loc	1 47 18 is_stmt 0               @ ../main.c:47:18
	ldr	r1, __arm_cp.1_0
	str	r0, [r1]
	.loc	1 48 1 epilogue_begin is_stmt 1 @ ../main.c:48:1
	add	sp, #4
	bx	lr
.Ltmp2:
	.p2align	2
@ %bb.1:
	.loc	1 0 1 is_stmt 0                 @ ../main.c:0:1
__arm_cp.1_0:
	.long	counter_systick
.Lcpi_end1:
	.size	__arm_cp.1_0, .Lcpi_end1-__arm_cp.1_0
.Lfunc_end1:
	.size	set_systick, .Lfunc_end1-set_systick
	.cfi_endproc
	.cantunwind
	.fnend
                                        @ -- End function
	.section	.text.systick_counter,"ax",%progbits
	.hidden	systick_counter                 @ -- Begin function systick_counter
	.globl	systick_counter
	.p2align	2
	.type	systick_counter,%function
	.code	16                              @ @systick_counter
	.thumb_func
systick_counter:
.Lfunc_begin2:
	.fnstart
	.cfi_startproc
@ %bb.0:
	.loc	1 52 17 prologue_end is_stmt 1  @ ../main.c:52:17
	ldr	r1, __arm_cp.2_0
	ldr	r0, [r1]
	adds	r0, r0, #1
	str	r0, [r1]
	.loc	1 53 1                          @ ../main.c:53:1
	bx	lr
.Ltmp3:
	.p2align	2
@ %bb.1:
	.loc	1 0 1 is_stmt 0                 @ ../main.c:0:1
__arm_cp.2_0:
	.long	counter_systick
.Lcpi_end2:
	.size	__arm_cp.2_0, .Lcpi_end2-__arm_cp.2_0
.Lfunc_end2:
	.size	systick_counter, .Lfunc_end2-systick_counter
	.cfi_endproc
	.cantunwind
	.fnend
                                        @ -- End function
	.section	.text.SysTick_Handler,"ax",%progbits
	.hidden	SysTick_Handler                 @ -- Begin function SysTick_Handler
	.globl	SysTick_Handler
	.p2align	1
	.type	SysTick_Handler,%function
	.code	16                              @ @SysTick_Handler
	.thumb_func
SysTick_Handler:
.Lfunc_begin3:
	.loc	1 56 0 is_stmt 1                @ ../main.c:56:0
	.fnstart
	.cfi_startproc
@ %bb.0:
	.save	{r7, lr}
	push	{r7, lr}
	.cfi_def_cfa_offset 8
	.cfi_offset lr, -4
	.cfi_offset r7, -8
.Ltmp4:
	.loc	1 58 5 prologue_end             @ ../main.c:58:5
	bl	systick_counter
	.loc	1 68 1 epilogue_begin           @ ../main.c:68:1
	pop	{r7, pc}
.Ltmp5:
.Lfunc_end3:
	.size	SysTick_Handler, .Lfunc_end3-SysTick_Handler
	.cfi_endproc
	.cantunwind
	.fnend
                                        @ -- End function
	.section	.text.SysTick_delay,"ax",%progbits
	.hidden	SysTick_delay                   @ -- Begin function SysTick_delay
	.globl	SysTick_delay
	.p2align	1
	.type	SysTick_delay,%function
	.code	16                              @ @SysTick_delay
	.thumb_func
SysTick_delay:
.Lfunc_begin4:
	.loc	1 71 0                          @ ../main.c:71:0
	.fnstart
	.cfi_startproc
@ %bb.0:
	.save	{r7, lr}
	push	{r7, lr}
	.cfi_def_cfa_offset 8
	.cfi_offset lr, -4
	.cfi_offset r7, -8
	.pad	#16
	sub	sp, #16
	.cfi_def_cfa_offset 24
	str	r0, [sp, #12]
.Ltmp6:
	.loc	1 73 31 prologue_end            @ ../main.c:73:31
	bl	get_systick
	.loc	1 73 19 is_stmt 0               @ ../main.c:73:19
	str	r0, [sp, #8]
	.loc	1 74 26 is_stmt 1               @ ../main.c:74:26
	ldr	r0, [sp, #12]
	.loc	1 74 19 is_stmt 0               @ ../main.c:74:19
	str	r0, [sp, #4]
	.loc	1 76 5 is_stmt 1                @ ../main.c:76:5
	b	.LBB4_1
.LBB4_1:                                @ =>This Inner Loop Header: Depth=1
	.loc	1 76 12 is_stmt 0               @ ../main.c:76:12
	bl	get_systick
	.loc	1 76 28                         @ ../main.c:76:28
	ldr	r1, [sp, #8]
	.loc	1 76 26                         @ ../main.c:76:26
	subs	r0, r0, r1
	.loc	1 76 41                         @ ../main.c:76:41
	ldr	r1, [sp, #4]
	.loc	1 76 5                          @ ../main.c:76:5
	cmp	r0, r1
	bhs	.LBB4_3
	b	.LBB4_2
.LBB4_2:                                @   in Loop: Header=BB4_1 Depth=1
	b	.LBB4_1
.LBB4_3:
	.loc	1 80 1 epilogue_begin is_stmt 1 @ ../main.c:80:1
	add	sp, #16
	pop	{r7, pc}
.Ltmp7:
.Lfunc_end4:
	.size	SysTick_delay, .Lfunc_end4-SysTick_delay
	.cfi_endproc
	.cantunwind
	.fnend
                                        @ -- End function
	.section	.text.SysTick_enable,"ax",%progbits
	.hidden	SysTick_enable                  @ -- Begin function SysTick_enable
	.globl	SysTick_enable
	.p2align	2
	.type	SysTick_enable,%function
	.code	16                              @ @SysTick_enable
	.thumb_func
SysTick_enable:
.Lfunc_begin5:
	.loc	1 83 0                          @ ../main.c:83:0
	.fnstart
	.cfi_startproc
@ %bb.0:
	.save	{r7, lr}
	push	{r7, lr}
	.cfi_def_cfa_offset 8
	.cfi_offset lr, -4
	.cfi_offset r7, -8
	.pad	#8
	sub	sp, #8
	.cfi_def_cfa_offset 16
	str	r0, [sp, #4]
	movs	r0, #0
.Ltmp8:
	.loc	1 84 5 prologue_end             @ ../main.c:84:5
	bl	set_systick
.Ltmp9:
	.loc	1 85 24                         @ ../main.c:85:24
	ldr	r0, __arm_cp.5_0
	ldr	r0, [r0]
	.loc	1 85 42 is_stmt 0               @ ../main.c:85:42
	ldr	r1, [sp, #4]
	.loc	1 85 40                         @ ../main.c:85:40
	udiv	r0, r0, r1
	.loc	1 85 9                          @ ../main.c:85:9
	bl	SysTick_Config
.Ltmp10:
	.loc	1 85 9                          @ ../main.c:85:9
	cbz	r0, .LBB5_3
	b	.LBB5_1
.LBB5_1:
.Ltmp11:
	.loc	1 88 9 is_stmt 1                @ ../main.c:88:9
	ldr	r0, __arm_cp.5_1
	bl	printf
	.loc	1 89 9                          @ ../main.c:89:9
	b	.LBB5_2
.LBB5_2:                                @ =>This Inner Loop Header: Depth=1
	b	.LBB5_2
.Ltmp12:
.LBB5_3:
	.loc	1 95 1 epilogue_begin           @ ../main.c:95:1
	add	sp, #8
	pop	{r7, pc}
.Ltmp13:
	.p2align	2
@ %bb.4:
	.loc	1 0 1 is_stmt 0                 @ ../main.c:0:1
__arm_cp.5_0:
	.long	SystemCoreClock
.Lcpi_end3:
	.size	__arm_cp.5_0, .Lcpi_end3-__arm_cp.5_0
__arm_cp.5_1:
	.long	.L.str
.Lcpi_end4:
	.size	__arm_cp.5_1, .Lcpi_end4-__arm_cp.5_1
.Lfunc_end5:
	.size	SysTick_enable, .Lfunc_end5-SysTick_enable
	.cfi_endproc
	.cantunwind
	.fnend
                                        @ -- End function
	.section	.text.SysTick_Config,"ax",%progbits
	.p2align	2                               @ -- Begin function SysTick_Config
	.type	SysTick_Config,%function
	.code	16                              @ @SysTick_Config
	.thumb_func
SysTick_Config:
.Lfunc_begin6:
	.loc	9 2195 0 is_stmt 1              @ ../../../Library/CMSIS/Core/Include\core_cm23.h:2195:0
	.fnstart
	.cfi_startproc
@ %bb.0:
	.save	{r7, lr}
	push	{r7, lr}
	.cfi_def_cfa_offset 8
	.cfi_offset lr, -4
	.cfi_offset r7, -8
	.pad	#16
	sub	sp, #16
	.cfi_def_cfa_offset 24
	str	r0, [sp, #8]
.Ltmp14:
	.loc	9 2196 8 prologue_end           @ ../../../Library/CMSIS/Core/Include\core_cm23.h:2196:8
	ldr	r0, [sp, #8]
	.loc	9 2196 14 is_stmt 0             @ ../../../Library/CMSIS/Core/Include\core_cm23.h:2196:14
	subs	r0, r0, #1
.Ltmp15:
	.loc	9 2196 7                        @ ../../../Library/CMSIS/Core/Include\core_cm23.h:2196:7
	lsrs	r0, r0, #24
	cbz	r0, .LBB6_2
	b	.LBB6_1
.LBB6_1:
	.loc	9 0 7                           @ ../../../Library/CMSIS/Core/Include\core_cm23.h:0:7
	movs	r0, #1
.Ltmp16:
	.loc	9 2198 5 is_stmt 1              @ ../../../Library/CMSIS/Core/Include\core_cm23.h:2198:5
	str	r0, [sp, #12]
	b	.LBB6_3
.Ltmp17:
.LBB6_2:
	.loc	9 2201 31                       @ ../../../Library/CMSIS/Core/Include\core_cm23.h:2201:31
	ldr	r0, [sp, #8]
	.loc	9 2201 37 is_stmt 0             @ ../../../Library/CMSIS/Core/Include\core_cm23.h:2201:37
	subs	r0, r0, #1
	ldr	r1, __arm_cp.6_0
	.loc	9 2201 18                       @ ../../../Library/CMSIS/Core/Include\core_cm23.h:2201:18
	str	r0, [r1]
	movs	r0, #0
	str	r0, [sp, #4]                    @ 4-byte Spill
	mvns	r0, r0
	movs	r1, #3
	.loc	9 2202 3 is_stmt 1              @ ../../../Library/CMSIS/Core/Include\core_cm23.h:2202:3
	bl	__NVIC_SetPriority
	ldr	r0, [sp, #4]                    @ 4-byte Reload
	ldr	r1, __arm_cp.6_1
	.loc	9 2203 18                       @ ../../../Library/CMSIS/Core/Include\core_cm23.h:2203:18
	str	r0, [r1]
	ldr	r2, __arm_cp.6_2
	movs	r1, #7
	.loc	9 2204 18                       @ ../../../Library/CMSIS/Core/Include\core_cm23.h:2204:18
	str	r1, [r2]
	.loc	9 2207 3                        @ ../../../Library/CMSIS/Core/Include\core_cm23.h:2207:3
	str	r0, [sp, #12]
	b	.LBB6_3
.LBB6_3:
	.loc	9 2208 1                        @ ../../../Library/CMSIS/Core/Include\core_cm23.h:2208:1
	ldr	r0, [sp, #12]
	.loc	9 2208 1 epilogue_begin is_stmt 0 @ ../../../Library/CMSIS/Core/Include\core_cm23.h:2208:1
	add	sp, #16
	pop	{r7, pc}
.Ltmp18:
	.p2align	2
@ %bb.4:
	.loc	9 0 1                           @ ../../../Library/CMSIS/Core/Include\core_cm23.h:0:1
__arm_cp.6_0:
	.long	3758153748                      @ 0xe000e014
.Lcpi_end5:
	.size	__arm_cp.6_0, .Lcpi_end5-__arm_cp.6_0
__arm_cp.6_1:
	.long	3758153752                      @ 0xe000e018
.Lcpi_end6:
	.size	__arm_cp.6_1, .Lcpi_end6-__arm_cp.6_1
__arm_cp.6_2:
	.long	3758153744                      @ 0xe000e010
.Lcpi_end7:
	.size	__arm_cp.6_2, .Lcpi_end7-__arm_cp.6_2
.Lfunc_end6:
	.size	SysTick_Config, .Lfunc_end6-SysTick_Config
	.cfi_endproc
	.cantunwind
	.fnend
                                        @ -- End function
	.section	.text.get_tick,"ax",%progbits
	.hidden	get_tick                        @ -- Begin function get_tick
	.globl	get_tick
	.p2align	2
	.type	get_tick,%function
	.code	16                              @ @get_tick
	.thumb_func
get_tick:
.Lfunc_begin7:
	.fnstart
	.cfi_startproc
@ %bb.0:
	.loc	1 99 10 prologue_end is_stmt 1  @ ../main.c:99:10
	ldr	r0, __arm_cp.7_0
	ldr	r0, [r0]
	.loc	1 99 2 is_stmt 0                @ ../main.c:99:2
	bx	lr
.Ltmp19:
	.p2align	2
@ %bb.1:
	.loc	1 0 2                           @ ../main.c:0:2
__arm_cp.7_0:
	.long	counter_tick
.Lcpi_end8:
	.size	__arm_cp.7_0, .Lcpi_end8-__arm_cp.7_0
.Lfunc_end7:
	.size	get_tick, .Lfunc_end7-get_tick
	.cfi_endproc
	.cantunwind
	.fnend
                                        @ -- End function
	.section	.text.set_tick,"ax",%progbits
	.hidden	set_tick                        @ -- Begin function set_tick
	.globl	set_tick
	.p2align	2
	.type	set_tick,%function
	.code	16                              @ @set_tick
	.thumb_func
set_tick:
.Lfunc_begin8:
	.loc	1 103 0 is_stmt 1               @ ../main.c:103:0
	.fnstart
	.cfi_startproc
@ %bb.0:
	.pad	#4
	sub	sp, #4
	.cfi_def_cfa_offset 4
	str	r0, [sp]
.Ltmp20:
	.loc	1 104 17 prologue_end           @ ../main.c:104:17
	ldr	r0, [sp]
	.loc	1 104 15 is_stmt 0              @ ../main.c:104:15
	ldr	r1, __arm_cp.8_0
	str	r0, [r1]
	.loc	1 105 1 epilogue_begin is_stmt 1 @ ../main.c:105:1
	add	sp, #4
	bx	lr
.Ltmp21:
	.p2align	2
@ %bb.1:
	.loc	1 0 1 is_stmt 0                 @ ../main.c:0:1
__arm_cp.8_0:
	.long	counter_tick
.Lcpi_end9:
	.size	__arm_cp.8_0, .Lcpi_end9-__arm_cp.8_0
.Lfunc_end8:
	.size	set_tick, .Lfunc_end8-set_tick
	.cfi_endproc
	.cantunwind
	.fnend
                                        @ -- End function
	.section	.text.tick_counter,"ax",%progbits
	.hidden	tick_counter                    @ -- Begin function tick_counter
	.globl	tick_counter
	.p2align	2
	.type	tick_counter,%function
	.code	16                              @ @tick_counter
	.thumb_func
tick_counter:
.Lfunc_begin9:
	.fnstart
	.cfi_startproc
@ %bb.0:
	.loc	1 109 14 prologue_end is_stmt 1 @ ../main.c:109:14
	ldr	r1, __arm_cp.9_0
	ldr	r0, [r1]
	adds	r0, r0, #1
	str	r0, [r1]
	.loc	1 110 1                         @ ../main.c:110:1
	bx	lr
.Ltmp22:
	.p2align	2
@ %bb.1:
	.loc	1 0 1 is_stmt 0                 @ ../main.c:0:1
__arm_cp.9_0:
	.long	counter_tick
.Lcpi_end10:
	.size	__arm_cp.9_0, .Lcpi_end10-__arm_cp.9_0
.Lfunc_end9:
	.size	tick_counter, .Lfunc_end9-tick_counter
	.cfi_endproc
	.cantunwind
	.fnend
                                        @ -- End function
	.section	.text.Emulate_EEPROM_EraseTest,"ax",%progbits
	.hidden	Emulate_EEPROM_EraseTest        @ -- Begin function Emulate_EEPROM_EraseTest
	.globl	Emulate_EEPROM_EraseTest
	.p2align	2
	.type	Emulate_EEPROM_EraseTest,%function
	.code	16                              @ @Emulate_EEPROM_EraseTest
	.thumb_func
Emulate_EEPROM_EraseTest:
.Lfunc_begin10:
	.loc	1 113 0 is_stmt 1               @ ../main.c:113:0
	.fnstart
	.cfi_startproc
@ %bb.0:
	.save	{r7, lr}
	push	{r7, lr}
	.cfi_def_cfa_offset 8
	.cfi_offset lr, -4
	.cfi_offset r7, -8
	.pad	#16
	sub	sp, #16
	.cfi_def_cfa_offset 24
	add	r1, sp, #12
	str	r1, [sp, #4]                    @ 4-byte Spill
	movs	r0, #0
.Ltmp23:
	.loc	1 114 10 prologue_end           @ ../main.c:114:10
	str	r0, [sp, #8]                    @ 4-byte Spill
	strb	r0, [r1]
	.loc	1 116 2                         @ ../main.c:116:2
	ldr	r0, __arm_cp.10_0
	ldr	r1, __arm_cp.10_1
	bl	printf
	.loc	1 118 5                         @ ../main.c:118:5
	bl	SYS_UnlockReg
	.loc	1 119 5                         @ ../main.c:119:5
	bl	FMC_Open
	ldr	r1, [sp, #4]                    @ 4-byte Reload
	ldr	r0, [sp, #8]                    @ 4-byte Reload
.Ltmp24:
	.loc	1 121 9                         @ ../main.c:121:9
	strb	r0, [r1]
	.loc	1 121 7 is_stmt 0               @ ../main.c:121:7
	b	.LBB10_1
.LBB10_1:                               @ =>This Inner Loop Header: Depth=1
	.loc	1 0 7                           @ ../main.c:0:7
	add	r0, sp, #12
.Ltmp25:
	.loc	1 121 15                        @ ../main.c:121:15
	ldrb	r0, [r0]
.Ltmp26:
	.loc	1 121 2                         @ ../main.c:121:2
	cmp	r0, #23
	bgt	.LBB10_4
	b	.LBB10_2
.LBB10_2:                               @   in Loop: Header=BB10_1 Depth=1
	.loc	1 0 2                           @ ../main.c:0:2
	add	r0, sp, #12
.Ltmp27:
	.loc	1 123 14 is_stmt 1              @ ../main.c:123:14
	ldrb	r0, [r0]
	movs	r1, #24
	.loc	1 123 15 is_stmt 0              @ ../main.c:123:15
	udiv	r2, r0, r1
	muls	r1, r2, r1
	subs	r0, r0, r1
	movs	r1, #255
	.loc	1 123 3                         @ ../main.c:123:3
	bl	Write_Data
	.loc	1 124 2 is_stmt 1               @ ../main.c:124:2
	b	.LBB10_3
.Ltmp28:
.LBB10_3:                               @   in Loop: Header=BB10_1 Depth=1
	.loc	1 121 40                        @ ../main.c:121:40
	ldr	r0, [sp, #12]
	adds	r0, r0, #1
	add	r1, sp, #12
	strb	r0, [r1]
	.loc	1 121 2 is_stmt 0               @ ../main.c:121:2
	b	.LBB10_1
.Ltmp29:
.LBB10_4:
	.loc	1 126 5 is_stmt 1               @ ../main.c:126:5
	bl	FMC_Close
	.loc	1 127 5                         @ ../main.c:127:5
	bl	SYS_LockReg
	.loc	1 128 1 epilogue_begin          @ ../main.c:128:1
	add	sp, #16
	pop	{r7, pc}
.Ltmp30:
	.p2align	2
@ %bb.5:
	.loc	1 0 1 is_stmt 0                 @ ../main.c:0:1
__arm_cp.10_0:
	.long	.L.str.1
.Lcpi_end11:
	.size	__arm_cp.10_0, .Lcpi_end11-__arm_cp.10_0
__arm_cp.10_1:
	.long	.L__FUNCTION__.Emulate_EEPROM_EraseTest
.Lcpi_end12:
	.size	__arm_cp.10_1, .Lcpi_end12-__arm_cp.10_1
.Lfunc_end10:
	.size	Emulate_EEPROM_EraseTest, .Lfunc_end10-Emulate_EEPROM_EraseTest
	.cfi_endproc
	.cantunwind
	.fnend
                                        @ -- End function
	.section	.text.SYS_UnlockReg,"ax",%progbits
	.p2align	2                               @ -- Begin function SYS_UnlockReg
	.type	SYS_UnlockReg,%function
	.code	16                              @ @SYS_UnlockReg
	.thumb_func
SYS_UnlockReg:
.Lfunc_begin11:
	.fnstart
	.cfi_startproc
@ %bb.0:
	.file	10 "D:\\SourceCode\\_Avery_M2003\\M2003BSP_FLASH_EMULATE_EEPROM\\SampleCode\\Template\\Keil" "../../../Library/StdDriver/inc\\sys.h"
	.loc	10 650 5 prologue_end is_stmt 1 @ ../../../Library/StdDriver/inc\sys.h:650:5
	b	.LBB11_1
.LBB11_1:                               @ =>This Inner Loop Header: Depth=1
	.loc	10 0 5 is_stmt 0                @ ../../../Library/StdDriver/inc\sys.h:0:5
	ldr	r1, __arm_cp.11_0
	movs	r0, #89
.Ltmp31:
	.loc	10 652 22 is_stmt 1             @ ../../../Library/StdDriver/inc\sys.h:652:22
	str	r0, [r1]
	movs	r0, #22
	.loc	10 653 22                       @ ../../../Library/StdDriver/inc\sys.h:653:22
	str	r0, [r1]
	movs	r0, #136
	.loc	10 654 22                       @ ../../../Library/StdDriver/inc\sys.h:654:22
	str	r0, [r1]
	.loc	10 655 5                        @ ../../../Library/StdDriver/inc\sys.h:655:5
	b	.LBB11_2
.Ltmp32:
.LBB11_2:                               @   in Loop: Header=BB11_1 Depth=1
	.loc	10 0 5 is_stmt 0                @ ../../../Library/StdDriver/inc\sys.h:0:5
	ldr	r0, __arm_cp.11_0
	.loc	10 656 16 is_stmt 1             @ ../../../Library/StdDriver/inc\sys.h:656:16
	ldr	r0, [r0]
.Ltmp33:
	.loc	10 655 5                        @ ../../../Library/StdDriver/inc\sys.h:655:5
	cmp	r0, #0
	beq	.LBB11_1
	b	.LBB11_3
.Ltmp34:
.LBB11_3:
	.loc	10 657 1                        @ ../../../Library/StdDriver/inc\sys.h:657:1
	bx	lr
.Ltmp35:
	.p2align	2
@ %bb.4:
	.loc	10 0 1 is_stmt 0                @ ../../../Library/StdDriver/inc\sys.h:0:1
__arm_cp.11_0:
	.long	1073742080                      @ 0x40000100
.Lcpi_end13:
	.size	__arm_cp.11_0, .Lcpi_end13-__arm_cp.11_0
.Lfunc_end11:
	.size	SYS_UnlockReg, .Lfunc_end11-SYS_UnlockReg
	.cfi_endproc
	.cantunwind
	.fnend
                                        @ -- End function
	.section	.text.SYS_LockReg,"ax",%progbits
	.p2align	2                               @ -- Begin function SYS_LockReg
	.type	SYS_LockReg,%function
	.code	16                              @ @SYS_LockReg
	.thumb_func
SYS_LockReg:
.Lfunc_begin12:
	.loc	10 667 0 is_stmt 1              @ ../../../Library/StdDriver/inc\sys.h:667:0
	.fnstart
	.cfi_startproc
@ %bb.0:
	ldr	r1, __arm_cp.12_0
	movs	r0, #0
.Ltmp36:
	.loc	10 668 18 prologue_end          @ ../../../Library/StdDriver/inc\sys.h:668:18
	str	r0, [r1]
	.loc	10 669 1                        @ ../../../Library/StdDriver/inc\sys.h:669:1
	bx	lr
.Ltmp37:
	.p2align	2
@ %bb.1:
	.loc	10 0 1 is_stmt 0                @ ../../../Library/StdDriver/inc\sys.h:0:1
__arm_cp.12_0:
	.long	1073742080                      @ 0x40000100
.Lcpi_end14:
	.size	__arm_cp.12_0, .Lcpi_end14-__arm_cp.12_0
.Lfunc_end12:
	.size	SYS_LockReg, .Lfunc_end12-SYS_LockReg
	.cfi_endproc
	.cantunwind
	.fnend
                                        @ -- End function
	.section	.text.Emulate_EEPROM_WriteTest,"ax",%progbits
	.hidden	Emulate_EEPROM_WriteTest        @ -- Begin function Emulate_EEPROM_WriteTest
	.globl	Emulate_EEPROM_WriteTest
	.p2align	2
	.type	Emulate_EEPROM_WriteTest,%function
	.code	16                              @ @Emulate_EEPROM_WriteTest
	.thumb_func
Emulate_EEPROM_WriteTest:
.Lfunc_begin13:
	.loc	1 131 0 is_stmt 1               @ ../main.c:131:0
	.fnstart
	.cfi_startproc
@ %bb.0:
	.save	{r4, lr}
	push	{r4, lr}
	.cfi_def_cfa_offset 8
	.cfi_offset lr, -4
	.cfi_offset r4, -8
	.pad	#16
	sub	sp, #16
	.cfi_def_cfa_offset 24
	add	r1, sp, #12
	movs	r0, #0
.Ltmp38:
	.loc	1 132 10 prologue_end           @ ../main.c:132:10
	str	r0, [sp, #4]                    @ 4-byte Spill
	strb	r0, [r1]
	add	r1, sp, #8
	.loc	1 133 10                        @ ../main.c:133:10
	str	r1, [sp]                        @ 4-byte Spill
	strb	r0, [r1]
	.loc	1 136 55                        @ ../main.c:136:55
	ldr	r0, __arm_cp.13_0
	ldrb	r2, [r0]
	.loc	1 136 2 is_stmt 0               @ ../main.c:136:2
	ldr	r0, __arm_cp.13_1
	ldr	r1, __arm_cp.13_2
	bl	printf
	.loc	1 138 5 is_stmt 1               @ ../main.c:138:5
	bl	SYS_UnlockReg
	.loc	1 139 5                         @ ../main.c:139:5
	bl	FMC_Open
	ldr	r1, [sp]                        @ 4-byte Reload
	ldr	r0, [sp, #4]                    @ 4-byte Reload
.Ltmp39:
	.loc	1 141 9                         @ ../main.c:141:9
	strb	r0, [r1]
	.loc	1 141 7 is_stmt 0               @ ../main.c:141:7
	b	.LBB13_1
.LBB13_1:                               @ =>This Inner Loop Header: Depth=1
	.loc	1 0 7                           @ ../main.c:0:7
	add	r0, sp, #8
.Ltmp40:
	.loc	1 141 15                        @ ../main.c:141:15
	ldrb	r0, [r0]
.Ltmp41:
	.loc	1 141 2                         @ ../main.c:141:2
	cmp	r0, #23
	bgt	.LBB13_4
	b	.LBB13_2
.LBB13_2:                               @   in Loop: Header=BB13_1 Depth=1
	.loc	1 0 2                           @ ../main.c:0:2
	add	r0, sp, #8
.Ltmp42:
	.loc	1 143 14 is_stmt 1              @ ../main.c:143:14
	ldrb	r0, [r0]
	movs	r1, #24
	.loc	1 143 15 is_stmt 0              @ ../main.c:143:15
	udiv	r2, r0, r1
	muls	r1, r2, r1
	subs	r0, r0, r1
	.loc	1 143 35                        @ ../main.c:143:35
	ldr	r1, __arm_cp.13_0
	ldrb	r1, [r1]
	.loc	1 143 51                        @ ../main.c:143:51
	ldr	r2, [sp, #12]
	adds	r3, r2, #1
	add	r4, sp, #12
	strb	r3, [r4]
	.loc	1 143 45                        @ ../main.c:143:45
	adds	r1, r1, r2
	.loc	1 143 3                         @ ../main.c:143:3
	uxtb	r1, r1
	bl	Write_Data
	.loc	1 144 2 is_stmt 1               @ ../main.c:144:2
	b	.LBB13_3
.Ltmp43:
.LBB13_3:                               @   in Loop: Header=BB13_1 Depth=1
	.loc	1 141 40                        @ ../main.c:141:40
	ldr	r0, [sp, #8]
	adds	r0, r0, #1
	add	r1, sp, #8
	strb	r0, [r1]
	.loc	1 141 2 is_stmt 0               @ ../main.c:141:2
	b	.LBB13_1
.Ltmp44:
.LBB13_4:
	.loc	1 146 11 is_stmt 1              @ ../main.c:146:11
	ldr	r1, __arm_cp.13_0
	ldrb	r0, [r1]
	adds	r0, r0, #1
	strb	r0, [r1]
	.loc	1 148 5                         @ ../main.c:148:5
	bl	FMC_Close
	.loc	1 149 5                         @ ../main.c:149:5
	bl	SYS_LockReg
	.loc	1 151 5                         @ ../main.c:151:5
	bl	Emulate_EEPROM_ReadTest
	.loc	1 152 1 epilogue_begin          @ ../main.c:152:1
	add	sp, #16
	pop	{r4, pc}
.Ltmp45:
	.p2align	2
@ %bb.5:
	.loc	1 0 1 is_stmt 0                 @ ../main.c:0:1
__arm_cp.13_0:
	.long	Emulate_EEPROM_WriteTest.incr_base
.Lcpi_end15:
	.size	__arm_cp.13_0, .Lcpi_end15-__arm_cp.13_0
__arm_cp.13_1:
	.long	.L.str.2
.Lcpi_end16:
	.size	__arm_cp.13_1, .Lcpi_end16-__arm_cp.13_1
__arm_cp.13_2:
	.long	.L__FUNCTION__.Emulate_EEPROM_WriteTest
.Lcpi_end17:
	.size	__arm_cp.13_2, .Lcpi_end17-__arm_cp.13_2
.Lfunc_end13:
	.size	Emulate_EEPROM_WriteTest, .Lfunc_end13-Emulate_EEPROM_WriteTest
	.cfi_endproc
	.cantunwind
	.fnend
                                        @ -- End function
	.section	.text.Emulate_EEPROM_ReadTest,"ax",%progbits
	.hidden	Emulate_EEPROM_ReadTest         @ -- Begin function Emulate_EEPROM_ReadTest
	.globl	Emulate_EEPROM_ReadTest
	.p2align	2
	.type	Emulate_EEPROM_ReadTest,%function
	.code	16                              @ @Emulate_EEPROM_ReadTest
	.thumb_func
Emulate_EEPROM_ReadTest:
.Lfunc_begin14:
	.loc	1 155 0 is_stmt 1               @ ../main.c:155:0
	.fnstart
	.cfi_startproc
@ %bb.0:
	.save	{r7, lr}
	push	{r7, lr}
	.cfi_def_cfa_offset 8
	.cfi_offset lr, -4
	.cfi_offset r7, -8
	.pad	#24
	sub	sp, #24
	.cfi_def_cfa_offset 32
	add	r1, sp, #20
	str	r1, [sp, #8]                    @ 4-byte Spill
	movs	r0, #0
.Ltmp46:
	.loc	1 156 10 prologue_end           @ ../main.c:156:10
	str	r0, [sp, #12]                   @ 4-byte Spill
	strb	r0, [r1]
	add	r1, sp, #16
	.loc	1 157 10                        @ ../main.c:157:10
	strb	r0, [r1]
	.loc	1 159 2                         @ ../main.c:159:2
	ldr	r0, __arm_cp.14_0
	ldr	r1, __arm_cp.14_1
	bl	printf
	.loc	1 161 5                         @ ../main.c:161:5
	bl	SYS_UnlockReg
	.loc	1 162 5                         @ ../main.c:162:5
	bl	FMC_Open
	ldr	r1, [sp, #8]                    @ 4-byte Reload
	ldr	r0, [sp, #12]                   @ 4-byte Reload
.Ltmp47:
	.loc	1 164 9                         @ ../main.c:164:9
	strb	r0, [r1]
	.loc	1 164 7 is_stmt 0               @ ../main.c:164:7
	b	.LBB14_1
.LBB14_1:                               @ =>This Inner Loop Header: Depth=1
	.loc	1 0 7                           @ ../main.c:0:7
	add	r0, sp, #20
.Ltmp48:
	.loc	1 164 15                        @ ../main.c:164:15
	ldrb	r0, [r0]
.Ltmp49:
	.loc	1 164 2                         @ ../main.c:164:2
	cmp	r0, #23
	bgt	.LBB14_6
	b	.LBB14_2
.LBB14_2:                               @   in Loop: Header=BB14_1 Depth=1
	.loc	1 0 2                           @ ../main.c:0:2
	add	r0, sp, #20
.Ltmp50:
	.loc	1 166 13 is_stmt 1              @ ../main.c:166:13
	ldrb	r0, [r0]
	movs	r1, #24
	.loc	1 166 14 is_stmt 0              @ ../main.c:166:14
	udiv	r2, r0, r1
	muls	r1, r2, r1
	subs	r0, r0, r1
	add	r1, sp, #16
	.loc	1 166 3                         @ ../main.c:166:3
	str	r1, [sp, #4]                    @ 4-byte Spill
	bl	Read_Data
                                        @ kill: def $r1 killed $r0
	.loc	1 167 22 is_stmt 1              @ ../main.c:167:22
	ldr	r0, [sp, #4]                    @ 4-byte Reload
	ldrb	r1, [r0]
	.loc	1 167 3 is_stmt 0               @ ../main.c:167:3
	ldr	r0, __arm_cp.14_2
	bl	printf
.Ltmp51:
	.loc	1 168 8 is_stmt 1               @ ../main.c:168:8
	ldr	r0, [sp, #20]
	.loc	1 168 9 is_stmt 0               @ ../main.c:168:9
	adds	r0, r0, #1
.Ltmp52:
	.loc	1 168 7                         @ ../main.c:168:7
	lsls	r0, r0, #29
	cbnz	r0, .LBB14_4
	b	.LBB14_3
.LBB14_3:                               @   in Loop: Header=BB14_1 Depth=1
.Ltmp53:
	.loc	1 170 4 is_stmt 1               @ ../main.c:170:4
	ldr	r0, __arm_cp.14_3
	bl	printf
	.loc	1 171 3                         @ ../main.c:171:3
	b	.LBB14_4
.Ltmp54:
.LBB14_4:                               @   in Loop: Header=BB14_1 Depth=1
	.loc	1 172 2                         @ ../main.c:172:2
	b	.LBB14_5
.Ltmp55:
.LBB14_5:                               @   in Loop: Header=BB14_1 Depth=1
	.loc	1 164 40                        @ ../main.c:164:40
	ldr	r0, [sp, #20]
	adds	r0, r0, #1
	add	r1, sp, #20
	strb	r0, [r1]
	.loc	1 164 2 is_stmt 0               @ ../main.c:164:2
	b	.LBB14_1
.Ltmp56:
.LBB14_6:
	.loc	1 174 5 is_stmt 1               @ ../main.c:174:5
	bl	FMC_Close
	.loc	1 175 5                         @ ../main.c:175:5
	bl	SYS_LockReg
	.loc	1 177 1 epilogue_begin          @ ../main.c:177:1
	add	sp, #24
	pop	{r7, pc}
.Ltmp57:
	.p2align	2
@ %bb.7:
	.loc	1 0 1 is_stmt 0                 @ ../main.c:0:1
__arm_cp.14_0:
	.long	.L.str.3
.Lcpi_end18:
	.size	__arm_cp.14_0, .Lcpi_end18-__arm_cp.14_0
__arm_cp.14_1:
	.long	.L__FUNCTION__.Emulate_EEPROM_ReadTest
.Lcpi_end19:
	.size	__arm_cp.14_1, .Lcpi_end19-__arm_cp.14_1
__arm_cp.14_2:
	.long	.L.str.4
.Lcpi_end20:
	.size	__arm_cp.14_2, .Lcpi_end20-__arm_cp.14_2
__arm_cp.14_3:
	.long	.L.str.5
.Lcpi_end21:
	.size	__arm_cp.14_3, .Lcpi_end21-__arm_cp.14_3
.Lfunc_end14:
	.size	Emulate_EEPROM_ReadTest, .Lfunc_end14-Emulate_EEPROM_ReadTest
	.cfi_endproc
	.cantunwind
	.fnend
                                        @ -- End function
	.section	.text.Emulate_EEPROM,"ax",%progbits
	.hidden	Emulate_EEPROM                  @ -- Begin function Emulate_EEPROM
	.globl	Emulate_EEPROM
	.p2align	2
	.type	Emulate_EEPROM,%function
	.code	16                              @ @Emulate_EEPROM
	.thumb_func
Emulate_EEPROM:
.Lfunc_begin15:
	.loc	1 181 0 is_stmt 1               @ ../main.c:181:0
	.fnstart
	.cfi_startproc
@ %bb.0:
	.save	{r7, lr}
	push	{r7, lr}
	.cfi_def_cfa_offset 8
	.cfi_offset lr, -4
	.cfi_offset r7, -8
	.pad	#8
	sub	sp, #8
	.cfi_def_cfa_offset 16
	movs	r0, #24
	movs	r1, #4
.Ltmp58:
	.loc	1 185 8 prologue_end            @ ../main.c:185:8
	bl	Init_EEPROM
	.loc	1 185 6 is_stmt 0               @ ../main.c:185:6
	str	r0, [sp, #4]
.Ltmp59:
	.loc	1 186 5 is_stmt 1               @ ../main.c:186:5
	ldr	r0, [sp, #4]
.Ltmp60:
	.loc	1 186 5 is_stmt 0               @ ../main.c:186:5
	cbz	r0, .LBB15_2
	b	.LBB15_1
.LBB15_1:
.Ltmp61:
	.loc	1 188 60 is_stmt 1              @ ../main.c:188:60
	ldr	r1, [sp, #4]
	.loc	1 188 3 is_stmt 0               @ ../main.c:188:3
	ldr	r0, __arm_cp.15_0
	bl	printf
	.loc	1 189 3 is_stmt 1               @ ../main.c:189:3
	b	.LBB15_3
.Ltmp62:
.LBB15_2:
	.loc	1 192 2                         @ ../main.c:192:2
	bl	Search_Valid_Page
	.loc	1 193 1                         @ ../main.c:193:1
	b	.LBB15_3
.LBB15_3:
	.loc	1 193 1 epilogue_begin is_stmt 0 @ ../main.c:193:1
	add	sp, #8
	pop	{r7, pc}
.Ltmp63:
	.p2align	2
@ %bb.4:
	.loc	1 0 1                           @ ../main.c:0:1
__arm_cp.15_0:
	.long	.L.str.6
.Lcpi_end22:
	.size	__arm_cp.15_0, .Lcpi_end22-__arm_cp.15_0
.Lfunc_end15:
	.size	Emulate_EEPROM, .Lfunc_end15-Emulate_EEPROM
	.cfi_endproc
	.cantunwind
	.fnend
                                        @ -- End function
	.section	.text.delay_ms,"ax",%progbits
	.hidden	delay_ms                        @ -- Begin function delay_ms
	.globl	delay_ms
	.p2align	1
	.type	delay_ms,%function
	.code	16                              @ @delay_ms
	.thumb_func
delay_ms:
.Lfunc_begin16:
	.loc	1 202 0 is_stmt 1               @ ../main.c:202:0
	.fnstart
	.cfi_startproc
@ %bb.0:
	.save	{r7, lr}
	push	{r7, lr}
	.cfi_def_cfa_offset 8
	.cfi_offset lr, -4
	.cfi_offset r7, -8
	.pad	#8
	sub	sp, #8
	.cfi_def_cfa_offset 16
                                        @ kill: def $r1 killed $r0
	add	r1, sp, #4
	strh	r0, [r1]
.Ltmp64:
	.loc	1 204 19 prologue_end           @ ../main.c:204:19
	bl	get_tick
	.loc	1 204 11 is_stmt 0              @ ../main.c:204:11
	str	r0, [sp]
	.loc	1 205 5 is_stmt 1               @ ../main.c:205:5
	b	.LBB16_1
.LBB16_1:                               @ =>This Inner Loop Header: Depth=1
	.loc	1 205 23 is_stmt 0              @ ../main.c:205:23
	bl	get_tick
	.loc	1 205 36                        @ ../main.c:205:36
	ldr	r1, [sp]
	.loc	1 205 34                        @ ../main.c:205:34
	subs	r0, r0, r1
	add	r1, sp, #4
	.loc	1 205 55                        @ ../main.c:205:55
	ldrh	r1, [r1]
	.loc	1 205 5                         @ ../main.c:205:5
	cmp	r0, r1
	bhs	.LBB16_3
	b	.LBB16_2
.LBB16_2:                               @   in Loop: Header=BB16_1 Depth=1
	b	.LBB16_1
.LBB16_3:
	.loc	1 212 1 epilogue_begin is_stmt 1 @ ../main.c:212:1
	add	sp, #8
	pop	{r7, pc}
.Ltmp65:
.Lfunc_end16:
	.size	delay_ms, .Lfunc_end16-delay_ms
	.cfi_endproc
	.cantunwind
	.fnend
                                        @ -- End function
	.section	.text.Task_1000ms_Callback,"ax",%progbits
	.hidden	Task_1000ms_Callback            @ -- Begin function Task_1000ms_Callback
	.globl	Task_1000ms_Callback
	.p2align	2
	.type	Task_1000ms_Callback,%function
	.code	16                              @ @Task_1000ms_Callback
	.thumb_func
Task_1000ms_Callback:
.Lfunc_begin17:
	.loc	1 215 0                         @ ../main.c:215:0
	.fnstart
	.cfi_startproc
@ %bb.0:
	.pad	#4
	sub	sp, #4
	.cfi_def_cfa_offset 4
	str	r0, [sp]
	ldr	r1, __arm_cp.17_0
.Ltmp66:
	.loc	1 219 9 prologue_end            @ ../main.c:219:9
	ldr	r0, [r1]
	movs	r2, #1
	eors	r0, r2
	str	r0, [r1]
	.loc	1 220 1 epilogue_begin          @ ../main.c:220:1
	add	sp, #4
	bx	lr
.Ltmp67:
	.p2align	2
@ %bb.1:
	.loc	1 0 1 is_stmt 0                 @ ../main.c:0:1
__arm_cp.17_0:
	.long	1073760324                      @ 0x40004844
.Lcpi_end23:
	.size	__arm_cp.17_0, .Lcpi_end23-__arm_cp.17_0
.Lfunc_end17:
	.size	Task_1000ms_Callback, .Lfunc_end17-Task_1000ms_Callback
	.cfi_endproc
	.cantunwind
	.fnend
                                        @ -- End function
	.section	.text.Task_100ms_Callback,"ax",%progbits
	.hidden	Task_100ms_Callback             @ -- Begin function Task_100ms_Callback
	.globl	Task_100ms_Callback
	.p2align	1
	.type	Task_100ms_Callback,%function
	.code	16                              @ @Task_100ms_Callback
	.thumb_func
Task_100ms_Callback:
.Lfunc_begin18:
	.loc	1 223 0 is_stmt 1               @ ../main.c:223:0
	.fnstart
	.cfi_startproc
@ %bb.0:
	.pad	#4
	sub	sp, #4
	.cfi_def_cfa_offset 4
	str	r0, [sp]
.Ltmp68:
	.loc	1 225 1 prologue_end epilogue_begin @ ../main.c:225:1
	add	sp, #4
	bx	lr
.Ltmp69:
.Lfunc_end18:
	.size	Task_100ms_Callback, .Lfunc_end18-Task_100ms_Callback
	.cfi_endproc
	.cantunwind
	.fnend
                                        @ -- End function
	.section	.text.Task_10ms_Callback,"ax",%progbits
	.hidden	Task_10ms_Callback              @ -- Begin function Task_10ms_Callback
	.globl	Task_10ms_Callback
	.p2align	1
	.type	Task_10ms_Callback,%function
	.code	16                              @ @Task_10ms_Callback
	.thumb_func
Task_10ms_Callback:
.Lfunc_begin19:
	.loc	1 228 0                         @ ../main.c:228:0
	.fnstart
	.cfi_startproc
@ %bb.0:
	.pad	#4
	sub	sp, #4
	.cfi_def_cfa_offset 4
	str	r0, [sp]
.Ltmp70:
	.loc	1 230 1 prologue_end epilogue_begin @ ../main.c:230:1
	add	sp, #4
	bx	lr
.Ltmp71:
.Lfunc_end19:
	.size	Task_10ms_Callback, .Lfunc_end19-Task_10ms_Callback
	.cfi_endproc
	.cantunwind
	.fnend
                                        @ -- End function
	.section	.text.TimerService_CreateTask,"ax",%progbits
	.hidden	TimerService_CreateTask         @ -- Begin function TimerService_CreateTask
	.globl	TimerService_CreateTask
	.p2align	2
	.type	TimerService_CreateTask,%function
	.code	16                              @ @TimerService_CreateTask
	.thumb_func
TimerService_CreateTask:
.Lfunc_begin20:
	.loc	1 233 0                         @ ../main.c:233:0
	.fnstart
	.cfi_startproc
@ %bb.0:
	.save	{r7, lr}
	push	{r7, lr}
	.cfi_def_cfa_offset 8
	.cfi_offset lr, -4
	.cfi_offset r7, -8
	.pad	#16
	sub	sp, #16
	.cfi_def_cfa_offset 24
.Ltmp72:
	.loc	1 235 24 prologue_end           @ ../main.c:235:24
	ldr	r1, __arm_cp.20_0
	movs	r0, #10
	movs	r2, #0
	bl	TimerService_CreateTimer
	mov	r1, r0
	.loc	1 235 22 is_stmt 0              @ ../main.c:235:22
	ldr	r0, __arm_cp.20_1
	str	r1, [r0]
.Ltmp73:
	.loc	1 238 9 is_stmt 1               @ ../main.c:238:9
	ldr	r0, [r0]
.Ltmp74:
	.loc	1 238 9 is_stmt 0               @ ../main.c:238:9
	cmp	r0, #0
	bmi	.LBB20_2
	b	.LBB20_1
.LBB20_1:
.Ltmp75:
	.loc	1 240 47 is_stmt 1              @ ../main.c:240:47
	ldr	r0, __arm_cp.20_1
	str	r0, [sp, #12]                   @ 4-byte Spill
	ldr	r0, [r0]
	.loc	1 240 9 is_stmt 0               @ ../main.c:240:9
	bl	TimerService_StartTimer
	ldr	r0, [sp, #12]                   @ 4-byte Reload
	.loc	1 241 37 is_stmt 1              @ ../main.c:241:37
	ldr	r1, [r0]
	.loc	1 241 9 is_stmt 0               @ ../main.c:241:9
	ldr	r0, __arm_cp.20_2
	bl	printf
	.loc	1 242 5 is_stmt 1               @ ../main.c:242:5
	b	.LBB20_2
.Ltmp76:
.LBB20_2:
	.loc	1 245 24                        @ ../main.c:245:24
	ldr	r1, __arm_cp.20_3
	movs	r0, #100
	movs	r2, #0
	bl	TimerService_CreateTimer
	mov	r1, r0
	.loc	1 245 22 is_stmt 0              @ ../main.c:245:22
	ldr	r0, __arm_cp.20_4
	str	r1, [r0]
.Ltmp77:
	.loc	1 248 9 is_stmt 1               @ ../main.c:248:9
	ldr	r0, [r0]
.Ltmp78:
	.loc	1 248 9 is_stmt 0               @ ../main.c:248:9
	cmp	r0, #0
	bmi	.LBB20_4
	b	.LBB20_3
.LBB20_3:
.Ltmp79:
	.loc	1 250 47 is_stmt 1              @ ../main.c:250:47
	ldr	r0, __arm_cp.20_4
	str	r0, [sp, #8]                    @ 4-byte Spill
	ldr	r0, [r0]
	.loc	1 250 9 is_stmt 0               @ ../main.c:250:9
	bl	TimerService_StartTimer
	ldr	r0, [sp, #8]                    @ 4-byte Reload
	.loc	1 251 37 is_stmt 1              @ ../main.c:251:37
	ldr	r1, [r0]
	.loc	1 251 9 is_stmt 0               @ ../main.c:251:9
	ldr	r0, __arm_cp.20_5
	bl	printf
	.loc	1 252 5 is_stmt 1               @ ../main.c:252:5
	b	.LBB20_4
.Ltmp80:
.LBB20_4:
	.loc	1 255 24                        @ ../main.c:255:24
	ldr	r1, __arm_cp.20_6
	movw	r0, #1000
	movs	r2, #0
	bl	TimerService_CreateTimer
	mov	r1, r0
	.loc	1 255 22 is_stmt 0              @ ../main.c:255:22
	ldr	r0, __arm_cp.20_7
	str	r1, [r0]
.Ltmp81:
	.loc	1 258 9 is_stmt 1               @ ../main.c:258:9
	ldr	r0, [r0]
.Ltmp82:
	.loc	1 258 9 is_stmt 0               @ ../main.c:258:9
	cmp	r0, #0
	bmi	.LBB20_6
	b	.LBB20_5
.LBB20_5:
.Ltmp83:
	.loc	1 260 47 is_stmt 1              @ ../main.c:260:47
	ldr	r0, __arm_cp.20_7
	str	r0, [sp, #4]                    @ 4-byte Spill
	ldr	r0, [r0]
	.loc	1 260 9 is_stmt 0               @ ../main.c:260:9
	bl	TimerService_StartTimer
	ldr	r0, [sp, #4]                    @ 4-byte Reload
	.loc	1 261 37 is_stmt 1              @ ../main.c:261:37
	ldr	r1, [r0]
	.loc	1 261 9 is_stmt 0               @ ../main.c:261:9
	ldr	r0, __arm_cp.20_8
	bl	printf
	.loc	1 262 5 is_stmt 1               @ ../main.c:262:5
	b	.LBB20_6
.Ltmp84:
.LBB20_6:
	.loc	1 263 1 epilogue_begin          @ ../main.c:263:1
	add	sp, #16
	pop	{r7, pc}
.Ltmp85:
	.p2align	2
@ %bb.7:
	.loc	1 0 1 is_stmt 0                 @ ../main.c:0:1
__arm_cp.20_0:
	.long	Task_10ms_Callback
.Lcpi_end24:
	.size	__arm_cp.20_0, .Lcpi_end24-__arm_cp.20_0
__arm_cp.20_1:
	.long	g_timer_id_task1
.Lcpi_end25:
	.size	__arm_cp.20_1, .Lcpi_end25-__arm_cp.20_1
__arm_cp.20_2:
	.long	.L.str.7
.Lcpi_end26:
	.size	__arm_cp.20_2, .Lcpi_end26-__arm_cp.20_2
__arm_cp.20_3:
	.long	Task_100ms_Callback
.Lcpi_end27:
	.size	__arm_cp.20_3, .Lcpi_end27-__arm_cp.20_3
__arm_cp.20_4:
	.long	g_timer_id_task2
.Lcpi_end28:
	.size	__arm_cp.20_4, .Lcpi_end28-__arm_cp.20_4
__arm_cp.20_5:
	.long	.L.str.8
.Lcpi_end29:
	.size	__arm_cp.20_5, .Lcpi_end29-__arm_cp.20_5
__arm_cp.20_6:
	.long	Task_1000ms_Callback
.Lcpi_end30:
	.size	__arm_cp.20_6, .Lcpi_end30-__arm_cp.20_6
__arm_cp.20_7:
	.long	g_timer_id_task3
.Lcpi_end31:
	.size	__arm_cp.20_7, .Lcpi_end31-__arm_cp.20_7
__arm_cp.20_8:
	.long	.L.str.9
.Lcpi_end32:
	.size	__arm_cp.20_8, .Lcpi_end32-__arm_cp.20_8
.Lfunc_end20:
	.size	TimerService_CreateTask, .Lfunc_end20-TimerService_CreateTask
	.cfi_endproc
	.cantunwind
	.fnend
                                        @ -- End function
	.section	.text.check_reset_source,"ax",%progbits
	.hidden	check_reset_source              @ -- Begin function check_reset_source
	.globl	check_reset_source
	.p2align	2
	.type	check_reset_source,%function
	.code	16                              @ @check_reset_source
	.thumb_func
check_reset_source:
.Lfunc_begin21:
	.loc	1 269 0 is_stmt 1               @ ../main.c:269:0
	.fnstart
	.cfi_startproc
@ %bb.0:
	.save	{r7, lr}
	push	{r7, lr}
	.cfi_def_cfa_offset 8
	.cfi_offset lr, -4
	.cfi_offset r7, -8
	.pad	#8
	sub	sp, #8
	.cfi_def_cfa_offset 16
.Ltmp86:
	.loc	1 270 20 prologue_end           @ ../main.c:270:20
	bl	SYS_GetResetSrc
	.loc	1 270 14 is_stmt 0              @ ../main.c:270:14
	str	r0, [sp]
	ldr	r1, __arm_cp.21_0
	.loc	1 272 17 is_stmt 1              @ ../main.c:272:17
	ldr	r0, [r1]
	ldr	r2, __arm_cp.21_1
	orrs	r0, r2
	str	r0, [r1]
	.loc	1 273 41                        @ ../main.c:273:41
	ldr	r1, [sp]
	.loc	1 273 5 is_stmt 0               @ ../main.c:273:5
	ldr	r0, __arm_cp.21_2
	bl	printf
	mov	r0, sp
	.loc	1 276 9 is_stmt 1               @ ../main.c:276:9
	ldrb	r0, [r0]
	lsls	r0, r0, #31
	cbz	r0, .LBB21_2
	b	.LBB21_1
.LBB21_1:
.Ltmp87:
	.loc	1 278 9                         @ ../main.c:278:9
	ldr	r0, __arm_cp.21_3
	bl	printf
	.loc	1 279 5                         @ ../main.c:279:5
	b	.LBB21_2
.Ltmp88:
.LBB21_2:
	.loc	1 0 5 is_stmt 0                 @ ../main.c:0:5
	mov	r0, sp
	.loc	1 280 9 is_stmt 1               @ ../main.c:280:9
	ldrb	r0, [r0]
	lsls	r0, r0, #30
	cmp	r0, #0
	bpl	.LBB21_4
	b	.LBB21_3
.LBB21_3:
.Ltmp89:
	.loc	1 282 9                         @ ../main.c:282:9
	ldr	r0, __arm_cp.21_4
	bl	printf
	.loc	1 283 5                         @ ../main.c:283:5
	b	.LBB21_4
.Ltmp90:
.LBB21_4:
	.loc	1 0 5 is_stmt 0                 @ ../main.c:0:5
	mov	r0, sp
	.loc	1 284 9 is_stmt 1               @ ../main.c:284:9
	ldrb	r0, [r0]
	lsls	r0, r0, #29
	cmp	r0, #0
	bpl	.LBB21_6
	b	.LBB21_5
.LBB21_5:
.Ltmp91:
	.loc	1 286 9                         @ ../main.c:286:9
	ldr	r0, __arm_cp.21_5
	bl	printf
	.loc	1 287 5                         @ ../main.c:287:5
	b	.LBB21_6
.Ltmp92:
.LBB21_6:
	.loc	1 0 5 is_stmt 0                 @ ../main.c:0:5
	mov	r0, sp
	.loc	1 288 9 is_stmt 1               @ ../main.c:288:9
	ldrb	r0, [r0]
	lsls	r0, r0, #28
	cmp	r0, #0
	bpl	.LBB21_8
	b	.LBB21_7
.LBB21_7:
.Ltmp93:
	.loc	1 290 9                         @ ../main.c:290:9
	ldr	r0, __arm_cp.21_6
	bl	printf
	.loc	1 291 5                         @ ../main.c:291:5
	b	.LBB21_8
.Ltmp94:
.LBB21_8:
	.loc	1 0 5 is_stmt 0                 @ ../main.c:0:5
	mov	r0, sp
	.loc	1 292 9 is_stmt 1               @ ../main.c:292:9
	ldrb	r0, [r0]
	lsls	r0, r0, #27
	cmp	r0, #0
	bpl	.LBB21_10
	b	.LBB21_9
.LBB21_9:
.Ltmp95:
	.loc	1 294 9                         @ ../main.c:294:9
	ldr	r0, __arm_cp.21_7
	bl	printf
	.loc	1 295 5                         @ ../main.c:295:5
	b	.LBB21_10
.Ltmp96:
.LBB21_10:
	.loc	1 0 5 is_stmt 0                 @ ../main.c:0:5
	mov	r0, sp
	.loc	1 296 9 is_stmt 1               @ ../main.c:296:9
	ldrb	r0, [r0]
	lsls	r0, r0, #26
	cmp	r0, #0
	bpl	.LBB21_12
	b	.LBB21_11
.LBB21_11:
.Ltmp97:
	.loc	1 298 9                         @ ../main.c:298:9
	ldr	r0, __arm_cp.21_8
	bl	printf
	.loc	1 299 5                         @ ../main.c:299:5
	b	.LBB21_12
.Ltmp98:
.LBB21_12:
	.loc	1 0 5 is_stmt 0                 @ ../main.c:0:5
	mov	r0, sp
	.loc	1 300 9 is_stmt 1               @ ../main.c:300:9
	ldrb	r0, [r0]
	lsls	r0, r0, #25
	cmp	r0, #0
	bpl	.LBB21_14
	b	.LBB21_13
.LBB21_13:
.Ltmp99:
	.loc	1 302 9                         @ ../main.c:302:9
	ldr	r0, __arm_cp.21_9
	bl	printf
	.loc	1 303 5                         @ ../main.c:303:5
	b	.LBB21_14
.Ltmp100:
.LBB21_14:
	.loc	1 0 5 is_stmt 0                 @ ../main.c:0:5
	mov	r0, sp
	.loc	1 304 9 is_stmt 1               @ ../main.c:304:9
	ldrb	r0, [r0]
	lsls	r0, r0, #24
	cmp	r0, #0
	bpl	.LBB21_16
	b	.LBB21_15
.LBB21_15:
.Ltmp101:
	.loc	1 306 9                         @ ../main.c:306:9
	ldr	r0, __arm_cp.21_10
	bl	printf
	.loc	1 307 5                         @ ../main.c:307:5
	b	.LBB21_16
.Ltmp102:
.LBB21_16:
	.loc	1 0 5 is_stmt 0                 @ ../main.c:0:5
	mov	r0, sp
	.loc	1 308 9 is_stmt 1               @ ../main.c:308:9
	ldrb	r0, [r0, #1]
	lsls	r0, r0, #31
	cbz	r0, .LBB21_18
	b	.LBB21_17
.LBB21_17:
.Ltmp103:
	.loc	1 310 9                         @ ../main.c:310:9
	ldr	r0, __arm_cp.21_11
	bl	printf
	.loc	1 311 5                         @ ../main.c:311:5
	b	.LBB21_18
.Ltmp104:
.LBB21_18:
	.loc	1 0 5 is_stmt 0                 @ ../main.c:0:5
	mov	r0, sp
	.loc	1 314 9 is_stmt 1               @ ../main.c:314:9
	ldrb	r0, [r0]
	lsls	r0, r0, #31
	cbz	r0, .LBB21_20
	b	.LBB21_19
.LBB21_19:
	.loc	1 0 9 is_stmt 0                 @ ../main.c:0:9
	movs	r0, #1
.Ltmp105:
	.loc	1 315 9 is_stmt 1               @ ../main.c:315:9
	bl	SYS_ClearResetSrc
	.loc	1 317 9                         @ ../main.c:317:9
	ldr	r0, __arm_cp.21_20
	bl	printf
	add	r1, sp, #4
	movs	r0, #0
	.loc	1 318 9                         @ ../main.c:318:9
	strb	r0, [r1]
	b	.LBB21_42
.Ltmp106:
.LBB21_20:
	.loc	1 0 9 is_stmt 0                 @ ../main.c:0:9
	mov	r0, sp
	.loc	1 320 14 is_stmt 1              @ ../main.c:320:14
	ldrb	r0, [r0]
	lsls	r0, r0, #30
	cmp	r0, #0
	bpl	.LBB21_22
	b	.LBB21_21
.LBB21_21:
	.loc	1 0 14 is_stmt 0                @ ../main.c:0:14
	movs	r0, #2
.Ltmp107:
	.loc	1 322 9 is_stmt 1               @ ../main.c:322:9
	bl	SYS_ClearResetSrc
	.loc	1 324 9                         @ ../main.c:324:9
	ldr	r0, __arm_cp.21_19
	bl	printf
	add	r1, sp, #4
	movs	r0, #0
	.loc	1 325 9                         @ ../main.c:325:9
	strb	r0, [r1]
	b	.LBB21_42
.Ltmp108:
.LBB21_22:
	.loc	1 0 9 is_stmt 0                 @ ../main.c:0:9
	mov	r0, sp
	.loc	1 327 14 is_stmt 1              @ ../main.c:327:14
	ldrb	r0, [r0]
	lsls	r0, r0, #29
	cmp	r0, #0
	bpl	.LBB21_24
	b	.LBB21_23
.LBB21_23:
	.loc	1 0 14 is_stmt 0                @ ../main.c:0:14
	movs	r0, #4
.Ltmp109:
	.loc	1 329 9 is_stmt 1               @ ../main.c:329:9
	bl	SYS_ClearResetSrc
	.loc	1 331 9                         @ ../main.c:331:9
	ldr	r0, __arm_cp.21_18
	bl	printf
	add	r1, sp, #4
	movs	r0, #0
	.loc	1 332 9                         @ ../main.c:332:9
	strb	r0, [r1]
	b	.LBB21_42
.Ltmp110:
.LBB21_24:
	.loc	1 0 9 is_stmt 0                 @ ../main.c:0:9
	mov	r0, sp
	.loc	1 334 14 is_stmt 1              @ ../main.c:334:14
	ldrb	r0, [r0]
	lsls	r0, r0, #28
	cmp	r0, #0
	bpl	.LBB21_26
	b	.LBB21_25
.LBB21_25:
	.loc	1 0 14 is_stmt 0                @ ../main.c:0:14
	movs	r0, #8
.Ltmp111:
	.loc	1 336 9 is_stmt 1               @ ../main.c:336:9
	bl	SYS_ClearResetSrc
	.loc	1 338 9                         @ ../main.c:338:9
	ldr	r0, __arm_cp.21_17
	bl	printf
	add	r1, sp, #4
	movs	r0, #0
	.loc	1 339 9                         @ ../main.c:339:9
	strb	r0, [r1]
	b	.LBB21_42
.Ltmp112:
.LBB21_26:
	.loc	1 0 9 is_stmt 0                 @ ../main.c:0:9
	mov	r0, sp
	.loc	1 341 14 is_stmt 1              @ ../main.c:341:14
	ldrb	r0, [r0]
	lsls	r0, r0, #27
	cmp	r0, #0
	bpl	.LBB21_28
	b	.LBB21_27
.LBB21_27:
	.loc	1 0 14 is_stmt 0                @ ../main.c:0:14
	movs	r0, #16
.Ltmp113:
	.loc	1 343 9 is_stmt 1               @ ../main.c:343:9
	bl	SYS_ClearResetSrc
	.loc	1 345 9                         @ ../main.c:345:9
	ldr	r0, __arm_cp.21_16
	bl	printf
	add	r1, sp, #4
	movs	r0, #0
	.loc	1 346 9                         @ ../main.c:346:9
	strb	r0, [r1]
	b	.LBB21_42
.Ltmp114:
.LBB21_28:
	.loc	1 0 9 is_stmt 0                 @ ../main.c:0:9
	mov	r0, sp
	.loc	1 348 14 is_stmt 1              @ ../main.c:348:14
	ldrb	r0, [r0]
	lsls	r0, r0, #26
	cmp	r0, #0
	bpl	.LBB21_30
	b	.LBB21_29
.LBB21_29:
	.loc	1 0 14 is_stmt 0                @ ../main.c:0:14
	movs	r0, #32
.Ltmp115:
	.loc	1 350 9 is_stmt 1               @ ../main.c:350:9
	bl	SYS_ClearResetSrc
	.loc	1 352 9                         @ ../main.c:352:9
	ldr	r0, __arm_cp.21_15
	bl	printf
	add	r1, sp, #4
	movs	r0, #0
	.loc	1 353 9                         @ ../main.c:353:9
	strb	r0, [r1]
	b	.LBB21_42
.Ltmp116:
.LBB21_30:
	.loc	1 0 9 is_stmt 0                 @ ../main.c:0:9
	mov	r0, sp
	.loc	1 355 14 is_stmt 1              @ ../main.c:355:14
	ldrb	r0, [r0]
	lsls	r0, r0, #24
	cmp	r0, #0
	bpl	.LBB21_32
	b	.LBB21_31
.LBB21_31:
	.loc	1 0 14 is_stmt 0                @ ../main.c:0:14
	movs	r0, #128
.Ltmp117:
	.loc	1 357 9 is_stmt 1               @ ../main.c:357:9
	bl	SYS_ClearResetSrc
	.loc	1 359 9                         @ ../main.c:359:9
	ldr	r0, __arm_cp.21_14
	bl	printf
	add	r1, sp, #4
	movs	r0, #0
	.loc	1 360 9                         @ ../main.c:360:9
	strb	r0, [r1]
	b	.LBB21_42
.Ltmp118:
.LBB21_32:
	.loc	1 0 9 is_stmt 0                 @ ../main.c:0:9
	mov	r0, sp
	.loc	1 362 14 is_stmt 1              @ ../main.c:362:14
	ldrb	r0, [r0, #1]
	lsls	r0, r0, #31
	cbz	r0, .LBB21_34
	b	.LBB21_33
.LBB21_33:
	.loc	1 0 14 is_stmt 0                @ ../main.c:0:14
	movw	r0, #256
.Ltmp119:
	.loc	1 364 9 is_stmt 1               @ ../main.c:364:9
	bl	SYS_ClearResetSrc
	.loc	1 366 9                         @ ../main.c:366:9
	ldr	r0, __arm_cp.21_13
	bl	printf
	add	r1, sp, #4
	movs	r0, #0
	.loc	1 367 9                         @ ../main.c:367:9
	strb	r0, [r1]
	b	.LBB21_42
.Ltmp120:
.LBB21_34:
	.loc	1 0 9 is_stmt 0                 @ ../main.c:0:9
	b	.LBB21_35
.LBB21_35:
	b	.LBB21_36
.LBB21_36:
	b	.LBB21_37
.LBB21_37:
	b	.LBB21_38
.LBB21_38:
	b	.LBB21_39
.LBB21_39:
	b	.LBB21_40
.LBB21_40:
	b	.LBB21_41
.LBB21_41:
	.loc	1 370 5 is_stmt 1               @ ../main.c:370:5
	ldr	r0, __arm_cp.21_12
	bl	printf
	add	r1, sp, #4
	movs	r0, #0
	.loc	1 371 5                         @ ../main.c:371:5
	strb	r0, [r1]
	b	.LBB21_42
.LBB21_42:
	.loc	1 0 5 is_stmt 0                 @ ../main.c:0:5
	add	r0, sp, #4
	.loc	1 372 1 is_stmt 1               @ ../main.c:372:1
	ldrb	r0, [r0]
	.loc	1 372 1 epilogue_begin is_stmt 0 @ ../main.c:372:1
	add	sp, #8
	pop	{r7, pc}
.Ltmp121:
	.p2align	2
@ %bb.43:
	.loc	1 0 1                           @ ../main.c:0:1
__arm_cp.21_0:
	.long	1073741828                      @ 0x40000004
.Lcpi_end33:
	.size	__arm_cp.21_0, .Lcpi_end33-__arm_cp.21_0
__arm_cp.21_1:
	.long	511                             @ 0x1ff
.Lcpi_end34:
	.size	__arm_cp.21_1, .Lcpi_end34-__arm_cp.21_1
__arm_cp.21_2:
	.long	.L.str.10
.Lcpi_end35:
	.size	__arm_cp.21_2, .Lcpi_end35-__arm_cp.21_2
__arm_cp.21_3:
	.long	.L.str.11
.Lcpi_end36:
	.size	__arm_cp.21_3, .Lcpi_end36-__arm_cp.21_3
__arm_cp.21_4:
	.long	.L.str.12
.Lcpi_end37:
	.size	__arm_cp.21_4, .Lcpi_end37-__arm_cp.21_4
__arm_cp.21_5:
	.long	.L.str.13
.Lcpi_end38:
	.size	__arm_cp.21_5, .Lcpi_end38-__arm_cp.21_5
__arm_cp.21_6:
	.long	.L.str.14
.Lcpi_end39:
	.size	__arm_cp.21_6, .Lcpi_end39-__arm_cp.21_6
__arm_cp.21_7:
	.long	.L.str.15
.Lcpi_end40:
	.size	__arm_cp.21_7, .Lcpi_end40-__arm_cp.21_7
__arm_cp.21_8:
	.long	.L.str.16
.Lcpi_end41:
	.size	__arm_cp.21_8, .Lcpi_end41-__arm_cp.21_8
__arm_cp.21_9:
	.long	.L.str.17
.Lcpi_end42:
	.size	__arm_cp.21_9, .Lcpi_end42-__arm_cp.21_9
__arm_cp.21_10:
	.long	.L.str.18
.Lcpi_end43:
	.size	__arm_cp.21_10, .Lcpi_end43-__arm_cp.21_10
__arm_cp.21_11:
	.long	.L.str.19
.Lcpi_end44:
	.size	__arm_cp.21_11, .Lcpi_end44-__arm_cp.21_11
__arm_cp.21_12:
	.long	.L.str.28
.Lcpi_end45:
	.size	__arm_cp.21_12, .Lcpi_end45-__arm_cp.21_12
__arm_cp.21_13:
	.long	.L.str.27
.Lcpi_end46:
	.size	__arm_cp.21_13, .Lcpi_end46-__arm_cp.21_13
__arm_cp.21_14:
	.long	.L.str.26
.Lcpi_end47:
	.size	__arm_cp.21_14, .Lcpi_end47-__arm_cp.21_14
__arm_cp.21_15:
	.long	.L.str.25
.Lcpi_end48:
	.size	__arm_cp.21_15, .Lcpi_end48-__arm_cp.21_15
__arm_cp.21_16:
	.long	.L.str.24
.Lcpi_end49:
	.size	__arm_cp.21_16, .Lcpi_end49-__arm_cp.21_16
__arm_cp.21_17:
	.long	.L.str.23
.Lcpi_end50:
	.size	__arm_cp.21_17, .Lcpi_end50-__arm_cp.21_17
__arm_cp.21_18:
	.long	.L.str.22
.Lcpi_end51:
	.size	__arm_cp.21_18, .Lcpi_end51-__arm_cp.21_18
__arm_cp.21_19:
	.long	.L.str.21
.Lcpi_end52:
	.size	__arm_cp.21_19, .Lcpi_end52-__arm_cp.21_19
__arm_cp.21_20:
	.long	.L.str.20
.Lcpi_end53:
	.size	__arm_cp.21_20, .Lcpi_end53-__arm_cp.21_20
.Lfunc_end21:
	.size	check_reset_source, .Lfunc_end21-check_reset_source
	.cfi_endproc
	.cantunwind
	.fnend
                                        @ -- End function
	.section	.text.TMR1_IRQHandler,"ax",%progbits
	.hidden	TMR1_IRQHandler                 @ -- Begin function TMR1_IRQHandler
	.globl	TMR1_IRQHandler
	.p2align	2
	.type	TMR1_IRQHandler,%function
	.code	16                              @ @TMR1_IRQHandler
	.thumb_func
TMR1_IRQHandler:
.Lfunc_begin22:
	.loc	1 375 0 is_stmt 1               @ ../main.c:375:0
	.fnstart
	.cfi_startproc
@ %bb.0:
	.save	{r7, lr}
	push	{r7, lr}
	.cfi_def_cfa_offset 8
	.cfi_offset lr, -4
	.cfi_offset r7, -8
	ldr	r0, __arm_cp.22_0
.Ltmp122:
	.loc	1 377 8 prologue_end            @ ../main.c:377:8
	bl	TIMER_GetIntFlag
.Ltmp123:
	.loc	1 377 8 is_stmt 0               @ ../main.c:377:8
	cmp	r0, #1
	bne	.LBB22_2
	b	.LBB22_1
.LBB22_1:
	.loc	1 0 8                           @ ../main.c:0:8
	ldr	r0, __arm_cp.22_0
.Ltmp124:
	.loc	1 379 9 is_stmt 1               @ ../main.c:379:9
	bl	TIMER_ClearIntFlag
	.loc	1 380 3                         @ ../main.c:380:3
	bl	tick_counter
	.loc	1 392 9                         @ ../main.c:392:9
	bl	TimerService_Tick1ms
	.loc	1 393 5                         @ ../main.c:393:5
	b	.LBB22_2
.Ltmp125:
.LBB22_2:
	.loc	1 394 1 epilogue_begin          @ ../main.c:394:1
	pop	{r7, pc}
.Ltmp126:
	.p2align	2
@ %bb.3:
	.loc	1 0 1 is_stmt 0                 @ ../main.c:0:1
__arm_cp.22_0:
	.long	1074069760                      @ 0x40050100
.Lcpi_end54:
	.size	__arm_cp.22_0, .Lcpi_end54-__arm_cp.22_0
.Lfunc_end22:
	.size	TMR1_IRQHandler, .Lfunc_end22-TMR1_IRQHandler
	.cfi_endproc
	.cantunwind
	.fnend
                                        @ -- End function
	.section	.text.TIMER_GetIntFlag,"ax",%progbits
	.p2align	1                               @ -- Begin function TIMER_GetIntFlag
	.type	TIMER_GetIntFlag,%function
	.code	16                              @ @TIMER_GetIntFlag
	.thumb_func
TIMER_GetIntFlag:
.Lfunc_begin23:
	.file	11 "D:\\SourceCode\\_Avery_M2003\\M2003BSP_FLASH_EMULATE_EEPROM\\SampleCode\\Template\\Keil" "../../../Library/StdDriver/inc\\timer.h"
	.loc	11 333 0 is_stmt 1              @ ../../../Library/StdDriver/inc\timer.h:333:0
	.fnstart
	.cfi_startproc
@ %bb.0:
	.pad	#4
	sub	sp, #4
	.cfi_def_cfa_offset 4
	str	r0, [sp]
.Ltmp127:
	.loc	11 334 14 prologue_end          @ ../../../Library/StdDriver/inc\timer.h:334:14
	ldr	r0, [sp]
	.loc	11 334 21 is_stmt 0             @ ../../../Library/StdDriver/inc\timer.h:334:21
	ldr	r0, [r0, #8]
	movs	r1, #1
	.loc	11 334 28                       @ ../../../Library/StdDriver/inc\timer.h:334:28
	ands	r0, r1
	.loc	11 334 5 epilogue_begin         @ ../../../Library/StdDriver/inc\timer.h:334:5
	add	sp, #4
	bx	lr
.Ltmp128:
.Lfunc_end23:
	.size	TIMER_GetIntFlag, .Lfunc_end23-TIMER_GetIntFlag
	.cfi_endproc
	.cantunwind
	.fnend
                                        @ -- End function
	.section	.text.TIMER_ClearIntFlag,"ax",%progbits
	.p2align	1                               @ -- Begin function TIMER_ClearIntFlag
	.type	TIMER_ClearIntFlag,%function
	.code	16                              @ @TIMER_ClearIntFlag
	.thumb_func
TIMER_ClearIntFlag:
.Lfunc_begin24:
	.loc	11 344 0 is_stmt 1              @ ../../../Library/StdDriver/inc\timer.h:344:0
	.fnstart
	.cfi_startproc
@ %bb.0:
	.pad	#4
	sub	sp, #4
	.cfi_def_cfa_offset 4
	str	r0, [sp]
.Ltmp129:
	.loc	11 345 5 prologue_end           @ ../../../Library/StdDriver/inc\timer.h:345:5
	ldr	r1, [sp]
	movs	r0, #1
	.loc	11 345 19 is_stmt 0             @ ../../../Library/StdDriver/inc\timer.h:345:19
	str	r0, [r1, #8]
	.loc	11 346 1 epilogue_begin is_stmt 1 @ ../../../Library/StdDriver/inc\timer.h:346:1
	add	sp, #4
	bx	lr
.Ltmp130:
.Lfunc_end24:
	.size	TIMER_ClearIntFlag, .Lfunc_end24-TIMER_ClearIntFlag
	.cfi_endproc
	.cantunwind
	.fnend
                                        @ -- End function
	.section	.text.TIMER1_Init,"ax",%progbits
	.hidden	TIMER1_Init                     @ -- Begin function TIMER1_Init
	.globl	TIMER1_Init
	.p2align	2
	.type	TIMER1_Init,%function
	.code	16                              @ @TIMER1_Init
	.thumb_func
TIMER1_Init:
.Lfunc_begin25:
	.loc	1 397 0                         @ ../main.c:397:0
	.fnstart
	.cfi_startproc
@ %bb.0:
	.save	{r7, lr}
	push	{r7, lr}
	.cfi_def_cfa_offset 8
	.cfi_offset lr, -4
	.cfi_offset r7, -8
	.pad	#8
	sub	sp, #8
	.cfi_def_cfa_offset 16
	movs	r0, #1
	lsls	r1, r0, #27
	ldr	r0, __arm_cp.25_0
	str	r0, [sp, #4]                    @ 4-byte Spill
	movw	r2, #1000
.Ltmp131:
	.loc	1 398 5 prologue_end            @ ../main.c:398:5
	bl	TIMER_Open
                                        @ kill: def $r1 killed $r0
	.loc	1 399 5                         @ ../main.c:399:5
	ldr	r0, [sp, #4]                    @ 4-byte Reload
	bl	TIMER_EnableInt
	movs	r0, #33
	.loc	1 400 5                         @ ../main.c:400:5
	bl	__NVIC_EnableIRQ
	ldr	r0, [sp, #4]                    @ 4-byte Reload
	.loc	1 401 5                         @ ../main.c:401:5
	bl	TIMER_Start
	.loc	1 402 1 epilogue_begin          @ ../main.c:402:1
	add	sp, #8
	pop	{r7, pc}
.Ltmp132:
	.p2align	2
@ %bb.1:
	.loc	1 0 1 is_stmt 0                 @ ../main.c:0:1
__arm_cp.25_0:
	.long	1074069760                      @ 0x40050100
.Lcpi_end55:
	.size	__arm_cp.25_0, .Lcpi_end55-__arm_cp.25_0
.Lfunc_end25:
	.size	TIMER1_Init, .Lfunc_end25-TIMER1_Init
	.cfi_endproc
	.cantunwind
	.fnend
                                        @ -- End function
	.section	.text.TIMER_EnableInt,"ax",%progbits
	.p2align	1                               @ -- Begin function TIMER_EnableInt
	.type	TIMER_EnableInt,%function
	.code	16                              @ @TIMER_EnableInt
	.thumb_func
TIMER_EnableInt:
.Lfunc_begin26:
	.loc	11 288 0 is_stmt 1              @ ../../../Library/StdDriver/inc\timer.h:288:0
	.fnstart
	.cfi_startproc
@ %bb.0:
	.pad	#4
	sub	sp, #4
	.cfi_def_cfa_offset 4
	str	r0, [sp]
.Ltmp133:
	.loc	11 289 5 prologue_end           @ ../../../Library/StdDriver/inc\timer.h:289:5
	ldr	r1, [sp]
	.loc	11 289 16 is_stmt 0             @ ../../../Library/StdDriver/inc\timer.h:289:16
	ldr	r0, [r1]
	movs	r2, #1
	lsls	r2, r2, #29
	orrs	r0, r2
	str	r0, [r1]
	.loc	11 290 1 epilogue_begin is_stmt 1 @ ../../../Library/StdDriver/inc\timer.h:290:1
	add	sp, #4
	bx	lr
.Ltmp134:
.Lfunc_end26:
	.size	TIMER_EnableInt, .Lfunc_end26-TIMER_EnableInt
	.cfi_endproc
	.cantunwind
	.fnend
                                        @ -- End function
	.section	.text.__NVIC_EnableIRQ,"ax",%progbits
	.p2align	2                               @ -- Begin function __NVIC_EnableIRQ
	.type	__NVIC_EnableIRQ,%function
	.code	16                              @ @__NVIC_EnableIRQ
	.thumb_func
__NVIC_EnableIRQ:
.Lfunc_begin27:
	.loc	9 1481 0                        @ ../../../Library/CMSIS/Core/Include\core_cm23.h:1481:0
	.fnstart
	.cfi_startproc
@ %bb.0:
	.pad	#4
	sub	sp, #4
	.cfi_def_cfa_offset 4
	mov	r1, r0
                                        @ kill: def $r0 killed $r1
	mov	r0, sp
	strb	r1, [r0]
.Ltmp135:
	.loc	9 1482 17 prologue_end          @ ../../../Library/CMSIS/Core/Include\core_cm23.h:1482:17
	movs	r1, #0
	ldrsb	r0, [r0, r1]
.Ltmp136:
	.loc	9 1482 7 is_stmt 0              @ ../../../Library/CMSIS/Core/Include\core_cm23.h:1482:7
	cmp	r0, #0
	bmi	.LBB27_2
	b	.LBB27_1
.LBB27_1:
.Ltmp137:
	.loc	9 1484 5 is_stmt 1              @ ../../../Library/CMSIS/Core/Include\core_cm23.h:1484:5
	@APP
	@NO_APP
	.loc	9 1485 75                       @ ../../../Library/CMSIS/Core/Include\core_cm23.h:1485:75
	movs	r1, #0
	mov	r0, sp
	ldrsb	r1, [r0, r1]
	movs	r0, #31
	.loc	9 1485 81 is_stmt 0             @ ../../../Library/CMSIS/Core/Include\core_cm23.h:1485:81
	mov	r2, r1
	ands	r2, r0
	movs	r0, #1
	.loc	9 1485 60                       @ ../../../Library/CMSIS/Core/Include\core_cm23.h:1485:60
	lsls	r0, r2
	.loc	9 1485 5                        @ ../../../Library/CMSIS/Core/Include\core_cm23.h:1485:5
	lsrs	r1, r1, #5
	lsls	r1, r1, #2
	ldr	r2, __arm_cp.27_0
	.loc	9 1485 43                       @ ../../../Library/CMSIS/Core/Include\core_cm23.h:1485:43
	str	r0, [r1, r2]
	.loc	9 1486 5 is_stmt 1              @ ../../../Library/CMSIS/Core/Include\core_cm23.h:1486:5
	@APP
	@NO_APP
	.loc	9 1487 3                        @ ../../../Library/CMSIS/Core/Include\core_cm23.h:1487:3
	b	.LBB27_2
.Ltmp138:
.LBB27_2:
	.loc	9 1488 1 epilogue_begin         @ ../../../Library/CMSIS/Core/Include\core_cm23.h:1488:1
	add	sp, #4
	bx	lr
.Ltmp139:
	.p2align	2
@ %bb.3:
	.loc	9 0 1 is_stmt 0                 @ ../../../Library/CMSIS/Core/Include\core_cm23.h:0:1
__arm_cp.27_0:
	.long	3758153984                      @ 0xe000e100
.Lcpi_end56:
	.size	__arm_cp.27_0, .Lcpi_end56-__arm_cp.27_0
.Lfunc_end27:
	.size	__NVIC_EnableIRQ, .Lfunc_end27-__NVIC_EnableIRQ
	.cfi_endproc
	.cantunwind
	.fnend
                                        @ -- End function
	.section	.text.TIMER_Start,"ax",%progbits
	.p2align	1                               @ -- Begin function TIMER_Start
	.type	TIMER_Start,%function
	.code	16                              @ @TIMER_Start
	.thumb_func
TIMER_Start:
.Lfunc_begin28:
	.loc	11 176 0 is_stmt 1              @ ../../../Library/StdDriver/inc\timer.h:176:0
	.fnstart
	.cfi_startproc
@ %bb.0:
	.pad	#4
	sub	sp, #4
	.cfi_def_cfa_offset 4
	str	r0, [sp]
.Ltmp140:
	.loc	11 177 5 prologue_end           @ ../../../Library/StdDriver/inc\timer.h:177:5
	ldr	r1, [sp]
	.loc	11 177 16 is_stmt 0             @ ../../../Library/StdDriver/inc\timer.h:177:16
	ldr	r0, [r1]
	movs	r2, #1
	lsls	r2, r2, #30
	orrs	r0, r2
	str	r0, [r1]
	.loc	11 178 1 epilogue_begin is_stmt 1 @ ../../../Library/StdDriver/inc\timer.h:178:1
	add	sp, #4
	bx	lr
.Ltmp141:
.Lfunc_end28:
	.size	TIMER_Start, .Lfunc_end28-TIMER_Start
	.cfi_endproc
	.cantunwind
	.fnend
                                        @ -- End function
	.section	.text.loop,"ax",%progbits
	.hidden	loop                            @ -- Begin function loop
	.globl	loop
	.p2align	2
	.type	loop,%function
	.code	16                              @ @loop
	.thumb_func
loop:
.Lfunc_begin29:
	.loc	1 405 0                         @ ../main.c:405:0
	.fnstart
	.cfi_startproc
@ %bb.0:
	.save	{r7, lr}
	push	{r7, lr}
	.cfi_def_cfa_offset 8
	.cfi_offset lr, -4
	.cfi_offset r7, -8
.Ltmp142:
	.loc	1 409 5 prologue_end            @ ../main.c:409:5
	bl	TimerService_Dispatch
.Ltmp143:
	.loc	1 412 10                        @ ../main.c:412:10
	bl	get_systick
	mov	r1, r0
	ldr	r0, __arm_cp.29_0
.Ltmp144:
	.loc	1 412 9 is_stmt 0               @ ../main.c:412:9
	muls	r0, r1, r0
	movs	r1, #3
	rors	r0, r1
	ldr	r1, __arm_cp.29_1
	cmp	r0, r1
	bhi	.LBB29_2
	b	.LBB29_1
.LBB29_1:
.Ltmp145:
	.loc	1 415 5 is_stmt 1               @ ../main.c:415:5
	b	.LBB29_2
.Ltmp146:
.LBB29_2:
	.loc	1 417 9                         @ ../main.c:417:9
	ldr	r0, __arm_cp.29_2
	ldrb	r0, [r0]
	lsls	r0, r0, #30
	lsrs	r0, r0, #31
.Ltmp147:
	.loc	1 417 9 is_stmt 0               @ ../main.c:417:9
	cbz	r0, .LBB29_4
	b	.LBB29_3
.LBB29_3:
.Ltmp148:
	.loc	1 419 30 is_stmt 1              @ ../main.c:419:30
	ldr	r1, __arm_cp.29_2
	ldrb	r0, [r1]
	movs	r2, #253
	ands	r0, r2
	strb	r0, [r1]
	.loc	1 421 3                         @ ../main.c:421:3
	bl	Emulate_EEPROM_WriteTest
	.loc	1 422 5                         @ ../main.c:422:5
	b	.LBB29_4
.Ltmp149:
.LBB29_4:
	.loc	1 423 9                         @ ../main.c:423:9
	ldr	r0, __arm_cp.29_2
	ldrb	r0, [r0]
	lsls	r0, r0, #29
	lsrs	r0, r0, #31
.Ltmp150:
	.loc	1 423 9 is_stmt 0               @ ../main.c:423:9
	cbz	r0, .LBB29_6
	b	.LBB29_5
.LBB29_5:
.Ltmp151:
	.loc	1 425 29 is_stmt 1              @ ../main.c:425:29
	ldr	r1, __arm_cp.29_2
	ldrb	r0, [r1]
	movs	r2, #251
	ands	r0, r2
	strb	r0, [r1]
	.loc	1 427 3                         @ ../main.c:427:3
	bl	Emulate_EEPROM_ReadTest
	.loc	1 428 5                         @ ../main.c:428:5
	b	.LBB29_6
.Ltmp152:
.LBB29_6:
	.loc	1 429 9                         @ ../main.c:429:9
	ldr	r0, __arm_cp.29_2
	ldrb	r0, [r0]
	lsls	r0, r0, #28
	lsrs	r0, r0, #31
.Ltmp153:
	.loc	1 429 9 is_stmt 0               @ ../main.c:429:9
	cbz	r0, .LBB29_8
	b	.LBB29_7
.LBB29_7:
.Ltmp154:
	.loc	1 431 30 is_stmt 1              @ ../main.c:431:30
	ldr	r1, __arm_cp.29_2
	ldrb	r0, [r1]
	movs	r2, #247
	ands	r0, r2
	strb	r0, [r1]
	.loc	1 433 3                         @ ../main.c:433:3
	bl	Emulate_EEPROM_EraseTest
	.loc	1 434 5                         @ ../main.c:434:5
	b	.LBB29_8
.Ltmp155:
.LBB29_8:
	.loc	1 436 1 epilogue_begin          @ ../main.c:436:1
	pop	{r7, pc}
.Ltmp156:
	.p2align	2
@ %bb.9:
	.loc	1 0 1 is_stmt 0                 @ ../main.c:0:1
__arm_cp.29_0:
	.long	652835029                       @ 0x26e978d5
.Lcpi_end57:
	.size	__arm_cp.29_0, .Lcpi_end57-__arm_cp.29_0
__arm_cp.29_1:
	.long	4294967                         @ 0x418937
.Lcpi_end58:
	.size	__arm_cp.29_1, .Lcpi_end58-__arm_cp.29_1
__arm_cp.29_2:
	.long	flag_PROJ_CTL
.Lcpi_end59:
	.size	__arm_cp.29_2, .Lcpi_end59-__arm_cp.29_2
.Lfunc_end29:
	.size	loop, .Lfunc_end29-loop
	.cfi_endproc
	.cantunwind
	.fnend
                                        @ -- End function
	.section	.text.UARTx_Process,"ax",%progbits
	.hidden	UARTx_Process                   @ -- Begin function UARTx_Process
	.globl	UARTx_Process
	.p2align	2
	.type	UARTx_Process,%function
	.code	16                              @ @UARTx_Process
	.thumb_func
UARTx_Process:
.Lfunc_begin30:
	.loc	1 439 0 is_stmt 1               @ ../main.c:439:0
	.fnstart
	.cfi_startproc
@ %bb.0:
	.save	{r7, lr}
	push	{r7, lr}
	.cfi_def_cfa_offset 8
	.cfi_offset lr, -4
	.cfi_offset r7, -8
	.pad	#16
	sub	sp, #16
	.cfi_def_cfa_offset 24
	add	r0, sp, #12
	movs	r1, #0
.Ltmp157:
	.loc	1 440 10 prologue_end           @ ../main.c:440:10
	strb	r1, [r0]
	ldr	r1, __arm_cp.30_0
	.loc	1 441 8                         @ ../main.c:441:8
	ldr	r1, [r1]
	.loc	1 441 6 is_stmt 0               @ ../main.c:441:6
	strb	r1, [r0]
.Ltmp158:
	.loc	1 443 6 is_stmt 1               @ ../main.c:443:6
	ldrb	r0, [r0]
.Ltmp159:
	.loc	1 443 6 is_stmt 0               @ ../main.c:443:6
	cmp	r0, #128
	blt	.LBB30_2
	b	.LBB30_1
.LBB30_1:
.Ltmp160:
	.loc	1 445 3 is_stmt 1               @ ../main.c:445:3
	ldr	r0, __arm_cp.30_3
	bl	printf
	.loc	1 446 2                         @ ../main.c:446:2
	b	.LBB30_14
.Ltmp161:
.LBB30_2:
	.loc	1 0 2 is_stmt 0                 @ ../main.c:0:2
	add	r0, sp, #12
.Ltmp162:
	.loc	1 449 29 is_stmt 1              @ ../main.c:449:29
	str	r0, [sp, #4]                    @ 4-byte Spill
	ldrb	r1, [r0]
	.loc	1 449 3 is_stmt 0               @ ../main.c:449:3
	ldr	r0, __arm_cp.30_1
	bl	printf
                                        @ kill: def $r1 killed $r0
	.loc	1 450 10 is_stmt 1              @ ../main.c:450:10
	ldr	r0, [sp, #4]                    @ 4-byte Reload
	ldrb	r0, [r0]
	.loc	1 450 3 is_stmt 0               @ ../main.c:450:3
	str	r0, [sp, #8]                    @ 4-byte Spill
	cmp	r0, #49
	beq	.LBB30_9
	b	.LBB30_3
.LBB30_3:
	ldr	r0, [sp, #8]                    @ 4-byte Reload
	cmp	r0, #50
	beq	.LBB30_10
	b	.LBB30_4
.LBB30_4:
	ldr	r0, [sp, #8]                    @ 4-byte Reload
	cmp	r0, #51
	beq	.LBB30_11
	b	.LBB30_5
.LBB30_5:
	ldr	r0, [sp, #8]                    @ 4-byte Reload
	cmp	r0, #88
	beq	.LBB30_12
	b	.LBB30_6
.LBB30_6:
	ldr	r0, [sp, #8]                    @ 4-byte Reload
	cmp	r0, #90
	beq	.LBB30_12
	b	.LBB30_7
.LBB30_7:
	ldr	r0, [sp, #8]                    @ 4-byte Reload
	cmp	r0, #120
	beq	.LBB30_12
	b	.LBB30_8
.LBB30_8:
	ldr	r0, [sp, #8]                    @ 4-byte Reload
	cmp	r0, #122
	beq	.LBB30_12
	b	.LBB30_13
.LBB30_9:
.Ltmp163:
	.loc	1 453 37 is_stmt 1              @ ../main.c:453:37
	ldr	r1, __arm_cp.30_2
	ldrb	r0, [r1]
	movs	r2, #4
	orrs	r0, r2
	strb	r0, [r1]
	.loc	1 454 5                         @ ../main.c:454:5
	b	.LBB30_13
.LBB30_10:
	.loc	1 456 38                        @ ../main.c:456:38
	ldr	r1, __arm_cp.30_2
	ldrb	r0, [r1]
	movs	r2, #2
	orrs	r0, r2
	strb	r0, [r1]
	.loc	1 457 5                         @ ../main.c:457:5
	b	.LBB30_13
.LBB30_11:
	.loc	1 459 38                        @ ../main.c:459:38
	ldr	r1, __arm_cp.30_2
	ldrb	r0, [r1]
	movs	r2, #8
	orrs	r0, r2
	strb	r0, [r1]
	.loc	1 460 5                         @ ../main.c:460:5
	b	.LBB30_13
.LBB30_12:
	.loc	1 466 17                        @ ../main.c:466:17
	bl	SYS_UnlockReg
	.loc	1 469 17                        @ ../main.c:469:17
	bl	SYS_ResetChip
	.loc	1 470 5                         @ ../main.c:470:5
	b	.LBB30_13
.Ltmp164:
.LBB30_13:
	.loc	1 0 5 is_stmt 0                 @ ../main.c:0:5
	b	.LBB30_14
.LBB30_14:
	.loc	1 473 1 epilogue_begin is_stmt 1 @ ../main.c:473:1
	add	sp, #16
	pop	{r7, pc}
.Ltmp165:
	.p2align	2
@ %bb.15:
	.loc	1 0 1 is_stmt 0                 @ ../main.c:0:1
__arm_cp.30_0:
	.long	1074200576                      @ 0x40070000
.Lcpi_end60:
	.size	__arm_cp.30_0, .Lcpi_end60-__arm_cp.30_0
__arm_cp.30_1:
	.long	.L.str.30
.Lcpi_end61:
	.size	__arm_cp.30_1, .Lcpi_end61-__arm_cp.30_1
__arm_cp.30_2:
	.long	flag_PROJ_CTL
.Lcpi_end62:
	.size	__arm_cp.30_2, .Lcpi_end62-__arm_cp.30_2
__arm_cp.30_3:
	.long	.L.str.29
.Lcpi_end63:
	.size	__arm_cp.30_3, .Lcpi_end63-__arm_cp.30_3
.Lfunc_end30:
	.size	UARTx_Process, .Lfunc_end30-UARTx_Process
	.cfi_endproc
	.cantunwind
	.fnend
                                        @ -- End function
	.section	.text.UART0_IRQHandler,"ax",%progbits
	.hidden	UART0_IRQHandler                @ -- Begin function UART0_IRQHandler
	.globl	UART0_IRQHandler
	.p2align	2
	.type	UART0_IRQHandler,%function
	.code	16                              @ @UART0_IRQHandler
	.thumb_func
UART0_IRQHandler:
.Lfunc_begin31:
	.loc	1 476 0 is_stmt 1               @ ../main.c:476:0
	.fnstart
	.cfi_startproc
@ %bb.0:
	.save	{r7, lr}
	push	{r7, lr}
	.cfi_def_cfa_offset 8
	.cfi_offset lr, -4
	.cfi_offset r7, -8
	ldr	r0, __arm_cp.31_0
.Ltmp166:
	.loc	1 477 8 prologue_end            @ ../main.c:477:8
	ldr	r0, [r0]
	movw	r1, #4352
.Ltmp167:
	.loc	1 477 8 is_stmt 0               @ ../main.c:477:8
	tst	r0, r1
	beq	.LBB31_2
	b	.LBB31_1
.LBB31_1:
	.loc	1 0 8                           @ ../main.c:0:8
	movs	r0, #1
.Ltmp168:
	.loc	1 477 8                         @ ../main.c:477:8
	cbnz	r0, .LBB31_3
	b	.LBB31_7
.Ltmp169:
.LBB31_2:
	.loc	1 0 8                           @ ../main.c:0:8
	movs	r0, #1
	.loc	1 477 8                         @ ../main.c:477:8
	cbnz	r0, .LBB31_7
	b	.LBB31_3
.LBB31_3:
.Ltmp170:
	.loc	1 479 9 is_stmt 1               @ ../main.c:479:9
	b	.LBB31_4
.LBB31_4:                               @ =>This Inner Loop Header: Depth=1
	.loc	1 0 9 is_stmt 0                 @ ../main.c:0:9
	ldr	r0, __arm_cp.31_1
	.loc	1 479 15                        @ ../main.c:479:15
	ldr	r0, [r0]
	.loc	1 479 9                         @ ../main.c:479:9
	lsls	r0, r0, #17
	cmp	r0, #0
	bmi	.LBB31_6
	b	.LBB31_5
.LBB31_5:                               @   in Loop: Header=BB31_4 Depth=1
.Ltmp171:
	.loc	1 481 4 is_stmt 1               @ ../main.c:481:4
	bl	UARTx_Process
.Ltmp172:
	.loc	1 479 9                         @ ../main.c:479:9
	b	.LBB31_4
.LBB31_6:
	.loc	1 483 5                         @ ../main.c:483:5
	b	.LBB31_7
.Ltmp173:
.LBB31_7:
	.loc	1 0 5 is_stmt 0                 @ ../main.c:0:5
	ldr	r0, __arm_cp.31_1
.Ltmp174:
	.loc	1 485 15 is_stmt 1              @ ../main.c:485:15
	ldr	r0, [r0]
	movs	r1, #113
.Ltmp175:
	.loc	1 485 8 is_stmt 0               @ ../main.c:485:8
	tst	r0, r1
	beq	.LBB31_9
	b	.LBB31_8
.LBB31_8:
	.loc	1 0 8                           @ ../main.c:0:8
	ldr	r0, __arm_cp.31_2
	movw	r1, #9216
.Ltmp176:
	.loc	1 487 9 is_stmt 1               @ ../main.c:487:9
	bl	UART_ClearIntFlag
	.loc	1 488 5                         @ ../main.c:488:5
	b	.LBB31_9
.Ltmp177:
.LBB31_9:
	.loc	1 489 1 epilogue_begin          @ ../main.c:489:1
	pop	{r7, pc}
.Ltmp178:
	.p2align	2
@ %bb.10:
	.loc	1 0 1 is_stmt 0                 @ ../main.c:0:1
__arm_cp.31_0:
	.long	1074200604                      @ 0x4007001c
.Lcpi_end64:
	.size	__arm_cp.31_0, .Lcpi_end64-__arm_cp.31_0
__arm_cp.31_1:
	.long	1074200600                      @ 0x40070018
.Lcpi_end65:
	.size	__arm_cp.31_1, .Lcpi_end65-__arm_cp.31_1
__arm_cp.31_2:
	.long	1074200576                      @ 0x40070000
.Lcpi_end66:
	.size	__arm_cp.31_2, .Lcpi_end66-__arm_cp.31_2
.Lfunc_end31:
	.size	UART0_IRQHandler, .Lfunc_end31-UART0_IRQHandler
	.cfi_endproc
	.cantunwind
	.fnend
                                        @ -- End function
	.section	.text.UART0_Init,"ax",%progbits
	.hidden	UART0_Init                      @ -- Begin function UART0_Init
	.globl	UART0_Init
	.p2align	2
	.type	UART0_Init,%function
	.code	16                              @ @UART0_Init
	.thumb_func
UART0_Init:
.Lfunc_begin32:
	.loc	1 492 0 is_stmt 1               @ ../main.c:492:0
	.fnstart
	.cfi_startproc
@ %bb.0:
	.save	{r7, lr}
	push	{r7, lr}
	.cfi_def_cfa_offset 8
	.cfi_offset lr, -4
	.cfi_offset r7, -8
	.pad	#8
	sub	sp, #8
	.cfi_def_cfa_offset 16
	ldr	r0, __arm_cp.32_0
.Ltmp179:
	.loc	1 493 5 prologue_end            @ ../main.c:493:5
	bl	SYS_ResetModule
	movs	r0, #225
	lsls	r1, r0, #9
	ldr	r0, __arm_cp.32_1
	.loc	1 496 5                         @ ../main.c:496:5
	str	r0, [sp, #4]                    @ 4-byte Spill
	bl	UART_Open
	ldr	r0, [sp, #4]                    @ 4-byte Reload
	movs	r1, #17
	.loc	1 497 5                         @ ../main.c:497:5
	bl	UART_EnableInt
	movs	r0, #36
	.loc	1 498 5                         @ ../main.c:498:5
	bl	__NVIC_EnableIRQ
	.loc	1 501 45                        @ ../main.c:501:45
	bl	CLK_GetHCLKFreq
	mov	r1, r0
	.loc	1 501 2 is_stmt 0               @ ../main.c:501:2
	ldr	r0, __arm_cp.32_2
	bl	printf
	.loc	1 502 42 is_stmt 1              @ ../main.c:502:42
	bl	CLK_GetPCLK0Freq
	mov	r1, r0
	.loc	1 502 2 is_stmt 0               @ ../main.c:502:2
	ldr	r0, __arm_cp.32_3
	bl	printf
	.loc	1 503 42 is_stmt 1              @ ../main.c:503:42
	bl	CLK_GetPCLK1Freq
	mov	r1, r0
	.loc	1 503 2 is_stmt 0               @ ../main.c:503:2
	ldr	r0, __arm_cp.32_4
	bl	printf
	.loc	1 504 40 is_stmt 1              @ ../main.c:504:40
	bl	CLK_GetCPUFreq
	mov	r1, r0
	.loc	1 504 2 is_stmt 0               @ ../main.c:504:2
	ldr	r0, __arm_cp.32_5
	bl	printf
	.loc	1 518 1 epilogue_begin is_stmt 1 @ ../main.c:518:1
	add	sp, #8
	pop	{r7, pc}
.Ltmp180:
	.p2align	2
@ %bb.1:
	.loc	1 0 1 is_stmt 0                 @ ../main.c:0:1
__arm_cp.32_0:
	.long	67108880                        @ 0x4000010
.Lcpi_end67:
	.size	__arm_cp.32_0, .Lcpi_end67-__arm_cp.32_0
__arm_cp.32_1:
	.long	1074200576                      @ 0x40070000
.Lcpi_end68:
	.size	__arm_cp.32_1, .Lcpi_end68-__arm_cp.32_1
__arm_cp.32_2:
	.long	.L.str.31
.Lcpi_end69:
	.size	__arm_cp.32_2, .Lcpi_end69-__arm_cp.32_2
__arm_cp.32_3:
	.long	.L.str.32
.Lcpi_end70:
	.size	__arm_cp.32_3, .Lcpi_end70-__arm_cp.32_3
__arm_cp.32_4:
	.long	.L.str.33
.Lcpi_end71:
	.size	__arm_cp.32_4, .Lcpi_end71-__arm_cp.32_4
__arm_cp.32_5:
	.long	.L.str.34
.Lcpi_end72:
	.size	__arm_cp.32_5, .Lcpi_end72-__arm_cp.32_5
.Lfunc_end32:
	.size	UART0_Init, .Lfunc_end32-UART0_Init
	.cfi_endproc
	.cantunwind
	.fnend
                                        @ -- End function
	.section	.text.GPIO_Init,"ax",%progbits
	.hidden	GPIO_Init                       @ -- Begin function GPIO_Init
	.globl	GPIO_Init
	.p2align	2
	.type	GPIO_Init,%function
	.code	16                              @ @GPIO_Init
	.thumb_func
GPIO_Init:
.Lfunc_begin33:
	.loc	1 521 0 is_stmt 1               @ ../main.c:521:0
	.fnstart
	.cfi_startproc
@ %bb.0:
	.save	{r7, lr}
	push	{r7, lr}
	.cfi_def_cfa_offset 8
	.cfi_offset lr, -4
	.cfi_offset r7, -8
	ldr	r1, __arm_cp.33_0
.Ltmp181:
	.loc	1 522 27 prologue_end           @ ../main.c:522:27
	ldr	r0, [r1]
	movs	r2, #240
	.loc	1 522 36 is_stmt 0              @ ../main.c:522:36
	bics	r0, r2
	.loc	1 522 19                        @ ../main.c:522:19
	str	r0, [r1]
	ldr	r0, __arm_cp.33_1
	movs	r1, #2
	movs	r2, #1
	.loc	1 524 5 is_stmt 1               @ ../main.c:524:5
	bl	GPIO_SetMode
	.loc	1 525 1 epilogue_begin          @ ../main.c:525:1
	pop	{r7, pc}
.Ltmp182:
	.p2align	2
@ %bb.1:
	.loc	1 0 1 is_stmt 0                 @ ../main.c:0:1
__arm_cp.33_0:
	.long	1073741880                      @ 0x40000038
.Lcpi_end73:
	.size	__arm_cp.33_0, .Lcpi_end73-__arm_cp.33_0
__arm_cp.33_1:
	.long	1073758272                      @ 0x40004040
.Lcpi_end74:
	.size	__arm_cp.33_1, .Lcpi_end74-__arm_cp.33_1
.Lfunc_end33:
	.size	GPIO_Init, .Lfunc_end33-GPIO_Init
	.cfi_endproc
	.cantunwind
	.fnend
                                        @ -- End function
	.section	.text.SYS_Init,"ax",%progbits
	.hidden	SYS_Init                        @ -- Begin function SYS_Init
	.globl	SYS_Init
	.p2align	2
	.type	SYS_Init,%function
	.code	16                              @ @SYS_Init
	.thumb_func
SYS_Init:
.Lfunc_begin34:
	.loc	1 528 0 is_stmt 1               @ ../main.c:528:0
	.fnstart
	.cfi_startproc
@ %bb.0:
	.save	{r7, lr}
	push	{r7, lr}
	.cfi_def_cfa_offset 8
	.cfi_offset lr, -4
	.cfi_offset r7, -8
	.pad	#16
	sub	sp, #16
	.cfi_def_cfa_offset 24
.Ltmp183:
	.loc	1 530 5 prologue_end            @ ../main.c:530:5
	bl	SYS_UnlockReg
	movs	r0, #4
	.loc	1 535 5                         @ ../main.c:535:5
	bl	CLK_EnableXtalRC
	movs	r0, #16
	.loc	1 536 5                         @ ../main.c:536:5
	bl	CLK_WaitClockReady
	movs	r0, #5
	movs	r1, #0
	.loc	1 548 5                         @ ../main.c:548:5
	str	r1, [sp, #12]                   @ 4-byte Spill
	bl	CLK_SetHCLK
	ldr	r0, __arm_cp.34_0
	.loc	1 554 5                         @ ../main.c:554:5
	str	r0, [sp, #4]                    @ 4-byte Spill
	bl	CLK_EnableModuleClock
	ldr	r0, [sp, #4]                    @ 4-byte Reload
	ldr	r2, [sp, #12]                   @ 4-byte Reload
	movw	r1, #20480
	.loc	1 555 4                         @ ../main.c:555:4
	bl	CLK_SetModuleClock
	ldr	r0, __arm_cp.34_1
	.loc	1 558 5                         @ ../main.c:558:5
	str	r0, [sp, #8]                    @ 4-byte Spill
	bl	CLK_EnableModuleClock
	ldr	r0, [sp, #8]                    @ 4-byte Reload
	ldr	r2, [sp, #12]                   @ 4-byte Reload
	movs	r1, #3
	lsls	r1, r1, #16
	.loc	1 559 5                         @ ../main.c:559:5
	bl	CLK_SetModuleClock
	.loc	1 565 5                         @ ../main.c:565:5
	bl	Uart0DefaultMPF
	.loc	1 569 5                         @ ../main.c:569:5
	bl	SystemCoreClockUpdate
	.loc	1 575 5                         @ ../main.c:575:5
	bl	Uart0DefaultMPF
	.loc	1 578 5                         @ ../main.c:578:5
	bl	SYS_LockReg
	.loc	1 579 1 epilogue_begin          @ ../main.c:579:1
	add	sp, #16
	pop	{r7, pc}
.Ltmp184:
	.p2align	2
@ %bb.1:
	.loc	1 0 1 is_stmt 0                 @ ../main.c:0:1
__arm_cp.34_0:
	.long	1589641219                      @ 0x5ec00003
.Lcpi_end75:
	.size	__arm_cp.34_0, .Lcpi_end75-__arm_cp.34_0
__arm_cp.34_1:
	.long	1862286608                      @ 0x6f003d10
.Lcpi_end76:
	.size	__arm_cp.34_1, .Lcpi_end76-__arm_cp.34_1
.Lfunc_end34:
	.size	SYS_Init, .Lfunc_end34-SYS_Init
	.cfi_endproc
	.cantunwind
	.fnend
                                        @ -- End function
	.section	.text.main,"ax",%progbits
	.hidden	main                            @ -- Begin function main
	.globl	main
	.p2align	1
	.type	main,%function
	.code	16                              @ @main
	.thumb_func
main:
.Lfunc_begin35:
	.loc	1 590 0 is_stmt 1               @ ../main.c:590:0
	.fnstart
	.cfi_startproc
@ %bb.0:
	.save	{r7, lr}
	push	{r7, lr}
	.cfi_def_cfa_offset 8
	.cfi_offset lr, -4
	.cfi_offset r7, -8
	.pad	#8
	sub	sp, #8
	.cfi_def_cfa_offset 16
	movs	r0, #0
	str	r0, [sp, #4]
.Ltmp185:
	.loc	1 591 5 prologue_end            @ ../main.c:591:5
	bl	SYS_Init
	.loc	1 593 2                         @ ../main.c:593:2
	bl	GPIO_Init
	.loc	1 594 2                         @ ../main.c:594:2
	bl	UART0_Init
	.loc	1 595 2                         @ ../main.c:595:2
	bl	TIMER1_Init
	.loc	1 596 5                         @ ../main.c:596:5
	bl	check_reset_source
	movw	r0, #1000
	.loc	1 598 5                         @ ../main.c:598:5
	bl	SysTick_enable
	.loc	1 604 5                         @ ../main.c:604:5
	bl	TimerService_Init
	.loc	1 605 5                         @ ../main.c:605:5
	bl	TimerService_CreateTask
	.loc	1 607 2                         @ ../main.c:607:2
	bl	Emulate_EEPROM
	.loc	1 608 5                         @ ../main.c:608:5
	bl	Emulate_EEPROM_ReadTest
	.loc	1 611 5                         @ ../main.c:611:5
	b	.LBB35_1
.LBB35_1:                               @ =>This Inner Loop Header: Depth=1
.Ltmp186:
	.loc	1 613 9                         @ ../main.c:613:9
	bl	loop
.Ltmp187:
	.loc	1 611 5                         @ ../main.c:611:5
	b	.LBB35_1
.Ltmp188:
.Lfunc_end35:
	.size	main, .Lfunc_end35-main
	.cfi_endproc
	.cantunwind
	.fnend
                                        @ -- End function
	.section	.text.__NVIC_SetPriority,"ax",%progbits
	.p2align	2                               @ -- Begin function __NVIC_SetPriority
	.type	__NVIC_SetPriority,%function
	.code	16                              @ @__NVIC_SetPriority
	.thumb_func
__NVIC_SetPriority:
.Lfunc_begin36:
	.loc	9 1678 0                        @ ../../../Library/CMSIS/Core/Include\core_cm23.h:1678:0
	.fnstart
	.cfi_startproc
@ %bb.0:
	.save	{r4, r5, r6, lr}
	push	{r4, r5, r6, lr}
	.cfi_def_cfa_offset 16
	.cfi_offset lr, -4
	.cfi_offset r6, -8
	.cfi_offset r5, -12
	.cfi_offset r4, -16
	.pad	#8
	sub	sp, #8
	.cfi_def_cfa_offset 24
	mov	r2, r0
                                        @ kill: def $r0 killed $r2
	add	r0, sp, #4
	strb	r2, [r0]
	str	r1, [sp]
.Ltmp189:
	.loc	9 1679 17 prologue_end          @ ../../../Library/CMSIS/Core/Include\core_cm23.h:1679:17
	movs	r1, #0
	ldrsb	r0, [r0, r1]
.Ltmp190:
	.loc	9 1679 7 is_stmt 0              @ ../../../Library/CMSIS/Core/Include\core_cm23.h:1679:7
	cmp	r0, #0
	bmi	.LBB36_2
	b	.LBB36_1
.LBB36_1:
.Ltmp191:
	.loc	9 1681 55 is_stmt 1             @ ../../../Library/CMSIS/Core/Include\core_cm23.h:1681:55
	movs	r4, #0
	add	r1, sp, #4
	ldrsb	r0, [r1, r4]
	movs	r2, #3
	mvns	r3, r2
	.loc	9 1681 45 is_stmt 0             @ ../../../Library/CMSIS/Core/Include\core_cm23.h:1681:45
	ands	r0, r3
	ldr	r2, __arm_cp.36_1
	ldr	r0, [r0, r2]
	.loc	9 1681 85                       @ ../../../Library/CMSIS/Core/Include\core_cm23.h:1681:85
	ldrsb	r1, [r1, r4]
	lsls	r4, r1, #30
	lsrs	r5, r4, #27
	movs	r4, #255
	.loc	9 1681 82                       @ ../../../Library/CMSIS/Core/Include\core_cm23.h:1681:82
	lsls	r4, r5
	.loc	9 1681 71                       @ ../../../Library/CMSIS/Core/Include\core_cm23.h:1681:71
	bics	r0, r4
	.loc	9 1682 11 is_stmt 1             @ ../../../Library/CMSIS/Core/Include\core_cm23.h:1682:11
	ldr	r4, [sp]
	.loc	9 1682 20 is_stmt 0             @ ../../../Library/CMSIS/Core/Include\core_cm23.h:1682:20
	lsls	r4, r4, #6
	.loc	9 1682 48                       @ ../../../Library/CMSIS/Core/Include\core_cm23.h:1682:48
	uxtb	r4, r4
	.loc	9 1682 68                       @ ../../../Library/CMSIS/Core/Include\core_cm23.h:1682:68
	lsls	r4, r5
	.loc	9 1681 104 is_stmt 1            @ ../../../Library/CMSIS/Core/Include\core_cm23.h:1681:104
	orrs	r0, r4
	.loc	9 1681 5 is_stmt 0              @ ../../../Library/CMSIS/Core/Include\core_cm23.h:1681:5
	ands	r1, r3
	.loc	9 1681 31                       @ ../../../Library/CMSIS/Core/Include\core_cm23.h:1681:31
	str	r0, [r1, r2]
	.loc	9 1683 3 is_stmt 1              @ ../../../Library/CMSIS/Core/Include\core_cm23.h:1683:3
	b	.LBB36_3
.Ltmp192:
.LBB36_2:
	.loc	9 0 3 is_stmt 0                 @ ../../../Library/CMSIS/Core/Include\core_cm23.h:0:3
	add	r1, sp, #4
.Ltmp193:
	.loc	9 1686 55 is_stmt 1             @ ../../../Library/CMSIS/Core/Include\core_cm23.h:1686:55
	ldrb	r0, [r1]
	movs	r4, #15
	ands	r0, r4
	subs	r0, #8
	movs	r2, #3
	mvns	r3, r2
	.loc	9 1686 45 is_stmt 0             @ ../../../Library/CMSIS/Core/Include\core_cm23.h:1686:45
	ands	r0, r3
	ldr	r2, __arm_cp.36_0
	ldr	r0, [r0, r2]
	.loc	9 1686 85                       @ ../../../Library/CMSIS/Core/Include\core_cm23.h:1686:85
	movs	r5, #0
	ldrsb	r1, [r1, r5]
	lsls	r5, r1, #30
	lsrs	r6, r5, #27
	movs	r5, #255
	.loc	9 1686 82                       @ ../../../Library/CMSIS/Core/Include\core_cm23.h:1686:82
	lsls	r5, r6
	.loc	9 1686 71                       @ ../../../Library/CMSIS/Core/Include\core_cm23.h:1686:71
	bics	r0, r5
	.loc	9 1687 11 is_stmt 1             @ ../../../Library/CMSIS/Core/Include\core_cm23.h:1687:11
	ldr	r5, [sp]
	.loc	9 1687 20 is_stmt 0             @ ../../../Library/CMSIS/Core/Include\core_cm23.h:1687:20
	lsls	r5, r5, #6
	.loc	9 1687 48                       @ ../../../Library/CMSIS/Core/Include\core_cm23.h:1687:48
	uxtb	r5, r5
	.loc	9 1687 68                       @ ../../../Library/CMSIS/Core/Include\core_cm23.h:1687:68
	lsls	r5, r6
	.loc	9 1686 104 is_stmt 1            @ ../../../Library/CMSIS/Core/Include\core_cm23.h:1686:104
	orrs	r0, r5
	.loc	9 1686 15 is_stmt 0             @ ../../../Library/CMSIS/Core/Include\core_cm23.h:1686:15
	ands	r1, r4
	subs	r1, #8
	.loc	9 1686 5                        @ ../../../Library/CMSIS/Core/Include\core_cm23.h:1686:5
	ands	r1, r3
	.loc	9 1686 31                       @ ../../../Library/CMSIS/Core/Include\core_cm23.h:1686:31
	str	r0, [r1, r2]
	b	.LBB36_3
.Ltmp194:
.LBB36_3:
	.loc	9 1689 1 epilogue_begin is_stmt 1 @ ../../../Library/CMSIS/Core/Include\core_cm23.h:1689:1
	add	sp, #8
	pop	{r4, r5, r6, pc}
.Ltmp195:
	.p2align	2
@ %bb.4:
	.loc	9 0 1 is_stmt 0                 @ ../../../Library/CMSIS/Core/Include\core_cm23.h:0:1
__arm_cp.36_0:
	.long	3758157084                      @ 0xe000ed1c
.Lcpi_end77:
	.size	__arm_cp.36_0, .Lcpi_end77-__arm_cp.36_0
__arm_cp.36_1:
	.long	3758154752                      @ 0xe000e400
.Lcpi_end78:
	.size	__arm_cp.36_1, .Lcpi_end78-__arm_cp.36_1
.Lfunc_end36:
	.size	__NVIC_SetPriority, .Lfunc_end36-__NVIC_SetPriority
	.cfi_endproc
	.cantunwind
	.fnend
                                        @ -- End function
	.hidden	counter_systick                 @ @counter_systick
	.type	counter_systick,%object
	.section	.bss.counter_systick,"aw",%nobits
	.globl	counter_systick
	.p2align	2, 0x0
counter_systick:
	.long	0                               @ 0x0
	.size	counter_systick, 4

	.hidden	counter_tick                    @ @counter_tick
	.type	counter_tick,%object
	.section	.bss.counter_tick,"aw",%nobits
	.globl	counter_tick
	.p2align	2, 0x0
counter_tick:
	.long	0                               @ 0x0
	.size	counter_tick, 4

	.type	.L.str,%object                  @ @.str
	.section	.rodata.str1.1,"aMS",%progbits,1
.L.str:
	.asciz	"Set system tick error!!\n"
	.size	.L.str, 25

	.type	.L.str.1,%object                @ @.str.1
.L.str.1:
	.asciz	"%s \r\n"
	.size	.L.str.1, 6

	.type	.L__FUNCTION__.Emulate_EEPROM_EraseTest,%object @ @__FUNCTION__.Emulate_EEPROM_EraseTest
.L__FUNCTION__.Emulate_EEPROM_EraseTest:
	.asciz	"Emulate_EEPROM_EraseTest"
	.size	.L__FUNCTION__.Emulate_EEPROM_EraseTest, 25

	.type	Emulate_EEPROM_WriteTest.incr_base,%object @ @Emulate_EEPROM_WriteTest.incr_base
	.section	.bss.Emulate_EEPROM_WriteTest.incr_base,"aw",%nobits
Emulate_EEPROM_WriteTest.incr_base:
	.byte	0                               @ 0x0
	.size	Emulate_EEPROM_WriteTest.incr_base, 1

	.type	.L.str.2,%object                @ @.str.2
	.section	.rodata.str1.1,"aMS",%progbits,1
.L.str.2:
	.asciz	"%s , incr_base : 0x%2X\r\n"
	.size	.L.str.2, 25

	.type	.L__FUNCTION__.Emulate_EEPROM_WriteTest,%object @ @__FUNCTION__.Emulate_EEPROM_WriteTest
.L__FUNCTION__.Emulate_EEPROM_WriteTest:
	.asciz	"Emulate_EEPROM_WriteTest"
	.size	.L__FUNCTION__.Emulate_EEPROM_WriteTest, 25

	.type	.L.str.3,%object                @ @.str.3
.L.str.3:
	.asciz	"%s\r\n"
	.size	.L.str.3, 5

	.type	.L__FUNCTION__.Emulate_EEPROM_ReadTest,%object @ @__FUNCTION__.Emulate_EEPROM_ReadTest
.L__FUNCTION__.Emulate_EEPROM_ReadTest:
	.asciz	"Emulate_EEPROM_ReadTest"
	.size	.L__FUNCTION__.Emulate_EEPROM_ReadTest, 24

	.type	.L.str.4,%object                @ @.str.4
.L.str.4:
	.asciz	"0x%2X , "
	.size	.L.str.4, 9

	.type	.L.str.5,%object                @ @.str.5
.L.str.5:
	.asciz	"\r\n"
	.size	.L.str.5, 3

	.type	.L.str.6,%object                @ @.str.6
.L.str.6:
	.asciz	"Init_EEPROM failed: 0x%08lX\r\n"
	.size	.L.str.6, 30

	.type	Task_1000ms_Callback.LOG1,%object @ @Task_1000ms_Callback.LOG1
	.section	.bss.Task_1000ms_Callback.LOG1,"aw",%nobits
	.p2align	2, 0x0
Task_1000ms_Callback.LOG1:
	.long	0                               @ 0x0
	.size	Task_1000ms_Callback.LOG1, 4

	.type	g_timer_id_task1,%object        @ @g_timer_id_task1
	.section	.data.g_timer_id_task1,"aw",%progbits
	.p2align	2, 0x0
g_timer_id_task1:
	.long	4294967295                      @ 0xffffffff
	.size	g_timer_id_task1, 4

	.type	.L.str.7,%object                @ @.str.7
	.section	.rodata.str1.1,"aMS",%progbits,1
.L.str.7:
	.asciz	"task1 id = %d\r\n"
	.size	.L.str.7, 16

	.type	g_timer_id_task2,%object        @ @g_timer_id_task2
	.section	.data.g_timer_id_task2,"aw",%progbits
	.p2align	2, 0x0
g_timer_id_task2:
	.long	4294967295                      @ 0xffffffff
	.size	g_timer_id_task2, 4

	.type	.L.str.8,%object                @ @.str.8
	.section	.rodata.str1.1,"aMS",%progbits,1
.L.str.8:
	.asciz	"task2 id = %d\r\n"
	.size	.L.str.8, 16

	.type	g_timer_id_task3,%object        @ @g_timer_id_task3
	.section	.data.g_timer_id_task3,"aw",%progbits
	.p2align	2, 0x0
g_timer_id_task3:
	.long	4294967295                      @ 0xffffffff
	.size	g_timer_id_task3, 4

	.type	.L.str.9,%object                @ @.str.9
	.section	.rodata.str1.1,"aMS",%progbits,1
.L.str.9:
	.asciz	"task3 id = %d\r\n"
	.size	.L.str.9, 16

	.type	.L.str.10,%object               @ @.str.10
.L.str.10:
	.asciz	"Reset Source <0x%08X>\r\n"
	.size	.L.str.10, 24

	.type	.L.str.11,%object               @ @.str.11
.L.str.11:
	.asciz	"0)POR Reset Flag\r\n"
	.size	.L.str.11, 19

	.type	.L.str.12,%object               @ @.str.12
.L.str.12:
	.asciz	"1)NRESET Pin Reset Flag\r\n"
	.size	.L.str.12, 26

	.type	.L.str.13,%object               @ @.str.13
.L.str.13:
	.asciz	"2)WDT Reset Flag\r\n"
	.size	.L.str.13, 19

	.type	.L.str.14,%object               @ @.str.14
.L.str.14:
	.asciz	"3)LVR Reset Flag\r\n"
	.size	.L.str.14, 19

	.type	.L.str.15,%object               @ @.str.15
.L.str.15:
	.asciz	"4)BOD Reset Flag\r\n"
	.size	.L.str.15, 19

	.type	.L.str.16,%object               @ @.str.16
.L.str.16:
	.asciz	"5)System Reset Flag \r\n"
	.size	.L.str.16, 23

	.type	.L.str.17,%object               @ @.str.17
.L.str.17:
	.asciz	"6)Reserved.\r\n"
	.size	.L.str.17, 14

	.type	.L.str.18,%object               @ @.str.18
.L.str.18:
	.asciz	"7)CPU Reset Flag\r\n"
	.size	.L.str.18, 19

	.type	.L.str.19,%object               @ @.str.19
.L.str.19:
	.asciz	"8)CPU Lockup Reset Flag\r\n"
	.size	.L.str.19, 26

	.type	.L.str.20,%object               @ @.str.20
.L.str.20:
	.asciz	"power on from POR\r\n"
	.size	.L.str.20, 20

	.type	.L.str.21,%object               @ @.str.21
.L.str.21:
	.asciz	"power on from nRESET pin\r\n"
	.size	.L.str.21, 27

	.type	.L.str.22,%object               @ @.str.22
.L.str.22:
	.asciz	"power on from WDT Reset\r\n"
	.size	.L.str.22, 26

	.type	.L.str.23,%object               @ @.str.23
.L.str.23:
	.asciz	"power on from LVR Reset\r\n"
	.size	.L.str.23, 26

	.type	.L.str.24,%object               @ @.str.24
.L.str.24:
	.asciz	"power on from BOD Reset\r\n"
	.size	.L.str.24, 26

	.type	.L.str.25,%object               @ @.str.25
.L.str.25:
	.asciz	"power on from System Reset\r\n"
	.size	.L.str.25, 29

	.type	.L.str.26,%object               @ @.str.26
.L.str.26:
	.asciz	"power on from CPU reset\r\n"
	.size	.L.str.26, 26

	.type	.L.str.27,%object               @ @.str.27
.L.str.27:
	.asciz	"power on from CPU Lockup Reset\r\n"
	.size	.L.str.27, 33

	.type	.L.str.28,%object               @ @.str.28
.L.str.28:
	.asciz	"power on from unhandle reset source\r\n"
	.size	.L.str.28, 38

	.hidden	flag_PROJ_CTL                   @ @flag_PROJ_CTL
	.type	flag_PROJ_CTL,%object
	.section	.bss.flag_PROJ_CTL,"aw",%nobits
	.globl	flag_PROJ_CTL
flag_PROJ_CTL:
	.zero	4
	.size	flag_PROJ_CTL, 4

	.type	.L.str.29,%object               @ @.str.29
	.section	.rodata.str1.1,"aMS",%progbits,1
.L.str.29:
	.asciz	"invalid command\r\n"
	.size	.L.str.29, 18

	.type	.L.str.30,%object               @ @.str.30
.L.str.30:
	.asciz	"press : %c\r\n"
	.size	.L.str.30, 13

	.type	.L.str.31,%object               @ @.str.31
.L.str.31:
	.asciz	"\r\nCLK_GetHCLKFreq : %8d\r\n"
	.size	.L.str.31, 26

	.type	.L.str.32,%object               @ @.str.32
.L.str.32:
	.asciz	"CLK_GetPCLK0Freq : %8d\r\n"
	.size	.L.str.32, 25

	.type	.L.str.33,%object               @ @.str.33
.L.str.33:
	.asciz	"CLK_GetPCLK1Freq : %8d\r\n"
	.size	.L.str.33, 25

	.type	.L.str.34,%object               @ @.str.34
.L.str.34:
	.asciz	"CLK_GetCPUFreq : %8d\r\n"
	.size	.L.str.34, 23

	.type	__ARM_use_no_argv,%object       @ @__ARM_use_no_argv
	.section	.ARM.use_no_argv,"awR",%progbits,unique,1
	.globl	__ARM_use_no_argv
	.p2align	2, 0x0
__ARM_use_no_argv:
	.long	1                               @ 0x1
	.size	__ARM_use_no_argv, 4

	.section	".note.GNU-stack","",%progbits
	.eabi_attribute	30, 6	@ Tag_ABI_optimization_goals
	.ARM_attribute	16, 1	@ Tag_AV_eba