	.text
	.syntax unified
	.eabi_attribute	67, "2.09"	@ Tag_conformance
	.cpu	cortex-m23
	.eabi_attribute	6, 16	@ Tag_CPU_arch
	.eabi_attribute	7, 77	@ Tag_CPU_arch_profile
	.eabi_attribute	8, 0	@ Tag_ARM_ISA_use
	.eabi_attribute	9, 3	@ Tag_THUMB_ISA_use
	.eabi_attribute	34, 0	@ Tag_CPU_unaligned_access
	.eabi_attribute	17, 1	@ Tag_ABI_PCS_GOT_use
	.eabi_attribute	20, 2	@ Tag_ABI_FP_denormal
	.eabi_attribute	21, 0	@ Tag_ABI_FP_exceptions
	.eabi_attribute	23, 1	@ Tag_ABI_FP_number_model
	.eabi_attribute	24, 1	@ Tag_ABI_align_needed
	.eabi_attribute	25, 1	@ Tag_ABI_align_preserved
	.eabi_attribute	38, 1	@ Tag_ABI_FP_16bit_format
	.eabi_attribute	18, 2	@ Tag_ABI_PCS_wchar_t
	.eabi_attribute	26, 1	@ Tag_ABI_enum_size
	.eabi_attribute	14, 0	@ Tag_ABI_PCS_R9_use
	.file	"misc_config.c"
	.file	1 "D:\\SourceCode\\_Avery_M2003\\M2003BSP_FLASH_EMULATE_EEPROM\\SampleCode\\Template\\Keil" "../misc_config.c"
	.file	2 "D:\\SourceCode\\_Avery_M2003\\M2003BSP_FLASH_EMULATE_EEPROM\\SampleCode\\Template\\Keil" "..\\misc_config.h"
	.section	.text.read_64_words,"ax",%progbits
	.hidden	read_64_words                   @ -- Begin function read_64_words
	.globl	read_64_words
	.p2align	1
	.type	read_64_words,%function
	.code	16                              @ @read_64_words
	.thumb_func
read_64_words:
.Lfunc_begin0:
	.loc	1 42 0                          @ ../misc_config.c:42:0
	.fnstart
	.cfi_sections .debug_frame
	.cfi_startproc
@ %bb.0:
	.pad	#12
	sub	sp, #12
	.cfi_def_cfa_offset 12
	str	r0, [sp, #8]
	str	r1, [sp, #4]
	movs	r0, #0
.Ltmp0:
	.loc	1 45 12 prologue_end            @ ../misc_config.c:45:12
	str	r0, [sp]
	.loc	1 45 10 is_stmt 0               @ ../misc_config.c:45:10
	b	.LBB0_1
.LBB0_1:                                @ =>This Inner Loop Header: Depth=1
.Ltmp1:
	.loc	1 45 17                         @ ../misc_config.c:45:17
	ldr	r0, [sp]
.Ltmp2:
	.loc	1 45 5                          @ ../misc_config.c:45:5
	cmp	r0, #63
	bhi	.LBB0_4
	b	.LBB0_2
.LBB0_2:                                @   in Loop: Header=BB0_1 Depth=1
.Ltmp3:
	.loc	1 47 21 is_stmt 1               @ ../misc_config.c:47:21
	ldr	r0, [sp, #8]
	.loc	1 47 32 is_stmt 0               @ ../misc_config.c:47:32
	ldr	r1, [sp]
	.loc	1 47 21                         @ ../misc_config.c:47:21
	lsls	r1, r1, #2
	ldr	r0, [r0, r1]
	.loc	1 47 9                          @ ../misc_config.c:47:9
	ldr	r1, [sp, #4]
	.loc	1 47 16                         @ ../misc_config.c:47:16
	ldr	r2, [sp]
	.loc	1 47 9                          @ ../misc_config.c:47:9
	lsls	r2, r2, #2
	.loc	1 47 19                         @ ../misc_config.c:47:19
	str	r0, [r1, r2]
	.loc	1 48 5 is_stmt 1                @ ../misc_config.c:48:5
	b	.LBB0_3
.Ltmp4:
.LBB0_3:                                @   in Loop: Header=BB0_1 Depth=1
	.loc	1 45 27                         @ ../misc_config.c:45:27
	ldr	r0, [sp]
	adds	r0, r0, #1
	str	r0, [sp]
	.loc	1 45 5 is_stmt 0                @ ../misc_config.c:45:5
	b	.LBB0_1
.Ltmp5:
.LBB0_4:
	.loc	1 49 1 epilogue_begin is_stmt 1 @ ../misc_config.c:49:1
	add	sp, #12
	bx	lr
.Ltmp6:
.Lfunc_end0:
	.size	read_64_words, .Lfunc_end0-read_64_words
	.cfi_endproc
	.cantunwind
	.fnend
                                        @ -- End function
	.section	.text.read_u32,"ax",%progbits
	.hidden	read_u32                        @ -- Begin function read_u32
	.globl	read_u32
	.p2align	1
	.type	read_u32,%function
	.code	16                              @ @read_u32
	.thumb_func
read_u32:
.Lfunc_begin1:
	.loc	1 56 0                          @ ../misc_config.c:56:0
	.fnstart
	.cfi_startproc
@ %bb.0:
	.pad	#4
	sub	sp, #4
	.cfi_def_cfa_offset 4
	str	r0, [sp]
.Ltmp7:
	.loc	1 57 13 prologue_end            @ ../misc_config.c:57:13
	ldr	r0, [sp]
	.loc	1 57 12 is_stmt 0               @ ../misc_config.c:57:12
	ldr	r0, [r0]
	.loc	1 57 5 epilogue_begin           @ ../misc_config.c:57:5
	add	sp, #4
	bx	lr
.Ltmp8:
.Lfunc_end1:
	.size	read_u32, .Lfunc_end1-read_u32
	.cfi_endproc
	.cantunwind
	.fnend
                                        @ -- End function
	.section	.text.read_u16,"ax",%progbits
	.hidden	read_u16                        @ -- Begin function read_u16
	.globl	read_u16
	.p2align	1
	.type	read_u16,%function
	.code	16                              @ @read_u16
	.thumb_func
read_u16:
.Lfunc_begin2:
	.loc	1 61 0 is_stmt 1                @ ../misc_config.c:61:0
	.fnstart
	.cfi_startproc
@ %bb.0:
	.pad	#4
	sub	sp, #4
	.cfi_def_cfa_offset 4
	str	r0, [sp]
.Ltmp9:
	.loc	1 62 13 prologue_end            @ ../misc_config.c:62:13
	ldr	r0, [sp]
	.loc	1 62 12 is_stmt 0               @ ../misc_config.c:62:12
	ldrh	r0, [r0]
	.loc	1 62 5 epilogue_begin           @ ../misc_config.c:62:5
	add	sp, #4
	bx	lr
.Ltmp10:
.Lfunc_end2:
	.size	read_u16, .Lfunc_end2-read_u16
	.cfi_endproc
	.cantunwind
	.fnend
                                        @ -- End function
	.section	.text.read_u8,"ax",%progbits
	.hidden	read_u8                         @ -- Begin function read_u8
	.globl	read_u8
	.p2align	1
	.type	read_u8,%function
	.code	16                              @ @read_u8
	.thumb_func
read_u8:
.Lfunc_begin3:
	.loc	1 66 0 is_stmt 1                @ ../misc_config.c:66:0
	.fnstart
	.cfi_startproc
@ %bb.0:
	.pad	#4
	sub	sp, #4
	.cfi_def_cfa_offset 4
	str	r0, [sp]
.Ltmp11:
	.loc	1 67 13 prologue_end            @ ../misc_config.c:67:13
	ldr	r0, [sp]
	.loc	1 67 12 is_stmt 0               @ ../misc_config.c:67:12
	ldrb	r0, [r0]
	.loc	1 67 5 epilogue_begin           @ ../misc_config.c:67:5
	add	sp, #4
	bx	lr
.Ltmp12:
.Lfunc_end3:
	.size	read_u8, .Lfunc_end3-read_u8
	.cfi_endproc
	.cantunwind
	.fnend
                                        @ -- End function
	.section	.text.compare_buffer,"ax",%progbits
	.hidden	compare_buffer                  @ -- Begin function compare_buffer
	.globl	compare_buffer
	.p2align	2
	.type	compare_buffer,%function
	.code	16                              @ @compare_buffer
	.thumb_func
compare_buffer:
.Lfunc_begin4:
	.loc	1 71 0 is_stmt 1                @ ../misc_config.c:71:0
	.fnstart
	.cfi_startproc
@ %bb.0:
	.save	{r7, lr}
	push	{r7, lr}
	.cfi_def_cfa_offset 8
	.cfi_offset lr, -4
	.cfi_offset r7, -8
	.pad	#16
	sub	sp, #16
	.cfi_def_cfa_offset 24
	str	r0, [sp, #8]
	str	r1, [sp, #4]
	str	r2, [sp]
.Ltmp13:
	.loc	1 72 16 prologue_end            @ ../misc_config.c:72:16
	ldr	r0, [sp, #8]
	.loc	1 72 21 is_stmt 0               @ ../misc_config.c:72:21
	ldr	r1, [sp, #4]
	.loc	1 72 27                         @ ../misc_config.c:72:27
	ldr	r2, [sp]
	.loc	1 72 9                          @ ../misc_config.c:72:9
	bl	memcmp
.Ltmp14:
	.loc	1 72 9                          @ ../misc_config.c:72:9
	cbnz	r0, .LBB4_2
	b	.LBB4_1
.LBB4_1:
.Ltmp15:
	.loc	1 73 9 is_stmt 1                @ ../misc_config.c:73:9
	ldr	r0, __arm_cp.4_1
	bl	printf
	movs	r0, #0
	.loc	1 74 9                          @ ../misc_config.c:74:9
	str	r0, [sp, #12]
	b	.LBB4_3
.Ltmp16:
.LBB4_2:
	.loc	1 77 46                         @ ../misc_config.c:77:46
	ldr	r1, [sp]
	.loc	1 77 5 is_stmt 0                @ ../misc_config.c:77:5
	ldr	r0, __arm_cp.4_0
	bl	printf
	movs	r0, #1
	.loc	1 78 5 is_stmt 1                @ ../misc_config.c:78:5
	str	r0, [sp, #12]
	b	.LBB4_3
.LBB4_3:
	.loc	1 79 1                          @ ../misc_config.c:79:1
	ldr	r0, [sp, #12]
	.loc	1 79 1 epilogue_begin is_stmt 0 @ ../misc_config.c:79:1
	add	sp, #16
	pop	{r7, pc}
.Ltmp17:
	.p2align	2
@ %bb.4:
	.loc	1 0 1                           @ ../misc_config.c:0:1
__arm_cp.4_0:
	.long	.L.str.1
.Lcpi_end0:
	.size	__arm_cp.4_0, .Lcpi_end0-__arm_cp.4_0
__arm_cp.4_1:
	.long	.L.str
.Lcpi_end1:
	.size	__arm_cp.4_1, .Lcpi_end1-__arm_cp.4_1
.Lfunc_end4:
	.size	compare_buffer, .Lfunc_end4-compare_buffer
	.cfi_endproc
	.cantunwind
	.fnend
                                        @ -- End function
	.section	.text.reset_buffer,"ax",%progbits
	.hidden	reset_buffer                    @ -- Begin function reset_buffer
	.globl	reset_buffer
	.p2align	1
	.type	reset_buffer,%function
	.code	16                              @ @reset_buffer
	.thumb_func
reset_buffer:
.Lfunc_begin5:
	.loc	1 82 0 is_stmt 1                @ ../misc_config.c:82:0
	.fnstart
	.cfi_startproc
@ %bb.0:
	.pad	#16
	sub	sp, #16
	.cfi_def_cfa_offset 16
	str	r0, [sp, #12]
	str	r1, [sp, #8]
	str	r2, [sp, #4]
.Ltmp18:
	.loc	1 86 32 prologue_end            @ ../misc_config.c:86:32
	ldr	r0, [sp, #12]
	.loc	1 86 13 is_stmt 0               @ ../misc_config.c:86:13
	str	r0, [sp]
	.loc	1 89 2 is_stmt 1                @ ../misc_config.c:89:2
	b	.LBB5_1
.LBB5_1:                                @ =>This Inner Loop Header: Depth=1
	.loc	1 89 13 is_stmt 0               @ ../misc_config.c:89:13
	ldr	r0, [sp, #4]
	subs	r1, r0, #1
	str	r1, [sp, #4]
	.loc	1 89 2                          @ ../misc_config.c:89:2
	cbz	r0, .LBB5_3
	b	.LBB5_2
.LBB5_2:                                @   in Loop: Header=BB5_1 Depth=1
	.loc	1 90 16 is_stmt 1               @ ../misc_config.c:90:16
	ldr	r0, [sp, #8]
	.loc	1 90 11 is_stmt 0               @ ../misc_config.c:90:11
	ldr	r1, [sp]
	adds	r2, r1, #1
	str	r2, [sp]
	.loc	1 90 14                         @ ../misc_config.c:90:14
	strb	r0, [r1]
	.loc	1 89 2 is_stmt 1                @ ../misc_config.c:89:2
	b	.LBB5_1
.LBB5_3:
	.loc	1 95 1 epilogue_begin           @ ../misc_config.c:95:1
	add	sp, #16
	bx	lr
.Ltmp19:
.Lfunc_end5:
	.size	reset_buffer, .Lfunc_end5-reset_buffer
	.cfi_endproc
	.cantunwind
	.fnend
                                        @ -- End function
	.section	.text.copy_buffer,"ax",%progbits
	.hidden	copy_buffer                     @ -- Begin function copy_buffer
	.globl	copy_buffer
	.p2align	1
	.type	copy_buffer,%function
	.code	16                              @ @copy_buffer
	.thumb_func
copy_buffer:
.Lfunc_begin6:
	.loc	1 98 0                          @ ../misc_config.c:98:0
	.fnstart
	.cfi_startproc
@ %bb.0:
	.pad	#24
	sub	sp, #24
	.cfi_def_cfa_offset 24
	str	r0, [sp, #20]
	str	r1, [sp, #16]
	str	r2, [sp, #12]
.Ltmp20:
	.loc	1 102 32 prologue_end           @ ../misc_config.c:102:32
	ldr	r0, [sp, #20]
	.loc	1 102 13 is_stmt 0              @ ../misc_config.c:102:13
	str	r0, [sp, #4]
	.loc	1 103 32 is_stmt 1              @ ../misc_config.c:103:32
	ldr	r0, [sp, #16]
	.loc	1 103 13 is_stmt 0              @ ../misc_config.c:103:13
	str	r0, [sp, #8]
	movs	r0, #0
.Ltmp21:
	.loc	1 110 12 is_stmt 1              @ ../misc_config.c:110:12
	str	r0, [sp]
	.loc	1 110 10 is_stmt 0              @ ../misc_config.c:110:10
	b	.LBB6_1
.LBB6_1:                                @ =>This Inner Loop Header: Depth=1
.Ltmp22:
	.loc	1 110 17                        @ ../misc_config.c:110:17
	ldr	r0, [sp]
	.loc	1 110 21                        @ ../misc_config.c:110:21
	ldr	r1, [sp, #12]
.Ltmp23:
	.loc	1 110 5                         @ ../misc_config.c:110:5
	cmp	r0, r1
	bhs	.LBB6_4
	b	.LBB6_2
.LBB6_2:                                @   in Loop: Header=BB6_1 Depth=1
.Ltmp24:
	.loc	1 111 22 is_stmt 1              @ ../misc_config.c:111:22
	ldr	r0, [sp, #8]
	.loc	1 111 29 is_stmt 0              @ ../misc_config.c:111:29
	ldr	r2, [sp]
	.loc	1 111 22                        @ ../misc_config.c:111:22
	ldrb	r0, [r0, r2]
	.loc	1 111 9                         @ ../misc_config.c:111:9
	ldr	r1, [sp, #4]
	.loc	1 111 20                        @ ../misc_config.c:111:20
	strb	r0, [r1, r2]
	.loc	1 111 9                         @ ../misc_config.c:111:9
	b	.LBB6_3
.LBB6_3:                                @   in Loop: Header=BB6_1 Depth=1
	.loc	1 110 28 is_stmt 1              @ ../misc_config.c:110:28
	ldr	r0, [sp]
	adds	r0, r0, #1
	str	r0, [sp]
	.loc	1 110 5 is_stmt 0               @ ../misc_config.c:110:5
	b	.LBB6_1
.Ltmp25:
.LBB6_4:
	.loc	1 113 1 epilogue_begin is_stmt 1 @ ../misc_config.c:113:1
	add	sp, #24
	bx	lr
.Ltmp26:
.Lfunc_end6:
	.size	copy_buffer, .Lfunc_end6-copy_buffer
	.cfi_endproc
	.cantunwind
	.fnend
                                        @ -- End function
	.section	.text.dump_buffer32,"ax",%progbits
	.hidden	dump_buffer32                   @ -- Begin function dump_buffer32
	.globl	dump_buffer32
	.p2align	2
	.type	dump_buffer32,%function
	.code	16                              @ @dump_buffer32
	.thumb_func
dump_buffer32:
.Lfunc_begin7:
	.loc	1 117 0                         @ ../misc_config.c:117:0
	.fnstart
	.cfi_startproc
@ %bb.0:
	.save	{r7, lr}
	push	{r7, lr}
	.cfi_def_cfa_offset 8
	.cfi_offset lr, -4
	.cfi_offset r7, -8
	.pad	#24
	sub	sp, #24
	.cfi_def_cfa_offset 32
	str	r0, [sp, #20]
	str	r1, [sp, #16]
	add	r1, sp, #12
	str	r1, [sp, #4]                    @ 4-byte Spill
	movs	r0, #0
.Ltmp27:
	.loc	1 118 21 prologue_end           @ ../misc_config.c:118:21
	str	r0, [sp, #8]                    @ 4-byte Spill
	strh	r0, [r1]
	.loc	1 120 42                        @ ../misc_config.c:120:42
	ldr	r1, [sp, #16]
	.loc	1 120 5 is_stmt 0               @ ../misc_config.c:120:5
	ldr	r0, __arm_cp.7_0
	bl	printf
	ldr	r1, [sp, #4]                    @ 4-byte Reload
                                        @ kill: def $r2 killed $r0
.Ltmp28:
	.loc	1 121 12 is_stmt 1              @ ../misc_config.c:121:12
	ldr	r0, [sp, #8]                    @ 4-byte Reload
	strh	r0, [r1]
	.loc	1 121 10 is_stmt 0              @ ../misc_config.c:121:10
	b	.LBB7_1
.LBB7_1:                                @ =>This Inner Loop Header: Depth=1
	.loc	1 0 10                          @ ../misc_config.c:0:10
	add	r0, sp, #12
.Ltmp29:
	.loc	1 121 18                        @ ../misc_config.c:121:18
	ldrh	r0, [r0]
	.loc	1 121 22                        @ ../misc_config.c:121:22
	ldr	r1, [sp, #16]
.Ltmp30:
	.loc	1 121 5                         @ ../misc_config.c:121:5
	cmp	r0, r1
	bge	.LBB7_6
	b	.LBB7_2
.LBB7_2:                                @   in Loop: Header=BB7_1 Depth=1
.Ltmp31:
	.loc	1 123 33 is_stmt 1              @ ../misc_config.c:123:33
	ldr	r0, [sp, #20]
	add	r1, sp, #12
	.loc	1 123 41 is_stmt 0              @ ../misc_config.c:123:41
	ldrh	r1, [r1]
	.loc	1 123 33                        @ ../misc_config.c:123:33
	lsls	r1, r1, #2
	ldr	r1, [r0, r1]
	.loc	1 123 9                         @ ../misc_config.c:123:9
	ldr	r0, __arm_cp.7_2
	bl	printf
.Ltmp32:
	.loc	1 124 14 is_stmt 1              @ ../misc_config.c:124:14
	ldr	r0, [sp, #12]
	.loc	1 124 15 is_stmt 0              @ ../misc_config.c:124:15
	adds	r0, r0, #1
.Ltmp33:
	.loc	1 124 13                        @ ../misc_config.c:124:13
	lsls	r0, r0, #30
	cbnz	r0, .LBB7_4
	b	.LBB7_3
.LBB7_3:                                @   in Loop: Header=BB7_1 Depth=1
.Ltmp34:
	.loc	1 126 13 is_stmt 1              @ ../misc_config.c:126:13
	ldr	r0, __arm_cp.7_1
	bl	printf
	.loc	1 127 9                         @ ../misc_config.c:127:9
	b	.LBB7_4
.Ltmp35:
.LBB7_4:                                @   in Loop: Header=BB7_1 Depth=1
	.loc	1 128 5                         @ ../misc_config.c:128:5
	b	.LBB7_5
.Ltmp36:
.LBB7_5:                                @   in Loop: Header=BB7_1 Depth=1
	.loc	1 121 32                        @ ../misc_config.c:121:32
	ldr	r0, [sp, #12]
	adds	r0, r0, #1
	add	r1, sp, #12
	strh	r0, [r1]
	.loc	1 121 5 is_stmt 0               @ ../misc_config.c:121:5
	b	.LBB7_1
.Ltmp37:
.LBB7_6:
	.loc	1 129 5 is_stmt 1               @ ../misc_config.c:129:5
	ldr	r0, __arm_cp.7_1
	bl	printf
	.loc	1 130 1 epilogue_begin          @ ../misc_config.c:130:1
	add	sp, #24
	pop	{r7, pc}
.Ltmp38:
	.p2align	2
@ %bb.7:
	.loc	1 0 1 is_stmt 0                 @ ../misc_config.c:0:1
__arm_cp.7_0:
	.long	.L.str.2
.Lcpi_end2:
	.size	__arm_cp.7_0, .Lcpi_end2-__arm_cp.7_0
__arm_cp.7_1:
	.long	.L.str.4
.Lcpi_end3:
	.size	__arm_cp.7_1, .Lcpi_end3-__arm_cp.7_1
__arm_cp.7_2:
	.long	.L.str.3
.Lcpi_end4:
	.size	__arm_cp.7_2, .Lcpi_end4-__arm_cp.7_2
.Lfunc_end7:
	.size	dump_buffer32, .Lfunc_end7-dump_buffer32
	.cfi_endproc
	.cantunwind
	.fnend
                                        @ -- End function
	.section	.text.dump_buffer32_hex,"ax",%progbits
	.hidden	dump_buffer32_hex               @ -- Begin function dump_buffer32_hex
	.globl	dump_buffer32_hex
	.p2align	2
	.type	dump_buffer32_hex,%function
	.code	16                              @ @dump_buffer32_hex
	.thumb_func
dump_buffer32_hex:
.Lfunc_begin8:
	.loc	1 133 0 is_stmt 1               @ ../misc_config.c:133:0
	.fnstart
	.cfi_startproc
@ %bb.0:
	.save	{r7, lr}
	push	{r7, lr}
	.cfi_def_cfa_offset 8
	.cfi_offset lr, -4
	.cfi_offset r7, -8
	.pad	#32
	sub	sp, #32
	.cfi_def_cfa_offset 40
	str	r0, [sp, #28]
	str	r1, [sp, #24]
	add	r1, sp, #20
	movs	r0, #0
.Ltmp39:
	.loc	1 134 16 prologue_end           @ ../misc_config.c:134:16
	strb	r0, [r1]
	.loc	1 135 6                         @ ../misc_config.c:135:6
	str	r0, [sp, #16]
	.loc	1 136 16                        @ ../misc_config.c:136:16
	str	r0, [sp, #12]
	.loc	1 137 6                         @ ../misc_config.c:137:6
	str	r0, [sp, #8]
	.loc	1 138 9                         @ ../misc_config.c:138:9
	str	r0, [sp, #4]
	.loc	1 139 5                         @ ../misc_config.c:139:5
	b	.LBB8_1
.LBB8_1:                                @ =>This Loop Header: Depth=1
                                        @     Child Loop BB8_3 Depth 2
                                        @     Child Loop BB8_7 Depth 2
                                        @       Child Loop BB8_9 Depth 3
	.loc	1 139 12 is_stmt 0              @ ../misc_config.c:139:12
	ldr	r0, [sp, #24]
	.loc	1 139 5                         @ ../misc_config.c:139:5
	cmp	r0, #1
	blt	.LBB8_19
	b	.LBB8_2
.LBB8_2:                                @   in Loop: Header=BB8_1 Depth=1
.Ltmp40:
	.loc	1 140 32 is_stmt 1              @ ../misc_config.c:140:32
	ldr	r0, [sp, #4]
	.loc	1 140 35 is_stmt 0              @ ../misc_config.c:140:35
	lsls	r1, r0, #2
	.loc	1 140 9                         @ ../misc_config.c:140:9
	ldr	r0, __arm_cp.8_0
	bl	printf
	movs	r0, #0
.Ltmp41:
	.loc	1 141 15 is_stmt 1              @ ../misc_config.c:141:15
	str	r0, [sp, #8]
	.loc	1 141 14 is_stmt 0              @ ../misc_config.c:141:14
	b	.LBB8_3
.LBB8_3:                                @   Parent Loop BB8_1 Depth=1
                                        @ =>  This Inner Loop Header: Depth=2
.Ltmp42:
	.loc	1 141 18                        @ ../misc_config.c:141:18
	ldr	r0, [sp, #8]
.Ltmp43:
	.loc	1 141 9                         @ ../misc_config.c:141:9
	cmp	r0, #3
	bgt	.LBB8_6
	b	.LBB8_4
.LBB8_4:                                @   in Loop: Header=BB8_3 Depth=2
.Ltmp44:
	.loc	1 141 48                        @ ../misc_config.c:141:48
	ldr	r0, [sp, #28]
	.loc	1 141 50                        @ ../misc_config.c:141:50
	ldr	r1, [sp, #4]
	.loc	1 141 54                        @ ../misc_config.c:141:54
	ldr	r2, [sp, #8]
	.loc	1 141 53                        @ ../misc_config.c:141:53
	adds	r1, r1, r2
	.loc	1 141 48                        @ ../misc_config.c:141:48
	lsls	r1, r1, #2
	ldr	r1, [r0, r1]
	.loc	1 141 27                        @ ../misc_config.c:141:27
	ldr	r0, __arm_cp.8_4
	bl	printf
	b	.LBB8_5
.LBB8_5:                                @   in Loop: Header=BB8_3 Depth=2
	.loc	1 141 23                        @ ../misc_config.c:141:23
	ldr	r0, [sp, #8]
	adds	r0, r0, #1
	str	r0, [sp, #8]
	.loc	1 141 9                         @ ../misc_config.c:141:9
	b	.LBB8_3
.Ltmp45:
.LBB8_6:                                @   in Loop: Header=BB8_1 Depth=1
	.loc	1 142 9 is_stmt 1               @ ../misc_config.c:142:9
	ldr	r0, __arm_cp.8_1
	bl	printf
	movs	r0, #0
.Ltmp46:
	.loc	1 143 15                        @ ../misc_config.c:143:15
	str	r0, [sp, #8]
	.loc	1 143 14 is_stmt 0              @ ../misc_config.c:143:14
	b	.LBB8_7
.LBB8_7:                                @   Parent Loop BB8_1 Depth=1
                                        @ =>  This Loop Header: Depth=2
                                        @       Child Loop BB8_9 Depth 3
.Ltmp47:
	.loc	1 143 18                        @ ../misc_config.c:143:18
	ldr	r0, [sp, #8]
.Ltmp48:
	.loc	1 143 9                         @ ../misc_config.c:143:9
	cmp	r0, #3
	bgt	.LBB8_18
	b	.LBB8_8
.LBB8_8:                                @   in Loop: Header=BB8_7 Depth=2
.Ltmp49:
	.loc	1 144 17 is_stmt 1              @ ../misc_config.c:144:17
	ldr	r0, [sp, #28]
	.loc	1 144 19 is_stmt 0              @ ../misc_config.c:144:19
	ldr	r1, [sp, #4]
	.loc	1 144 23                        @ ../misc_config.c:144:23
	ldr	r2, [sp, #8]
	.loc	1 144 22                        @ ../misc_config.c:144:22
	adds	r1, r1, r2
	.loc	1 144 17                        @ ../misc_config.c:144:17
	lsls	r1, r1, #2
	ldr	r0, [r0, r1]
	.loc	1 144 15                        @ ../misc_config.c:144:15
	str	r0, [sp, #12]
	movs	r0, #0
.Ltmp50:
	.loc	1 145 19 is_stmt 1              @ ../misc_config.c:145:19
	str	r0, [sp, #16]
	.loc	1 145 18 is_stmt 0              @ ../misc_config.c:145:18
	b	.LBB8_9
.LBB8_9:                                @   Parent Loop BB8_1 Depth=1
                                        @     Parent Loop BB8_7 Depth=2
                                        @ =>    This Inner Loop Header: Depth=3
.Ltmp51:
	.loc	1 145 22                        @ ../misc_config.c:145:22
	ldr	r0, [sp, #16]
.Ltmp52:
	.loc	1 145 13                        @ ../misc_config.c:145:13
	cmp	r0, #3
	bgt	.LBB8_16
	b	.LBB8_10
.LBB8_10:                               @   in Loop: Header=BB8_9 Depth=3
.Ltmp53:
	.loc	1 146 23 is_stmt 1              @ ../misc_config.c:146:23
	ldr	r1, [sp, #12]
	.loc	1 146 34 is_stmt 0              @ ../misc_config.c:146:34
	ldr	r2, [sp, #16]
	movs	r0, #3
	.loc	1 146 33                        @ ../misc_config.c:146:33
	subs	r0, r0, r2
	.loc	1 146 30                        @ ../misc_config.c:146:30
	lsls	r0, r0, #3
	.loc	1 146 25                        @ ../misc_config.c:146:25
	lsrs	r1, r0
	add	r0, sp, #20
	.loc	1 146 20                        @ ../misc_config.c:146:20
	strb	r1, [r0]
	.loc	1 147 35 is_stmt 1              @ ../misc_config.c:147:35
	ldrb	r0, [r0]
	.loc	1 147 44 is_stmt 0              @ ../misc_config.c:147:44
	cmp	r0, #32
	blt	.LBB8_13
	b	.LBB8_11
.LBB8_11:                               @   in Loop: Header=BB8_9 Depth=3
	.loc	1 0 44                          @ ../misc_config.c:0:44
	add	r0, sp, #20
	.loc	1 147 47                        @ ../misc_config.c:147:47
	ldrb	r0, [r0]
	.loc	1 147 34                        @ ../misc_config.c:147:34
	cmp	r0, #126
	bgt	.LBB8_13
	b	.LBB8_12
.LBB8_12:                               @   in Loop: Header=BB8_9 Depth=3
	.loc	1 0 34                          @ ../misc_config.c:0:34
	add	r0, sp, #20
	.loc	1 147 58                        @ ../misc_config.c:147:58
	ldrb	r0, [r0]
	.loc	1 147 34                        @ ../misc_config.c:147:34
	str	r0, [sp]                        @ 4-byte Spill
	b	.LBB8_14
.LBB8_13:                               @   in Loop: Header=BB8_9 Depth=3
	.loc	1 0 34                          @ ../misc_config.c:0:34
	movs	r0, #46
	.loc	1 147 34                        @ ../misc_config.c:147:34
	str	r0, [sp]                        @ 4-byte Spill
	b	.LBB8_14
.LBB8_14:                               @   in Loop: Header=BB8_9 Depth=3
	ldr	r1, [sp]                        @ 4-byte Reload
	.loc	1 147 17                        @ ../misc_config.c:147:17
	ldr	r0, __arm_cp.8_3
	bl	printf
	.loc	1 148 13 is_stmt 1              @ ../misc_config.c:148:13
	b	.LBB8_15
.Ltmp54:
.LBB8_15:                               @   in Loop: Header=BB8_9 Depth=3
	.loc	1 145 27                        @ ../misc_config.c:145:27
	ldr	r0, [sp, #16]
	adds	r0, r0, #1
	str	r0, [sp, #16]
	.loc	1 145 13 is_stmt 0              @ ../misc_config.c:145:13
	b	.LBB8_9
.Ltmp55:
.LBB8_16:                               @   in Loop: Header=BB8_7 Depth=2
	.loc	1 149 9 is_stmt 1               @ ../misc_config.c:149:9
	b	.LBB8_17
.Ltmp56:
.LBB8_17:                               @   in Loop: Header=BB8_7 Depth=2
	.loc	1 143 23                        @ ../misc_config.c:143:23
	ldr	r0, [sp, #8]
	adds	r0, r0, #1
	str	r0, [sp, #8]
	.loc	1 143 9 is_stmt 0               @ ../misc_config.c:143:9
	b	.LBB8_7
.Ltmp57:
.LBB8_18:                               @   in Loop: Header=BB8_1 Depth=1
	.loc	1 150 9 is_stmt 1               @ ../misc_config.c:150:9
	ldr	r0, __arm_cp.8_2
	bl	printf
	.loc	1 151 13                        @ ../misc_config.c:151:13
	ldr	r0, [sp, #4]
	adds	r0, r0, #4
	str	r0, [sp, #4]
	.loc	1 151 26 is_stmt 0              @ ../misc_config.c:151:26
	ldr	r0, [sp, #24]
	subs	r0, r0, #4
	str	r0, [sp, #24]
.Ltmp58:
	.loc	1 139 5 is_stmt 1               @ ../misc_config.c:139:5
	b	.LBB8_1
.LBB8_19:
	.loc	1 153 1 epilogue_begin          @ ../misc_config.c:153:1
	add	sp, #32
	pop	{r7, pc}
.Ltmp59:
	.p2align	2
@ %bb.20:
	.loc	1 0 1 is_stmt 0                 @ ../misc_config.c:0:1
__arm_cp.8_0:
	.long	.L.str.5
.Lcpi_end5:
	.size	__arm_cp.8_0, .Lcpi_end5-__arm_cp.8_0
__arm_cp.8_1:
	.long	.L.str.7
.Lcpi_end6:
	.size	__arm_cp.8_1, .Lcpi_end6-__arm_cp.8_1
__arm_cp.8_2:
	.long	.L.str.9
.Lcpi_end7:
	.size	__arm_cp.8_2, .Lcpi_end7-__arm_cp.8_2
__arm_cp.8_3:
	.long	.L.str.8
.Lcpi_end8:
	.size	__arm_cp.8_3, .Lcpi_end8-__arm_cp.8_3
__arm_cp.8_4:
	.long	.L.str.6
.Lcpi_end9:
	.size	__arm_cp.8_4, .Lcpi_end9-__arm_cp.8_4
.Lfunc_end8:
	.size	dump_buffer32_hex, .Lfunc_end8-dump_buffer32_hex
	.cfi_endproc
	.cantunwind
	.fnend
                                        @ -- End function
	.section	.text.dump_buffer16,"ax",%progbits
	.hidden	dump_buffer16                   @ -- Begin function dump_buffer16
	.globl	dump_buffer16
	.p2align	2
	.type	dump_buffer16,%function
	.code	16                              @ @dump_buffer16
	.thumb_func
dump_buffer16:
.Lfunc_begin9:
	.loc	1 156 0 is_stmt 1               @ ../misc_config.c:156:0
	.fnstart
	.cfi_startproc
@ %bb.0:
	.save	{r7, lr}
	push	{r7, lr}
	.cfi_def_cfa_offset 8
	.cfi_offset lr, -4
	.cfi_offset r7, -8
	.pad	#24
	sub	sp, #24
	.cfi_def_cfa_offset 32
	str	r0, [sp, #20]
	str	r1, [sp, #16]
	add	r1, sp, #12
	str	r1, [sp, #4]                    @ 4-byte Spill
	movs	r0, #0
.Ltmp60:
	.loc	1 157 21 prologue_end           @ ../misc_config.c:157:21
	str	r0, [sp, #8]                    @ 4-byte Spill
	strh	r0, [r1]
	.loc	1 159 42                        @ ../misc_config.c:159:42
	ldr	r1, [sp, #16]
	.loc	1 159 5 is_stmt 0               @ ../misc_config.c:159:5
	ldr	r0, __arm_cp.9_0
	bl	printf
	ldr	r1, [sp, #4]                    @ 4-byte Reload
                                        @ kill: def $r2 killed $r0
.Ltmp61:
	.loc	1 160 12 is_stmt 1              @ ../misc_config.c:160:12
	ldr	r0, [sp, #8]                    @ 4-byte Reload
	strh	r0, [r1]
	.loc	1 160 10 is_stmt 0              @ ../misc_config.c:160:10
	b	.LBB9_1
.LBB9_1:                                @ =>This Inner Loop Header: Depth=1
	.loc	1 0 10                          @ ../misc_config.c:0:10
	add	r0, sp, #12
.Ltmp62:
	.loc	1 160 18                        @ ../misc_config.c:160:18
	ldrh	r0, [r0]
	.loc	1 160 22                        @ ../misc_config.c:160:22
	ldr	r1, [sp, #16]
.Ltmp63:
	.loc	1 160 5                         @ ../misc_config.c:160:5
	cmp	r0, r1
	bge	.LBB9_6
	b	.LBB9_2
.LBB9_2:                                @   in Loop: Header=BB9_1 Depth=1
.Ltmp64:
	.loc	1 162 32 is_stmt 1              @ ../misc_config.c:162:32
	ldr	r0, [sp, #20]
	add	r1, sp, #12
	.loc	1 162 40 is_stmt 0              @ ../misc_config.c:162:40
	ldrh	r1, [r1]
	.loc	1 162 32                        @ ../misc_config.c:162:32
	lsls	r1, r1, #1
	ldrh	r1, [r0, r1]
	.loc	1 162 9                         @ ../misc_config.c:162:9
	ldr	r0, __arm_cp.9_2
	bl	printf
.Ltmp65:
	.loc	1 163 14 is_stmt 1              @ ../misc_config.c:163:14
	ldr	r0, [sp, #12]
	.loc	1 163 15 is_stmt 0              @ ../misc_config.c:163:15
	adds	r0, r0, #1
.Ltmp66:
	.loc	1 163 13                        @ ../misc_config.c:163:13
	lsls	r0, r0, #29
	cbnz	r0, .LBB9_4
	b	.LBB9_3
.LBB9_3:                                @   in Loop: Header=BB9_1 Depth=1
.Ltmp67:
	.loc	1 165 13 is_stmt 1              @ ../misc_config.c:165:13
	ldr	r0, __arm_cp.9_3
	bl	printf
	.loc	1 166 9                         @ ../misc_config.c:166:9
	b	.LBB9_4
.Ltmp68:
.LBB9_4:                                @   in Loop: Header=BB9_1 Depth=1
	.loc	1 167 5                         @ ../misc_config.c:167:5
	b	.LBB9_5
.Ltmp69:
.LBB9_5:                                @   in Loop: Header=BB9_1 Depth=1
	.loc	1 160 32                        @ ../misc_config.c:160:32
	ldr	r0, [sp, #12]
	adds	r0, r0, #1
	add	r1, sp, #12
	strh	r0, [r1]
	.loc	1 160 5 is_stmt 0               @ ../misc_config.c:160:5
	b	.LBB9_1
.Ltmp70:
.LBB9_6:
	.loc	1 168 5 is_stmt 1               @ ../misc_config.c:168:5
	ldr	r0, __arm_cp.9_1
	bl	printf
	.loc	1 169 1 epilogue_begin          @ ../misc_config.c:169:1
	add	sp, #24
	pop	{r7, pc}
.Ltmp71:
	.p2align	2
@ %bb.7:
	.loc	1 0 1 is_stmt 0                 @ ../misc_config.c:0:1
__arm_cp.9_0:
	.long	.L.str.2
.Lcpi_end10:
	.size	__arm_cp.9_0, .Lcpi_end10-__arm_cp.9_0
__arm_cp.9_1:
	.long	.L.str.11
.Lcpi_end11:
	.size	__arm_cp.9_1, .Lcpi_end11-__arm_cp.9_1
__arm_cp.9_2:
	.long	.L.str.10
.Lcpi_end12:
	.size	__arm_cp.9_2, .Lcpi_end12-__arm_cp.9_2
__arm_cp.9_3:
	.long	.L.str.4
.Lcpi_end13:
	.size	__arm_cp.9_3, .Lcpi_end13-__arm_cp.9_3
.Lfunc_end9:
	.size	dump_buffer16, .Lfunc_end9-dump_buffer16
	.cfi_endproc
	.cantunwind
	.fnend
                                        @ -- End function
	.section	.text.dump_buffer16_hex,"ax",%progbits
	.hidden	dump_buffer16_hex               @ -- Begin function dump_buffer16_hex
	.globl	dump_buffer16_hex
	.p2align	2
	.type	dump_buffer16_hex,%function
	.code	16                              @ @dump_buffer16_hex
	.thumb_func
dump_buffer16_hex:
.Lfunc_begin10:
	.loc	1 172 0 is_stmt 1               @ ../misc_config.c:172:0
	.fnstart
	.cfi_startproc
@ %bb.0:
	.save	{r7, lr}
	push	{r7, lr}
	.cfi_def_cfa_offset 8
	.cfi_offset lr, -4
	.cfi_offset r7, -8
	.pad	#16
	sub	sp, #16
	.cfi_def_cfa_offset 24
	str	r0, [sp, #12]
	str	r1, [sp, #8]
	movs	r0, #0
.Ltmp72:
	.loc	1 175 10 prologue_end           @ ../misc_config.c:175:10
	str	r0, [sp, #4]
	.loc	1 176 5                         @ ../misc_config.c:176:5
	b	.LBB10_1
.LBB10_1:                               @ =>This Loop Header: Depth=1
                                        @     Child Loop BB10_3 Depth 2
                                        @     Child Loop BB10_7 Depth 2
	.loc	1 176 12 is_stmt 0              @ ../misc_config.c:176:12
	ldr	r0, [sp, #8]
	.loc	1 176 5                         @ ../misc_config.c:176:5
	cmp	r0, #1
	blt	.LBB10_15
	b	.LBB10_2
.LBB10_2:                               @   in Loop: Header=BB10_1 Depth=1
.Ltmp73:
	.loc	1 178 32 is_stmt 1              @ ../misc_config.c:178:32
	ldr	r1, [sp, #4]
	.loc	1 178 9 is_stmt 0               @ ../misc_config.c:178:9
	ldr	r0, __arm_cp.10_1
	bl	printf
	movs	r0, #0
.Ltmp74:
	.loc	1 179 16 is_stmt 1              @ ../misc_config.c:179:16
	str	r0, [sp]
	.loc	1 179 14 is_stmt 0              @ ../misc_config.c:179:14
	b	.LBB10_3
.LBB10_3:                               @   Parent Loop BB10_1 Depth=1
                                        @ =>  This Inner Loop Header: Depth=2
.Ltmp75:
	.loc	1 179 21                        @ ../misc_config.c:179:21
	ldr	r0, [sp]
.Ltmp76:
	.loc	1 179 9                         @ ../misc_config.c:179:9
	cmp	r0, #15
	bgt	.LBB10_6
	b	.LBB10_4
.LBB10_4:                               @   in Loop: Header=BB10_3 Depth=2
.Ltmp77:
	.loc	1 180 33 is_stmt 1              @ ../misc_config.c:180:33
	ldr	r0, [sp, #12]
	.loc	1 180 41 is_stmt 0              @ ../misc_config.c:180:41
	ldr	r1, [sp, #4]
	.loc	1 180 48                        @ ../misc_config.c:180:48
	ldr	r2, [sp]
	.loc	1 180 46                        @ ../misc_config.c:180:46
	adds	r1, r1, r2
	.loc	1 180 33                        @ ../misc_config.c:180:33
	lsls	r1, r1, #1
	ldrh	r1, [r0, r1]
	.loc	1 180 13                        @ ../misc_config.c:180:13
	ldr	r0, __arm_cp.10_5
	bl	printf
	b	.LBB10_5
.LBB10_5:                               @   in Loop: Header=BB10_3 Depth=2
	.loc	1 179 30 is_stmt 1              @ ../misc_config.c:179:30
	ldr	r0, [sp]
	adds	r0, r0, #1
	str	r0, [sp]
	.loc	1 179 9 is_stmt 0               @ ../misc_config.c:179:9
	b	.LBB10_3
.Ltmp78:
.LBB10_6:                               @   in Loop: Header=BB10_1 Depth=1
	.loc	1 181 9 is_stmt 1               @ ../misc_config.c:181:9
	ldr	r0, __arm_cp.10_2
	bl	printf
	movs	r0, #0
.Ltmp79:
	.loc	1 182 16                        @ ../misc_config.c:182:16
	str	r0, [sp]
	.loc	1 182 14 is_stmt 0              @ ../misc_config.c:182:14
	b	.LBB10_7
.LBB10_7:                               @   Parent Loop BB10_1 Depth=1
                                        @ =>  This Inner Loop Header: Depth=2
.Ltmp80:
	.loc	1 182 21                        @ ../misc_config.c:182:21
	ldr	r0, [sp]
.Ltmp81:
	.loc	1 182 9                         @ ../misc_config.c:182:9
	cmp	r0, #15
	bgt	.LBB10_14
	b	.LBB10_8
.LBB10_8:                               @   in Loop: Header=BB10_7 Depth=2
.Ltmp82:
	.loc	1 184 18 is_stmt 1              @ ../misc_config.c:184:18
	ldr	r0, [sp, #12]
	.loc	1 184 26 is_stmt 0              @ ../misc_config.c:184:26
	ldr	r1, [sp, #4]
	.loc	1 184 33                        @ ../misc_config.c:184:33
	ldr	r2, [sp]
	.loc	1 184 31                        @ ../misc_config.c:184:31
	adds	r1, r1, r2
	.loc	1 184 18                        @ ../misc_config.c:184:18
	lsls	r1, r1, #1
	ldrh	r0, [r0, r1]
	.loc	1 184 45                        @ ../misc_config.c:184:45
	cmp	r0, #32
	blt	.LBB10_11
	b	.LBB10_9
.LBB10_9:                               @   in Loop: Header=BB10_7 Depth=2
	.loc	1 184 49                        @ ../misc_config.c:184:49
	ldr	r0, [sp, #12]
	.loc	1 184 57                        @ ../misc_config.c:184:57
	ldr	r1, [sp, #4]
	.loc	1 184 64                        @ ../misc_config.c:184:64
	ldr	r2, [sp]
	.loc	1 184 62                        @ ../misc_config.c:184:62
	adds	r1, r1, r2
	.loc	1 184 49                        @ ../misc_config.c:184:49
	lsls	r1, r1, #1
	ldrh	r0, [r0, r1]
.Ltmp83:
	.loc	1 184 17                        @ ../misc_config.c:184:17
	cmp	r0, #126
	bgt	.LBB10_11
	b	.LBB10_10
.LBB10_10:                              @   in Loop: Header=BB10_7 Depth=2
.Ltmp84:
	.loc	1 185 34 is_stmt 1              @ ../misc_config.c:185:34
	ldr	r0, [sp, #12]
	.loc	1 185 42 is_stmt 0              @ ../misc_config.c:185:42
	ldr	r1, [sp, #4]
	.loc	1 185 49                        @ ../misc_config.c:185:49
	ldr	r2, [sp]
	.loc	1 185 47                        @ ../misc_config.c:185:47
	adds	r1, r1, r2
	.loc	1 185 34                        @ ../misc_config.c:185:34
	lsls	r1, r1, #1
	ldrh	r1, [r0, r1]
	.loc	1 185 17                        @ ../misc_config.c:185:17
	ldr	r0, __arm_cp.10_4
	bl	printf
	b	.LBB10_12
.LBB10_11:                              @   in Loop: Header=BB10_7 Depth=2
	.loc	1 187 17 is_stmt 1              @ ../misc_config.c:187:17
	ldr	r0, __arm_cp.10_3
	bl	printf
	b	.LBB10_12
.Ltmp85:
.LBB10_12:                              @   in Loop: Header=BB10_7 Depth=2
	.loc	1 188 19                        @ ../misc_config.c:188:19
	ldr	r0, [sp, #8]
	subs	r0, r0, #1
	str	r0, [sp, #8]
	.loc	1 189 9                         @ ../misc_config.c:189:9
	b	.LBB10_13
.Ltmp86:
.LBB10_13:                              @   in Loop: Header=BB10_7 Depth=2
	.loc	1 182 30                        @ ../misc_config.c:182:30
	ldr	r0, [sp]
	adds	r0, r0, #1
	str	r0, [sp]
	.loc	1 182 9 is_stmt 0               @ ../misc_config.c:182:9
	b	.LBB10_7
.Ltmp87:
.LBB10_14:                              @   in Loop: Header=BB10_1 Depth=1
	.loc	1 190 14 is_stmt 1              @ ../misc_config.c:190:14
	ldr	r0, [sp, #4]
	adds	r0, #16
	str	r0, [sp, #4]
	.loc	1 191 9                         @ ../misc_config.c:191:9
	ldr	r0, __arm_cp.10_0
	bl	printf
.Ltmp88:
	.loc	1 176 5                         @ ../misc_config.c:176:5
	b	.LBB10_1
.LBB10_15:
	.loc	1 193 5                         @ ../misc_config.c:193:5
	ldr	r0, __arm_cp.10_0
	bl	printf
	.loc	1 194 1 epilogue_begin          @ ../misc_config.c:194:1
	add	sp, #16
	pop	{r7, pc}
.Ltmp89:
	.p2align	2
@ %bb.16:
	.loc	1 0 1 is_stmt 0                 @ ../misc_config.c:0:1
__arm_cp.10_0:
	.long	.L.str.9
.Lcpi_end14:
	.size	__arm_cp.10_0, .Lcpi_end14-__arm_cp.10_0
__arm_cp.10_1:
	.long	.L.str.5
.Lcpi_end15:
	.size	__arm_cp.10_1, .Lcpi_end15-__arm_cp.10_1
__arm_cp.10_2:
	.long	.L.str.7
.Lcpi_end16:
	.size	__arm_cp.10_2, .Lcpi_end16-__arm_cp.10_2
__arm_cp.10_3:
	.long	.L.str.13
.Lcpi_end17:
	.size	__arm_cp.10_3, .Lcpi_end17-__arm_cp.10_3
__arm_cp.10_4:
	.long	.L.str.8
.Lcpi_end18:
	.size	__arm_cp.10_4, .Lcpi_end18-__arm_cp.10_4
__arm_cp.10_5:
	.long	.L.str.12
.Lcpi_end19:
	.size	__arm_cp.10_5, .Lcpi_end19-__arm_cp.10_5
.Lfunc_end10:
	.size	dump_buffer16_hex, .Lfunc_end10-dump_buffer16_hex
	.cfi_endproc
	.cantunwind
	.fnend
                                        @ -- End function
	.section	.text.dump_buffer8,"ax",%progbits
	.hidden	dump_buffer8                    @ -- Begin function dump_buffer8
	.globl	dump_buffer8
	.p2align	2
	.type	dump_buffer8,%function
	.code	16                              @ @dump_buffer8
	.thumb_func
dump_buffer8:
.Lfunc_begin11:
	.loc	1 197 0 is_stmt 1               @ ../misc_config.c:197:0
	.fnstart
	.cfi_startproc
@ %bb.0:
	.save	{r7, lr}
	push	{r7, lr}
	.cfi_def_cfa_offset 8
	.cfi_offset lr, -4
	.cfi_offset r7, -8
	.pad	#24
	sub	sp, #24
	.cfi_def_cfa_offset 32
	str	r0, [sp, #20]
	str	r1, [sp, #16]
	add	r1, sp, #12
	str	r1, [sp, #4]                    @ 4-byte Spill
	movs	r0, #0
.Ltmp90:
	.loc	1 198 21 prologue_end           @ ../misc_config.c:198:21
	str	r0, [sp, #8]                    @ 4-byte Spill
	strh	r0, [r1]
	.loc	1 200 42                        @ ../misc_config.c:200:42
	ldr	r1, [sp, #16]
	.loc	1 200 5 is_stmt 0               @ ../misc_config.c:200:5
	ldr	r0, __arm_cp.11_0
	bl	printf
	ldr	r1, [sp, #4]                    @ 4-byte Reload
                                        @ kill: def $r2 killed $r0
.Ltmp91:
	.loc	1 201 12 is_stmt 1              @ ../misc_config.c:201:12
	ldr	r0, [sp, #8]                    @ 4-byte Reload
	strh	r0, [r1]
	.loc	1 201 10 is_stmt 0              @ ../misc_config.c:201:10
	b	.LBB11_1
.LBB11_1:                               @ =>This Inner Loop Header: Depth=1
	.loc	1 0 10                          @ ../misc_config.c:0:10
	add	r0, sp, #12
.Ltmp92:
	.loc	1 201 18                        @ ../misc_config.c:201:18
	ldrh	r0, [r0]
	.loc	1 201 22                        @ ../misc_config.c:201:22
	ldr	r1, [sp, #16]
.Ltmp93:
	.loc	1 201 5                         @ ../misc_config.c:201:5
	cmp	r0, r1
	bge	.LBB11_6
	b	.LBB11_2
.LBB11_2:                               @   in Loop: Header=BB11_1 Depth=1
.Ltmp94:
	.loc	1 203 32 is_stmt 1              @ ../misc_config.c:203:32
	ldr	r0, [sp, #20]
	add	r1, sp, #12
	.loc	1 203 40 is_stmt 0              @ ../misc_config.c:203:40
	ldrh	r1, [r1]
	.loc	1 203 32                        @ ../misc_config.c:203:32
	ldrb	r1, [r0, r1]
	.loc	1 203 9                         @ ../misc_config.c:203:9
	ldr	r0, __arm_cp.11_2
	bl	printf
.Ltmp95:
	.loc	1 204 14 is_stmt 1              @ ../misc_config.c:204:14
	ldr	r0, [sp, #12]
	.loc	1 204 15 is_stmt 0              @ ../misc_config.c:204:15
	adds	r0, r0, #1
.Ltmp96:
	.loc	1 204 13                        @ ../misc_config.c:204:13
	lsls	r0, r0, #29
	cbnz	r0, .LBB11_4
	b	.LBB11_3
.LBB11_3:                               @   in Loop: Header=BB11_1 Depth=1
.Ltmp97:
	.loc	1 206 13 is_stmt 1              @ ../misc_config.c:206:13
	ldr	r0, __arm_cp.11_3
	bl	printf
	.loc	1 207 9                         @ ../misc_config.c:207:9
	b	.LBB11_4
.Ltmp98:
.LBB11_4:                               @   in Loop: Header=BB11_1 Depth=1
	.loc	1 208 5                         @ ../misc_config.c:208:5
	b	.LBB11_5
.Ltmp99:
.LBB11_5:                               @   in Loop: Header=BB11_1 Depth=1
	.loc	1 201 32                        @ ../misc_config.c:201:32
	ldr	r0, [sp, #12]
	adds	r0, r0, #1
	add	r1, sp, #12
	strh	r0, [r1]
	.loc	1 201 5 is_stmt 0               @ ../misc_config.c:201:5
	b	.LBB11_1
.Ltmp100:
.LBB11_6:
	.loc	1 209 5 is_stmt 1               @ ../misc_config.c:209:5
	ldr	r0, __arm_cp.11_1
	bl	printf
	.loc	1 210 1 epilogue_begin          @ ../misc_config.c:210:1
	add	sp, #24
	pop	{r7, pc}
.Ltmp101:
	.p2align	2
@ %bb.7:
	.loc	1 0 1 is_stmt 0                 @ ../misc_config.c:0:1
__arm_cp.11_0:
	.long	.L.str.2
.Lcpi_end20:
	.size	__arm_cp.11_0, .Lcpi_end20-__arm_cp.11_0
__arm_cp.11_1:
	.long	.L.str.11
.Lcpi_end21:
	.size	__arm_cp.11_1, .Lcpi_end21-__arm_cp.11_1
__arm_cp.11_2:
	.long	.L.str.10
.Lcpi_end22:
	.size	__arm_cp.11_2, .Lcpi_end22-__arm_cp.11_2
__arm_cp.11_3:
	.long	.L.str.4
.Lcpi_end23:
	.size	__arm_cp.11_3, .Lcpi_end23-__arm_cp.11_3
.Lfunc_end11:
	.size	dump_buffer8, .Lfunc_end11-dump_buffer8
	.cfi_endproc
	.cantunwind
	.fnend
                                        @ -- End function
	.section	.text.dump_buffer8_hex,"ax",%progbits
	.hidden	dump_buffer8_hex                @ -- Begin function dump_buffer8_hex
	.globl	dump_buffer8_hex
	.p2align	2
	.type	dump_buffer8_hex,%function
	.code	16                              @ @dump_buffer8_hex
	.thumb_func
dump_buffer8_hex:
.Lfunc_begin12:
	.loc	1 213 0 is_stmt 1               @ ../misc_config.c:213:0
	.fnstart
	.cfi_startproc
@ %bb.0:
	.save	{r7, lr}
	push	{r7, lr}
	.cfi_def_cfa_offset 8
	.cfi_offset lr, -4
	.cfi_offset r7, -8
	.pad	#16
	sub	sp, #16
	.cfi_def_cfa_offset 24
	str	r0, [sp, #12]
	str	r1, [sp, #8]
	movs	r0, #0
.Ltmp102:
	.loc	1 216 10 prologue_end           @ ../misc_config.c:216:10
	str	r0, [sp, #4]
	.loc	1 217 5                         @ ../misc_config.c:217:5
	b	.LBB12_1
.LBB12_1:                               @ =>This Loop Header: Depth=1
                                        @     Child Loop BB12_3 Depth 2
                                        @     Child Loop BB12_7 Depth 2
	.loc	1 217 12 is_stmt 0              @ ../misc_config.c:217:12
	ldr	r0, [sp, #8]
	.loc	1 217 5                         @ ../misc_config.c:217:5
	cmp	r0, #1
	blt	.LBB12_15
	b	.LBB12_2
.LBB12_2:                               @   in Loop: Header=BB12_1 Depth=1
.Ltmp103:
	.loc	1 219 32 is_stmt 1              @ ../misc_config.c:219:32
	ldr	r1, [sp, #4]
	.loc	1 219 9 is_stmt 0               @ ../misc_config.c:219:9
	ldr	r0, __arm_cp.12_1
	bl	printf
	movs	r0, #0
.Ltmp104:
	.loc	1 220 16 is_stmt 1              @ ../misc_config.c:220:16
	str	r0, [sp]
	.loc	1 220 14 is_stmt 0              @ ../misc_config.c:220:14
	b	.LBB12_3
.LBB12_3:                               @   Parent Loop BB12_1 Depth=1
                                        @ =>  This Inner Loop Header: Depth=2
.Ltmp105:
	.loc	1 220 21                        @ ../misc_config.c:220:21
	ldr	r0, [sp]
.Ltmp106:
	.loc	1 220 9                         @ ../misc_config.c:220:9
	cmp	r0, #15
	bgt	.LBB12_6
	b	.LBB12_4
.LBB12_4:                               @   in Loop: Header=BB12_3 Depth=2
.Ltmp107:
	.loc	1 221 33 is_stmt 1              @ ../misc_config.c:221:33
	ldr	r0, [sp, #12]
	.loc	1 221 41 is_stmt 0              @ ../misc_config.c:221:41
	ldr	r1, [sp, #4]
	.loc	1 221 48                        @ ../misc_config.c:221:48
	ldr	r2, [sp]
	.loc	1 221 46                        @ ../misc_config.c:221:46
	adds	r1, r1, r2
	.loc	1 221 33                        @ ../misc_config.c:221:33
	ldrb	r1, [r0, r1]
	.loc	1 221 13                        @ ../misc_config.c:221:13
	ldr	r0, __arm_cp.12_5
	bl	printf
	b	.LBB12_5
.LBB12_5:                               @   in Loop: Header=BB12_3 Depth=2
	.loc	1 220 30 is_stmt 1              @ ../misc_config.c:220:30
	ldr	r0, [sp]
	adds	r0, r0, #1
	str	r0, [sp]
	.loc	1 220 9 is_stmt 0               @ ../misc_config.c:220:9
	b	.LBB12_3
.Ltmp108:
.LBB12_6:                               @   in Loop: Header=BB12_1 Depth=1
	.loc	1 222 9 is_stmt 1               @ ../misc_config.c:222:9
	ldr	r0, __arm_cp.12_2
	bl	printf
	movs	r0, #0
.Ltmp109:
	.loc	1 223 16                        @ ../misc_config.c:223:16
	str	r0, [sp]
	.loc	1 223 14 is_stmt 0              @ ../misc_config.c:223:14
	b	.LBB12_7
.LBB12_7:                               @   Parent Loop BB12_1 Depth=1
                                        @ =>  This Inner Loop Header: Depth=2
.Ltmp110:
	.loc	1 223 21                        @ ../misc_config.c:223:21
	ldr	r0, [sp]
.Ltmp111:
	.loc	1 223 9                         @ ../misc_config.c:223:9
	cmp	r0, #15
	bgt	.LBB12_14
	b	.LBB12_8
.LBB12_8:                               @   in Loop: Header=BB12_7 Depth=2
.Ltmp112:
	.loc	1 225 18 is_stmt 1              @ ../misc_config.c:225:18
	ldr	r0, [sp, #12]
	.loc	1 225 26 is_stmt 0              @ ../misc_config.c:225:26
	ldr	r1, [sp, #4]
	.loc	1 225 33                        @ ../misc_config.c:225:33
	ldr	r2, [sp]
	.loc	1 225 31                        @ ../misc_config.c:225:31
	adds	r1, r1, r2
	.loc	1 225 18                        @ ../misc_config.c:225:18
	ldrb	r0, [r0, r1]
	.loc	1 225 45                        @ ../misc_config.c:225:45
	cmp	r0, #32
	blt	.LBB12_11
	b	.LBB12_9
.LBB12_9:                               @   in Loop: Header=BB12_7 Depth=2
	.loc	1 225 49                        @ ../misc_config.c:225:49
	ldr	r0, [sp, #12]
	.loc	1 225 57                        @ ../misc_config.c:225:57
	ldr	r1, [sp, #4]
	.loc	1 225 64                        @ ../misc_config.c:225:64
	ldr	r2, [sp]
	.loc	1 225 62                        @ ../misc_config.c:225:62
	adds	r1, r1, r2
	.loc	1 225 49                        @ ../misc_config.c:225:49
	ldrb	r0, [r0, r1]
.Ltmp113:
	.loc	1 225 17                        @ ../misc_config.c:225:17
	cmp	r0, #126
	bgt	.LBB12_11
	b	.LBB12_10
.LBB12_10:                              @   in Loop: Header=BB12_7 Depth=2
.Ltmp114:
	.loc	1 226 34 is_stmt 1              @ ../misc_config.c:226:34
	ldr	r0, [sp, #12]
	.loc	1 226 42 is_stmt 0              @ ../misc_config.c:226:42
	ldr	r1, [sp, #4]
	.loc	1 226 49                        @ ../misc_config.c:226:49
	ldr	r2, [sp]
	.loc	1 226 47                        @ ../misc_config.c:226:47
	adds	r1, r1, r2
	.loc	1 226 34                        @ ../misc_config.c:226:34
	ldrb	r1, [r0, r1]
	.loc	1 226 17                        @ ../misc_config.c:226:17
	ldr	r0, __arm_cp.12_4
	bl	printf
	b	.LBB12_12
.LBB12_11:                              @   in Loop: Header=BB12_7 Depth=2
	.loc	1 228 17 is_stmt 1              @ ../misc_config.c:228:17
	ldr	r0, __arm_cp.12_3
	bl	printf
	b	.LBB12_12
.Ltmp115:
.LBB12_12:                              @   in Loop: Header=BB12_7 Depth=2
	.loc	1 229 19                        @ ../misc_config.c:229:19
	ldr	r0, [sp, #8]
	subs	r0, r0, #1
	str	r0, [sp, #8]
	.loc	1 230 9                         @ ../misc_config.c:230:9
	b	.LBB12_13
.Ltmp116:
.LBB12_13:                              @   in Loop: Header=BB12_7 Depth=2
	.loc	1 223 30                        @ ../misc_config.c:223:30
	ldr	r0, [sp]
	adds	r0, r0, #1
	str	r0, [sp]
	.loc	1 223 9 is_stmt 0               @ ../misc_config.c:223:9
	b	.LBB12_7
.Ltmp117:
.LBB12_14:                              @   in Loop: Header=BB12_1 Depth=1
	.loc	1 231 14 is_stmt 1              @ ../misc_config.c:231:14
	ldr	r0, [sp, #4]
	adds	r0, #16
	str	r0, [sp, #4]
	.loc	1 232 9                         @ ../misc_config.c:232:9
	ldr	r0, __arm_cp.12_0
	bl	printf
.Ltmp118:
	.loc	1 217 5                         @ ../misc_config.c:217:5
	b	.LBB12_1
.LBB12_15:
	.loc	1 234 5                         @ ../misc_config.c:234:5
	ldr	r0, __arm_cp.12_0
	bl	printf
	.loc	1 235 1 epilogue_begin          @ ../misc_config.c:235:1
	add	sp, #16
	pop	{r7, pc}
.Ltmp119:
	.p2align	2
@ %bb.16:
	.loc	1 0 1 is_stmt 0                 @ ../misc_config.c:0:1
__arm_cp.12_0:
	.long	.L.str.9
.Lcpi_end24:
	.size	__arm_cp.12_0, .Lcpi_end24-__arm_cp.12_0
__arm_cp.12_1:
	.long	.L.str.5
.Lcpi_end25:
	.size	__arm_cp.12_1, .Lcpi_end25-__arm_cp.12_1
__arm_cp.12_2:
	.long	.L.str.7
.Lcpi_end26:
	.size	__arm_cp.12_2, .Lcpi_end26-__arm_cp.12_2
__arm_cp.12_3:
	.long	.L.str.13
.Lcpi_end27:
	.size	__arm_cp.12_3, .Lcpi_end27-__arm_cp.12_3
__arm_cp.12_4:
	.long	.L.str.8
.Lcpi_end28:
	.size	__arm_cp.12_4, .Lcpi_end28-__arm_cp.12_4
__arm_cp.12_5:
	.long	.L.str.12
.Lcpi_end29:
	.size	__arm_cp.12_5, .Lcpi_end29-__arm_cp.12_5
.Lfunc_end12:
	.size	dump_buffer8_hex, .Lfunc_end12-dump_buffer8_hex
	.cfi_endproc
	.cantunwind
	.fnend
                                        @ -- End function
	.type	.L.str,%object                  @ @.str
	.section	.rodata.str1.1,"aMS",%progbits,1
.L.str:
	.asciz	"compare_buffer complete\r\n"
	.size	.L.str, 26

	.type	.L.str.1,%object                @ @.str.1
.L.str.1:
	.asciz	"Mismatch!! - %zu bytes\r\n"
	.size	.L.str.1, 25

	.type	.L.str.2,%object                @ @.str.2
.L.str.2:
	.asciz	"dump_buffer : %2d\r\n"
	.size	.L.str.2, 20

	.type	.L.str.3,%object                @ @.str.3
.L.str.3:
	.asciz	"0x%08lX,"
	.size	.L.str.3, 9

	.type	.L.str.4,%object                @ @.str.4
.L.str.4:
	.asciz	"\r\n"
	.size	.L.str.4, 3

	.type	.L.str.5,%object                @ @.str.5
.L.str.5:
	.asciz	"0x%04X  "
	.size	.L.str.5, 9

	.type	.L.str.6,%object                @ @.str.6
.L.str.6:
	.asciz	"%08lX "
	.size	.L.str.6, 7

	.type	.L.str.7,%object                @ @.str.7
.L.str.7:
	.asciz	"  "
	.size	.L.str.7, 3

	.type	.L.str.8,%object                @ @.str.8
.L.str.8:
	.asciz	"%c"
	.size	.L.str.8, 3

	.type	.L.str.9,%object                @ @.str.9
.L.str.9:
	.asciz	"\n"
	.size	.L.str.9, 2

	.type	.L.str.10,%object               @ @.str.10
.L.str.10:
	.asciz	"0x%02X,"
	.size	.L.str.10, 8

	.type	.L.str.11,%object               @ @.str.11
.L.str.11:
	.asciz	"\r\n\r\n"
	.size	.L.str.11, 5

	.type	.L.str.12,%object               @ @.str.12
.L.str.12:
	.asciz	"%02X "
	.size	.L.str.12, 6

	.type	.L.str.13,%object               @ @.str.13
.L.str.13:
	.asciz	"."
	.size	.L.str.13, 2

	.hidden	flag_MISC_CTL                   @ @flag_MISC_CTL
	.type	flag_MISC_CTL,%object
	.section	.bss.flag_MISC_CTL,"aw",%nobits
	.globl	flag_MISC_CTL
flag_MISC_CTL:
	.zero	1
	.size	flag_MISC_CTL, 1

	.file	3 "C:\\Keil_v5\\ARM\\ARMCLANG\\bin\\..\\include" "stdio.h"
	.section	".note.GNU-stack","",%progbits
	.eabi_attribute	30, 6	@ Tag_ABI_optimization_goals
	.ARM_attribute	16, 1	@ Tag_AV_eba