	.text
	.syntax unified
	.eabi_attribute	67, "2.09"	@ Tag_conformance
	.cpu	cortex-m23
	.eabi_attribute	6, 16	@ Tag_CPU_arch
	.eabi_attribute	7, 77	@ Tag_CPU_arch_profile
	.eabi_attribute	8, 0	@ Tag_ARM_ISA_use
	.eabi_attribute	9, 3	@ Tag_THUMB_ISA_use
	.eabi_attribute	34, 0	@ Tag_CPU_unaligned_access
	.eabi_attribute	17, 1	@ Tag_ABI_PCS_GOT_use
	.eabi_attribute	20, 2	@ Tag_ABI_FP_denormal
	.eabi_attribute	21, 0	@ Tag_ABI_FP_exceptions
	.eabi_attribute	23, 1	@ Tag_ABI_FP_number_model
	.eabi_attribute	24, 1	@ Tag_ABI_align_needed
	.eabi_attribute	25, 1	@ Tag_ABI_align_preserved
	.eabi_attribute	38, 1	@ Tag_ABI_FP_16bit_format
	.eabi_attribute	18, 2	@ Tag_ABI_PCS_wchar_t
	.eabi_attribute	26, 1	@ Tag_ABI_enum_size
	.eabi_attribute	14, 0	@ Tag_ABI_PCS_R9_use
	.file	"system_M2003.c"
	.file	1 "C:\\Keil_v5\\ARM\\ARMCLANG\\bin\\..\\include" "stdint.h"
	.file	2 "D:\\SourceCode\\_Avery_M2003\\M2003BSP_FLASH_EMULATE_EEPROM\\SampleCode\\Template\\Keil" "../../../Library/Device/Nuvoton/M2003/Source/system_M2003.c"
	.file	3 "D:\\SourceCode\\_Avery_M2003\\M2003BSP_FLASH_EMULATE_EEPROM\\SampleCode\\Template\\Keil" "../../../Library/Device/Nuvoton/M2003/Include\\clk_reg.h"
	.file	4 "D:\\SourceCode\\_Avery_M2003\\M2003BSP_FLASH_EMULATE_EEPROM\\SampleCode\\Template\\Keil" "../../../Library/Device/Nuvoton/M2003/Include\\sys_reg.h"
	.section	.text.SystemCoreClockUpdate,"ax",%progbits
	.hidden	SystemCoreClockUpdate           @ -- Begin function SystemCoreClockUpdate
	.globl	SystemCoreClockUpdate
	.p2align	2
	.type	SystemCoreClockUpdate,%function
	.code	16                              @ @SystemCoreClockUpdate
	.thumb_func
SystemCoreClockUpdate:
.Lfunc_begin0:
	.loc	2 37 0                          @ ../../../Library/Device/Nuvoton/M2003/Source/system_M2003.c:37:0
	.fnstart
	.cfi_sections .debug_frame
	.cfi_startproc
@ %bb.0:
	.pad	#12
	sub	sp, #12
	.cfi_def_cfa_offset 12
	ldr	r0, __arm_cp.0_0
.Ltmp0:
	.loc	2 41 22 prologue_end            @ ../../../Library/Device/Nuvoton/M2003/Source/system_M2003.c:41:22
	ldr	r0, [r0]
	movs	r1, #7
	.loc	2 41 30 is_stmt 0               @ ../../../Library/Device/Nuvoton/M2003/Source/system_M2003.c:41:30
	ands	r0, r1
	.loc	2 41 15                         @ ../../../Library/Device/Nuvoton/M2003/Source/system_M2003.c:41:15
	str	r0, [sp, #4]
	.loc	2 44 30 is_stmt 1               @ ../../../Library/Device/Nuvoton/M2003/Source/system_M2003.c:44:30
	ldr	r0, [sp, #4]
	.loc	2 44 15 is_stmt 0               @ ../../../Library/Device/Nuvoton/M2003/Source/system_M2003.c:44:15
	lsls	r1, r0, #2
	ldr	r0, __arm_cp.0_1
	ldr	r0, [r0, r1]
	.loc	2 44 13                         @ ../../../Library/Device/Nuvoton/M2003/Source/system_M2003.c:44:13
	str	r0, [sp, #8]
	ldr	r0, __arm_cp.0_2
	.loc	2 46 24 is_stmt 1               @ ../../../Library/Device/Nuvoton/M2003/Source/system_M2003.c:46:24
	ldr	r0, [r0]
	movs	r1, #15
	.loc	2 46 32 is_stmt 0               @ ../../../Library/Device/Nuvoton/M2003/Source/system_M2003.c:46:32
	ands	r0, r1
	.loc	2 46 59                         @ ../../../Library/Device/Nuvoton/M2003/Source/system_M2003.c:46:59
	adds	r0, r0, #1
	.loc	2 46 16                         @ ../../../Library/Device/Nuvoton/M2003/Source/system_M2003.c:46:16
	str	r0, [sp]
	.loc	2 49 23 is_stmt 1               @ ../../../Library/Device/Nuvoton/M2003/Source/system_M2003.c:49:23
	ldr	r0, [sp, #8]
	.loc	2 49 33 is_stmt 0               @ ../../../Library/Device/Nuvoton/M2003/Source/system_M2003.c:49:33
	ldr	r1, [sp]
	.loc	2 49 31                         @ ../../../Library/Device/Nuvoton/M2003/Source/system_M2003.c:49:31
	udiv	r1, r0, r1
	.loc	2 49 21                         @ ../../../Library/Device/Nuvoton/M2003/Source/system_M2003.c:49:21
	ldr	r0, __arm_cp.0_3
	str	r1, [r0]
	.loc	2 51 20 is_stmt 1               @ ../../../Library/Device/Nuvoton/M2003/Source/system_M2003.c:51:20
	ldr	r0, [r0]
	ldr	r1, __arm_cp.0_4
	.loc	2 51 36 is_stmt 0               @ ../../../Library/Device/Nuvoton/M2003/Source/system_M2003.c:51:36
	adds	r0, r0, r1
	ldr	r1, __arm_cp.0_5
	.loc	2 51 46                         @ ../../../Library/Device/Nuvoton/M2003/Source/system_M2003.c:51:46
	udiv	r0, r0, r1
	.loc	2 51 17                         @ ../../../Library/Device/Nuvoton/M2003/Source/system_M2003.c:51:17
	ldr	r1, __arm_cp.0_6
	str	r0, [r1]
	.loc	2 52 1 epilogue_begin is_stmt 1 @ ../../../Library/Device/Nuvoton/M2003/Source/system_M2003.c:52:1
	add	sp, #12
	bx	lr
.Ltmp1:
	.p2align	2
@ %bb.1:
	.loc	2 0 1 is_stmt 0                 @ ../../../Library/Device/Nuvoton/M2003/Source/system_M2003.c:0:1
__arm_cp.0_0:
	.long	1073742352                      @ 0x40000210
.Lcpi_end0:
	.size	__arm_cp.0_0, .Lcpi_end0-__arm_cp.0_0
__arm_cp.0_1:
	.long	gau32ClkSrcTbl
.Lcpi_end1:
	.size	__arm_cp.0_1, .Lcpi_end1-__arm_cp.0_1
__arm_cp.0_2:
	.long	1073742368                      @ 0x40000220
.Lcpi_end2:
	.size	__arm_cp.0_2, .Lcpi_end2-__arm_cp.0_2
__arm_cp.0_3:
	.long	SystemCoreClock
.Lcpi_end3:
	.size	__arm_cp.0_3, .Lcpi_end3-__arm_cp.0_3
__arm_cp.0_4:
	.long	500000                          @ 0x7a120
.Lcpi_end4:
	.size	__arm_cp.0_4, .Lcpi_end4-__arm_cp.0_4
__arm_cp.0_5:
	.long	1000000                         @ 0xf4240
.Lcpi_end5:
	.size	__arm_cp.0_5, .Lcpi_end5-__arm_cp.0_5
__arm_cp.0_6:
	.long	CyclesPerUs
.Lcpi_end6:
	.size	__arm_cp.0_6, .Lcpi_end6-__arm_cp.0_6
.Lfunc_end0:
	.size	SystemCoreClockUpdate, .Lfunc_end0-SystemCoreClockUpdate
	.cfi_endproc
	.cantunwind
	.fnend
                                        @ -- End function
	.section	.text.SystemInit,"ax",%progbits
	.hidden	SystemInit                      @ -- Begin function SystemInit
	.globl	SystemInit
	.p2align	2
	.type	SystemInit,%function
	.code	16                              @ @SystemInit
	.thumb_func
SystemInit:
.Lfunc_begin1:
	.loc	2 65 0 is_stmt 1                @ ../../../Library/Device/Nuvoton/M2003/Source/system_M2003.c:65:0
	.fnstart
	.cfi_startproc
@ %bb.0:
	.save	{r7, lr}
	push	{r7, lr}
	.cfi_def_cfa_offset 8
	.cfi_offset lr, -4
	.cfi_offset r7, -8
.Ltmp2:
	.loc	2 66 2 prologue_end             @ ../../../Library/Device/Nuvoton/M2003/Source/system_M2003.c:66:2
	bl	SYS_UnlockReg
	ldr	r1, __arm_cp.1_0
	movs	r0, #1
	.loc	2 67 18                         @ ../../../Library/Device/Nuvoton/M2003/Source/system_M2003.c:67:18
	str	r0, [r1]
	.loc	2 68 2                          @ ../../../Library/Device/Nuvoton/M2003/Source/system_M2003.c:68:2
	bl	SYS_LockReg
	.loc	2 69 1 epilogue_begin           @ ../../../Library/Device/Nuvoton/M2003/Source/system_M2003.c:69:1
	pop	{r7, pc}
.Ltmp3:
	.p2align	2
@ %bb.1:
	.loc	2 0 1 is_stmt 0                 @ ../../../Library/Device/Nuvoton/M2003/Source/system_M2003.c:0:1
__arm_cp.1_0:
	.long	1073742512                      @ 0x400002b0
.Lcpi_end7:
	.size	__arm_cp.1_0, .Lcpi_end7-__arm_cp.1_0
.Lfunc_end1:
	.size	SystemInit, .Lfunc_end1-SystemInit
	.cfi_endproc
	.cantunwind
	.fnend
                                        @ -- End function
	.section	.text.SYS_UnlockReg,"ax",%progbits
	.p2align	2                               @ -- Begin function SYS_UnlockReg
	.type	SYS_UnlockReg,%function
	.code	16                              @ @SYS_UnlockReg
	.thumb_func
SYS_UnlockReg:
.Lfunc_begin2:
	.fnstart
	.cfi_startproc
@ %bb.0:
	.file	5 "D:\\SourceCode\\_Avery_M2003\\M2003BSP_FLASH_EMULATE_EEPROM\\SampleCode\\Template\\Keil" "../../../Library/StdDriver/inc\\sys.h"
	.loc	5 650 5 prologue_end is_stmt 1  @ ../../../Library/StdDriver/inc\sys.h:650:5
	b	.LBB2_1
.LBB2_1:                                @ =>This Inner Loop Header: Depth=1
	.loc	5 0 5 is_stmt 0                 @ ../../../Library/StdDriver/inc\sys.h:0:5
	ldr	r1, __arm_cp.2_0
	movs	r0, #89
.Ltmp4:
	.loc	5 652 22 is_stmt 1              @ ../../../Library/StdDriver/inc\sys.h:652:22
	str	r0, [r1]
	movs	r0, #22
	.loc	5 653 22                        @ ../../../Library/StdDriver/inc\sys.h:653:22
	str	r0, [r1]
	movs	r0, #136
	.loc	5 654 22                        @ ../../../Library/StdDriver/inc\sys.h:654:22
	str	r0, [r1]
	.loc	5 655 5                         @ ../../../Library/StdDriver/inc\sys.h:655:5
	b	.LBB2_2
.Ltmp5:
.LBB2_2:                                @   in Loop: Header=BB2_1 Depth=1
	.loc	5 0 5 is_stmt 0                 @ ../../../Library/StdDriver/inc\sys.h:0:5
	ldr	r0, __arm_cp.2_0
	.loc	5 656 16 is_stmt 1              @ ../../../Library/StdDriver/inc\sys.h:656:16
	ldr	r0, [r0]
.Ltmp6:
	.loc	5 655 5                         @ ../../../Library/StdDriver/inc\sys.h:655:5
	cmp	r0, #0
	beq	.LBB2_1
	b	.LBB2_3
.Ltmp7:
.LBB2_3:
	.loc	5 657 1                         @ ../../../Library/StdDriver/inc\sys.h:657:1
	bx	lr
.Ltmp8:
	.p2align	2
@ %bb.4:
	.loc	5 0 1 is_stmt 0                 @ ../../../Library/StdDriver/inc\sys.h:0:1
__arm_cp.2_0:
	.long	1073742080                      @ 0x40000100
.Lcpi_end8:
	.size	__arm_cp.2_0, .Lcpi_end8-__arm_cp.2_0
.Lfunc_end2:
	.size	SYS_UnlockReg, .Lfunc_end2-SYS_UnlockReg
	.cfi_endproc
	.cantunwind
	.fnend
                                        @ -- End function
	.section	.text.SYS_LockReg,"ax",%progbits
	.p2align	2                               @ -- Begin function SYS_LockReg
	.type	SYS_LockReg,%function
	.code	16                              @ @SYS_LockReg
	.thumb_func
SYS_LockReg:
.Lfunc_begin3:
	.loc	5 667 0 is_stmt 1               @ ../../../Library/StdDriver/inc\sys.h:667:0
	.fnstart
	.cfi_startproc
@ %bb.0:
	ldr	r1, __arm_cp.3_0
	movs	r0, #0
.Ltmp9:
	.loc	5 668 18 prologue_end           @ ../../../Library/StdDriver/inc\sys.h:668:18
	str	r0, [r1]
	.loc	5 669 1                         @ ../../../Library/StdDriver/inc\sys.h:669:1
	bx	lr
.Ltmp10:
	.p2align	2
@ %bb.1:
	.loc	5 0 1 is_stmt 0                 @ ../../../Library/StdDriver/inc\sys.h:0:1
__arm_cp.3_0:
	.long	1073742080                      @ 0x40000100
.Lcpi_end9:
	.size	__arm_cp.3_0, .Lcpi_end9-__arm_cp.3_0
.Lfunc_end3:
	.size	SYS_LockReg, .Lfunc_end3-SYS_LockReg
	.cfi_endproc
	.cantunwind
	.fnend
                                        @ -- End function
	.section	.text.Uart0DefaultMPF,"ax",%progbits
	.hidden	Uart0DefaultMPF                 @ -- Begin function Uart0DefaultMPF
	.weak	Uart0DefaultMPF
	.p2align	2
	.type	Uart0DefaultMPF,%function
	.code	16                              @ @Uart0DefaultMPF
	.thumb_func
Uart0DefaultMPF:
.Lfunc_begin4:
	.loc	2 109 0 is_stmt 1               @ ../../../Library/Device/Nuvoton/M2003/Source/system_M2003.c:109:0
	.fnstart
	.cfi_startproc
@ %bb.0:
	.save	{r4, lr}
	push	{r4, lr}
	.cfi_def_cfa_offset 8
	.cfi_offset lr, -4
	.cfi_offset r4, -8
	ldr	r1, __arm_cp.4_0
.Ltmp11:
	.loc	2 111 27 prologue_end           @ ../../../Library/Device/Nuvoton/M2003/Source/system_M2003.c:111:27
	ldr	r0, [r1]
	movs	r3, #15
	lsls	r2, r3, #16
	.loc	2 111 36 is_stmt 0              @ ../../../Library/Device/Nuvoton/M2003/Source/system_M2003.c:111:36
	bics	r0, r2
	movs	r2, #3
	lsls	r4, r2, #17
	.loc	2 111 65                        @ ../../../Library/Device/Nuvoton/M2003/Source/system_M2003.c:111:65
	adds	r0, r0, r4
	.loc	2 111 19                        @ ../../../Library/Device/Nuvoton/M2003/Source/system_M2003.c:111:19
	str	r0, [r1]
	.loc	2 112 27 is_stmt 1              @ ../../../Library/Device/Nuvoton/M2003/Source/system_M2003.c:112:27
	ldr	r0, [r1]
	lsls	r3, r3, #20
	.loc	2 112 36 is_stmt 0              @ ../../../Library/Device/Nuvoton/M2003/Source/system_M2003.c:112:36
	bics	r0, r3
	lsls	r2, r2, #21
	.loc	2 112 65                        @ ../../../Library/Device/Nuvoton/M2003/Source/system_M2003.c:112:65
	adds	r0, r0, r2
	.loc	2 112 19                        @ ../../../Library/Device/Nuvoton/M2003/Source/system_M2003.c:112:19
	str	r0, [r1]
	.loc	2 114 1 epilogue_begin is_stmt 1 @ ../../../Library/Device/Nuvoton/M2003/Source/system_M2003.c:114:1
	pop	{r4, pc}
.Ltmp12:
	.p2align	2
@ %bb.1:
	.loc	2 0 1 is_stmt 0                 @ ../../../Library/Device/Nuvoton/M2003/Source/system_M2003.c:0:1
__arm_cp.4_0:
	.long	1073741884                      @ 0x4000003c
.Lcpi_end10:
	.size	__arm_cp.4_0, .Lcpi_end10-__arm_cp.4_0
.Lfunc_end4:
	.size	Uart0DefaultMPF, .Lfunc_end4-Uart0DefaultMPF
	.cfi_endproc
	.cantunwind
	.fnend
                                        @ -- End function
	.hidden	SystemCoreClock                 @ @SystemCoreClock
	.type	SystemCoreClock,%object
	.section	.data.SystemCoreClock,"aw",%progbits
	.globl	SystemCoreClock
	.p2align	2, 0x0
SystemCoreClock:
	.long	24000000                        @ 0x16e3600
	.size	SystemCoreClock, 4

	.hidden	CyclesPerUs                     @ @CyclesPerUs
	.type	CyclesPerUs,%object
	.section	.data.CyclesPerUs,"aw",%progbits
	.globl	CyclesPerUs
	.p2align	2, 0x0
CyclesPerUs:
	.long	24                              @ 0x18
	.size	CyclesPerUs, 4

	.hidden	PllClock                        @ @PllClock
	.type	PllClock,%object
	.section	.data.PllClock,"aw",%progbits
	.globl	PllClock
	.p2align	2, 0x0
PllClock:
	.long	24000000                        @ 0x16e3600
	.size	PllClock, 4

	.hidden	gau32ClkSrcTbl                  @ @gau32ClkSrcTbl
	.type	gau32ClkSrcTbl,%object
	.section	.rodata.gau32ClkSrcTbl,"a",%progbits
	.globl	gau32ClkSrcTbl
	.p2align	2, 0x0
gau32ClkSrcTbl:
	.long	0                               @ 0x0
	.long	0                               @ 0x0
	.long	0                               @ 0x0
	.long	10000                           @ 0x2710
	.long	0                               @ 0x0
	.long	24000000                        @ 0x16e3600
	.long	0                               @ 0x0
	.long	0                               @ 0x0
	.size	gau32ClkSrcTbl, 32

	.section	".note.GNU-stack","",%progbits
	.eabi_attribute	30, 6	@ Tag_ABI_optimization_goals
	.ARM_attribute	16, 1	@ Tag_AV_eba