	.text
	.syntax unified
	.eabi_attribute	67, "2.09"	@ Tag_conformance
	.cpu	cortex-m23
	.eabi_attribute	6, 16	@ Tag_CPU_arch
	.eabi_attribute	7, 77	@ Tag_CPU_arch_profile
	.eabi_attribute	8, 0	@ Tag_ARM_ISA_use
	.eabi_attribute	9, 3	@ Tag_THUMB_ISA_use
	.eabi_attribute	34, 0	@ Tag_CPU_unaligned_access
	.eabi_attribute	17, 1	@ Tag_ABI_PCS_GOT_use
	.eabi_attribute	20, 2	@ Tag_ABI_FP_denormal
	.eabi_attribute	21, 0	@ Tag_ABI_FP_exceptions
	.eabi_attribute	23, 1	@ Tag_ABI_FP_number_model
	.eabi_attribute	24, 1	@ Tag_ABI_align_needed
	.eabi_attribute	25, 1	@ Tag_ABI_align_preserved
	.eabi_attribute	38, 1	@ Tag_ABI_FP_16bit_format
	.eabi_attribute	18, 2	@ Tag_ABI_PCS_wchar_t
	.eabi_attribute	26, 1	@ Tag_ABI_enum_size
	.eabi_attribute	14, 0	@ Tag_ABI_PCS_R9_use
	.file	"timer_service.c"
	.file	1 "D:\\SourceCode\\_Avery_M2003\\M2003BSP_FLASH_EMULATE_EEPROM\\SampleCode\\Template\\Keil" "..\\timer_service.h"
	.file	2 "D:\\SourceCode\\_Avery_M2003\\M2003BSP_FLASH_EMULATE_EEPROM\\SampleCode\\Template\\Keil" "../timer_service.c"
	.section	.text.TimerService_Tick1ms,"ax",%progbits
	.hidden	TimerService_Tick1ms            @ -- Begin function TimerService_Tick1ms
	.globl	TimerService_Tick1ms
	.p2align	2
	.type	TimerService_Tick1ms,%function
	.code	16                              @ @TimerService_Tick1ms
	.thumb_func
TimerService_Tick1ms:
.Lfunc_begin0:
	.loc	2 44 0                          @ ../timer_service.c:44:0
	.fnstart
	.cfi_sections .debug_frame
	.cfi_startproc
@ %bb.0:
	.save	{r7, lr}
	push	{r7, lr}
	.cfi_def_cfa_offset 8
	.cfi_offset lr, -4
	.cfi_offset r7, -8
	.pad	#8
	sub	sp, #8
	.cfi_def_cfa_offset 16
	movs	r0, #0
.Ltmp0:
	.loc	2 48 12 prologue_end            @ ../timer_service.c:48:12
	str	r0, [sp, #4]
	.loc	2 48 10 is_stmt 0               @ ../timer_service.c:48:10
	b	.LBB0_1
.LBB0_1:                                @ =>This Inner Loop Header: Depth=1
.Ltmp1:
	.loc	2 48 18                         @ ../timer_service.c:48:18
	ldr	r0, [sp, #4]
.Ltmp2:
	.loc	2 48 5                          @ ../timer_service.c:48:5
	cmp	r0, #15
	bhi	.LBB0_16
	b	.LBB0_2
.LBB0_2:                                @   in Loop: Header=BB0_1 Depth=1
.Ltmp3:
	.loc	2 50 34 is_stmt 1               @ ../timer_service.c:50:34
	ldr	r0, [sp, #4]
	.loc	2 50 14 is_stmt 0               @ ../timer_service.c:50:14
	lsls	r1, r0, #4
	ldr	r0, __arm_cp.0_0
	adds	r0, r0, r1
	.loc	2 50 11                         @ ../timer_service.c:50:11
	str	r0, [sp]
.Ltmp4:
	.loc	2 52 14 is_stmt 1               @ ../timer_service.c:52:14
	ldr	r0, [sp]
	.loc	2 52 17 is_stmt 0               @ ../timer_service.c:52:17
	ldrb	r0, [r0, #4]
	.loc	2 52 31                         @ ../timer_service.c:52:31
	cbz	r0, .LBB0_14
	b	.LBB0_3
.LBB0_3:                                @   in Loop: Header=BB0_1 Depth=1
	.loc	2 52 35                         @ ../timer_service.c:52:35
	ldr	r0, [sp]
	.loc	2 52 38                         @ ../timer_service.c:52:38
	ldr	r0, [r0, #8]
.Ltmp5:
	.loc	2 52 13                         @ ../timer_service.c:52:13
	cbz	r0, .LBB0_14
	b	.LBB0_4
.LBB0_4:                                @   in Loop: Header=BB0_1 Depth=1
.Ltmp6:
	.loc	2 54 17 is_stmt 1               @ ../timer_service.c:54:17
	ldr	r0, [sp]
	.loc	2 54 20 is_stmt 0               @ ../timer_service.c:54:20
	ldrh	r0, [r0, #2]
	ldr	r1, __arm_cp.0_1
.Ltmp7:
	.loc	2 54 17                         @ ../timer_service.c:54:17
	cmp	r0, r1
	beq	.LBB0_6
	b	.LBB0_5
.LBB0_5:                                @   in Loop: Header=BB0_1 Depth=1
.Ltmp8:
	.loc	2 56 17 is_stmt 1               @ ../timer_service.c:56:17
	ldr	r1, [sp]
	.loc	2 56 30 is_stmt 0               @ ../timer_service.c:56:30
	ldrh	r0, [r1, #2]
	adds	r0, r0, #1
	strh	r0, [r1, #2]
	.loc	2 57 13 is_stmt 1               @ ../timer_service.c:57:13
	b	.LBB0_6
.Ltmp9:
.LBB0_6:                                @   in Loop: Header=BB0_1 Depth=1
	.loc	2 59 17                         @ ../timer_service.c:59:17
	ldr	r0, [sp]
	.loc	2 59 20 is_stmt 0               @ ../timer_service.c:59:20
	ldrh	r0, [r0, #2]
	.loc	2 59 34                         @ ../timer_service.c:59:34
	ldr	r1, [sp]
	.loc	2 59 37                         @ ../timer_service.c:59:37
	ldrh	r1, [r1]
.Ltmp10:
	.loc	2 59 17                         @ ../timer_service.c:59:17
	cmp	r0, r1
	blt	.LBB0_13
	b	.LBB0_7
.LBB0_7:                                @   in Loop: Header=BB0_1 Depth=1
.Ltmp11:
	.loc	2 61 17 is_stmt 1               @ ../timer_service.c:61:17
	ldr	r1, [sp]
	movs	r0, #0
	.loc	2 61 31 is_stmt 0               @ ../timer_service.c:61:31
	strh	r0, [r1, #2]
.Ltmp12:
	.loc	2 63 21 is_stmt 1               @ ../timer_service.c:63:21
	ldr	r0, [sp]
	.loc	2 63 24 is_stmt 0               @ ../timer_service.c:63:24
	ldrb	r0, [r0, #5]
.Ltmp13:
	.loc	2 63 21                         @ ../timer_service.c:63:21
	cbnz	r0, .LBB0_11
	b	.LBB0_8
.LBB0_8:                                @   in Loop: Header=BB0_1 Depth=1
.Ltmp14:
	.loc	2 66 25 is_stmt 1               @ ../timer_service.c:66:25
	ldr	r0, [sp]
	.loc	2 66 28 is_stmt 0               @ ../timer_service.c:66:28
	ldrb	r0, [r0, #6]
.Ltmp15:
	.loc	2 66 25                         @ ../timer_service.c:66:25
	cbnz	r0, .LBB0_10
	b	.LBB0_9
.LBB0_9:                                @   in Loop: Header=BB0_1 Depth=1
.Ltmp16:
	.loc	2 68 25 is_stmt 1               @ ../timer_service.c:68:25
	ldr	r1, [sp]
	movs	r0, #1
	.loc	2 68 36 is_stmt 0               @ ../timer_service.c:68:36
	strb	r0, [r1, #6]
	.loc	2 69 21 is_stmt 1               @ ../timer_service.c:69:21
	b	.LBB0_10
.Ltmp17:
.LBB0_10:                               @   in Loop: Header=BB0_1 Depth=1
	.loc	2 70 17                         @ ../timer_service.c:70:17
	b	.LBB0_12
.Ltmp18:
.LBB0_11:                               @   in Loop: Header=BB0_1 Depth=1
	.loc	2 74 59                         @ ../timer_service.c:74:59
	ldr	r0, [sp, #4]
	.loc	2 74 21 is_stmt 0               @ ../timer_service.c:74:21
	bl	TimerService_EnqueueEventFromISR
	b	.LBB0_12
.Ltmp19:
.LBB0_12:                               @   in Loop: Header=BB0_1 Depth=1
	.loc	2 76 13 is_stmt 1               @ ../timer_service.c:76:13
	b	.LBB0_13
.Ltmp20:
.LBB0_13:                               @   in Loop: Header=BB0_1 Depth=1
	.loc	2 77 9                          @ ../timer_service.c:77:9
	b	.LBB0_14
.Ltmp21:
.LBB0_14:                               @   in Loop: Header=BB0_1 Depth=1
	.loc	2 78 5                          @ ../timer_service.c:78:5
	b	.LBB0_15
.Ltmp22:
.LBB0_15:                               @   in Loop: Header=BB0_1 Depth=1
	.loc	2 48 49                         @ ../timer_service.c:48:49
	ldr	r0, [sp, #4]
	adds	r0, r0, #1
	str	r0, [sp, #4]
	.loc	2 48 5 is_stmt 0                @ ../timer_service.c:48:5
	b	.LBB0_1
.Ltmp23:
.LBB0_16:
	.loc	2 79 1 epilogue_begin is_stmt 1 @ ../timer_service.c:79:1
	add	sp, #8
	pop	{r7, pc}
.Ltmp24:
	.p2align	2
@ %bb.17:
	.loc	2 0 1 is_stmt 0                 @ ../timer_service.c:0:1
__arm_cp.0_0:
	.long	g_TimerService_List
.Lcpi_end0:
	.size	__arm_cp.0_0, .Lcpi_end0-__arm_cp.0_0
__arm_cp.0_1:
	.long	65535                           @ 0xffff
.Lcpi_end1:
	.size	__arm_cp.0_1, .Lcpi_end1-__arm_cp.0_1
.Lfunc_end0:
	.size	TimerService_Tick1ms, .Lfunc_end0-TimerService_Tick1ms
	.cfi_endproc
	.cantunwind
	.fnend
                                        @ -- End function
	.section	.text.TimerService_EnqueueEventFromISR,"ax",%progbits
	.p2align	2                               @ -- Begin function TimerService_EnqueueEventFromISR
	.type	TimerService_EnqueueEventFromISR,%function
	.code	16                              @ @TimerService_EnqueueEventFromISR
	.thumb_func
TimerService_EnqueueEventFromISR:
.Lfunc_begin1:
	.loc	2 20 0 is_stmt 1                @ ../timer_service.c:20:0
	.fnstart
	.cfi_startproc
@ %bb.0:
	.pad	#12
	sub	sp, #12
	.cfi_def_cfa_offset 12
	str	r0, [sp, #8]
.Ltmp25:
	.loc	2 24 7 prologue_end             @ ../timer_service.c:24:7
	ldr	r0, __arm_cp.1_0
	str	r0, [sp, #4]
	.loc	2 26 33                         @ ../timer_service.c:26:33
	ldr	r0, [sp, #4]
	ldrb	r0, [r0, #1]
	.loc	2 26 41 is_stmt 0               @ ../timer_service.c:26:41
	adds	r1, r0, #1
	mov	r0, sp
	.loc	2 26 15                         @ ../timer_service.c:26:15
	strb	r1, [r0]
.Ltmp26:
	.loc	2 27 9 is_stmt 1                @ ../timer_service.c:27:9
	ldrb	r0, [r0]
.Ltmp27:
	.loc	2 27 9 is_stmt 0                @ ../timer_service.c:27:9
	cmp	r0, #16
	blo	.LBB1_2
	b	.LBB1_1
.LBB1_1:
	.loc	2 0 9                           @ ../timer_service.c:0:9
	mov	r1, sp
	movs	r0, #0
.Ltmp28:
	.loc	2 29 19 is_stmt 1               @ ../timer_service.c:29:19
	strb	r0, [r1]
	.loc	2 30 5                          @ ../timer_service.c:30:5
	b	.LBB1_2
.Ltmp29:
.LBB1_2:
	.loc	2 0 5 is_stmt 0                 @ ../timer_service.c:0:5
	mov	r0, sp
.Ltmp30:
	.loc	2 33 9 is_stmt 1                @ ../timer_service.c:33:9
	ldrb	r0, [r0]
	.loc	2 33 22 is_stmt 0               @ ../timer_service.c:33:22
	ldr	r1, [sp, #4]
	.loc	2 33 25                         @ ../timer_service.c:33:25
	ldrb	r1, [r1]
.Ltmp31:
	.loc	2 33 9                          @ ../timer_service.c:33:9
	cmp	r0, r1
	bne	.LBB1_4
	b	.LBB1_3
.LBB1_3:
.Ltmp32:
	.loc	2 35 9 is_stmt 1                @ ../timer_service.c:35:9
	b	.LBB1_5
.Ltmp33:
.LBB1_4:
	.loc	2 38 23                         @ ../timer_service.c:38:23
	ldr	r0, [sp, #8]
	.loc	2 38 5 is_stmt 0                @ ../timer_service.c:38:5
	ldr	r1, [sp, #4]
	.loc	2 38 15                         @ ../timer_service.c:38:15
	ldrb	r2, [r1, #1]
	.loc	2 38 5                          @ ../timer_service.c:38:5
	lsls	r2, r2, #2
	.loc	2 38 8                          @ ../timer_service.c:38:8
	adds	r1, r1, r2
	.loc	2 38 21                         @ ../timer_service.c:38:21
	str	r0, [r1, #4]
	.loc	2 39 15 is_stmt 1               @ ../timer_service.c:39:15
	ldr	r0, [sp]
	.loc	2 39 5 is_stmt 0                @ ../timer_service.c:39:5
	ldr	r1, [sp, #4]
	.loc	2 39 13                         @ ../timer_service.c:39:13
	strb	r0, [r1, #1]
	.loc	2 40 1 is_stmt 1                @ ../timer_service.c:40:1
	b	.LBB1_5
.LBB1_5:
	.loc	2 40 1 epilogue_begin is_stmt 0 @ ../timer_service.c:40:1
	add	sp, #12
	bx	lr
.Ltmp34:
	.p2align	2
@ %bb.6:
	.loc	2 0 1                           @ ../timer_service.c:0:1
__arm_cp.1_0:
	.long	g_TimerEventQueue
.Lcpi_end2:
	.size	__arm_cp.1_0, .Lcpi_end2-__arm_cp.1_0
.Lfunc_end1:
	.size	TimerService_EnqueueEventFromISR, .Lfunc_end1-TimerService_EnqueueEventFromISR
	.cfi_endproc
	.cantunwind
	.fnend
                                        @ -- End function
	.section	.text.TimerService_DequeueEvent,"ax",%progbits
	.hidden	TimerService_DequeueEvent       @ -- Begin function TimerService_DequeueEvent
	.globl	TimerService_DequeueEvent
	.p2align	2
	.type	TimerService_DequeueEvent,%function
	.code	16                              @ @TimerService_DequeueEvent
	.thumb_func
TimerService_DequeueEvent:
.Lfunc_begin2:
	.loc	2 93 0 is_stmt 1                @ ../timer_service.c:93:0
	.fnstart
	.cfi_startproc
@ %bb.0:
	.save	{r7, lr}
	push	{r7, lr}
	.cfi_def_cfa_offset 8
	.cfi_offset lr, -4
	.cfi_offset r7, -8
	.pad	#16
	sub	sp, #16
	.cfi_def_cfa_offset 24
	str	r0, [sp, #12]
.Ltmp35:
	.loc	2 98 7 prologue_end             @ ../timer_service.c:98:7
	ldr	r0, __arm_cp.2_0
	str	r0, [sp, #8]
	add	r1, sp, #4
	movs	r0, #0
	.loc	2 99 15                         @ ../timer_service.c:99:15
	strb	r0, [r1]
	mvns	r0, r0
	.loc	2 100 8                         @ ../timer_service.c:100:8
	str	r0, [sp]
	.loc	2 102 5                         @ ../timer_service.c:102:5
	bl	TimerService_EnterCritical
.Ltmp36:
	.loc	2 105 9                         @ ../timer_service.c:105:9
	ldr	r0, [sp, #8]
	.loc	2 105 12 is_stmt 0              @ ../timer_service.c:105:12
	ldrb	r0, [r0]
	.loc	2 105 20                        @ ../timer_service.c:105:20
	ldr	r1, [sp, #8]
	.loc	2 105 23                        @ ../timer_service.c:105:23
	ldrb	r1, [r1, #1]
.Ltmp37:
	.loc	2 105 9                         @ ../timer_service.c:105:9
	cmp	r0, r1
	beq	.LBB2_4
	b	.LBB2_1
.LBB2_1:
.Ltmp38:
	.loc	2 107 14 is_stmt 1              @ ../timer_service.c:107:14
	ldr	r0, [sp, #8]
	.loc	2 107 24 is_stmt 0              @ ../timer_service.c:107:24
	ldrb	r1, [r0]
	.loc	2 107 14                        @ ../timer_service.c:107:14
	lsls	r1, r1, #2
	.loc	2 107 17                        @ ../timer_service.c:107:17
	adds	r0, r0, r1
	.loc	2 107 14                        @ ../timer_service.c:107:14
	ldr	r0, [r0, #4]
	.loc	2 107 12                        @ ../timer_service.c:107:12
	str	r0, [sp]
	.loc	2 109 9 is_stmt 1               @ ../timer_service.c:109:9
	ldr	r1, [sp, #8]
	.loc	2 109 16 is_stmt 0              @ ../timer_service.c:109:16
	ldrb	r0, [r1]
	adds	r0, r0, #1
	strb	r0, [r1]
.Ltmp39:
	.loc	2 110 13 is_stmt 1              @ ../timer_service.c:110:13
	ldr	r0, [sp, #8]
	.loc	2 110 16 is_stmt 0              @ ../timer_service.c:110:16
	ldrb	r0, [r0]
.Ltmp40:
	.loc	2 110 13                        @ ../timer_service.c:110:13
	cmp	r0, #16
	blo	.LBB2_3
	b	.LBB2_2
.LBB2_2:
.Ltmp41:
	.loc	2 112 13 is_stmt 1              @ ../timer_service.c:112:13
	ldr	r1, [sp, #8]
	movs	r0, #0
	.loc	2 112 21 is_stmt 0              @ ../timer_service.c:112:21
	strb	r0, [r1]
	.loc	2 113 9 is_stmt 1               @ ../timer_service.c:113:9
	b	.LBB2_3
.Ltmp42:
.LBB2_3:
	.loc	2 0 9 is_stmt 0                 @ ../timer_service.c:0:9
	add	r1, sp, #4
	movs	r0, #1
	.loc	2 115 19 is_stmt 1              @ ../timer_service.c:115:19
	strb	r0, [r1]
	.loc	2 116 5                         @ ../timer_service.c:116:5
	b	.LBB2_4
.Ltmp43:
.LBB2_4:
	.loc	2 118 5                         @ ../timer_service.c:118:5
	bl	TimerService_ExitCritical
	add	r0, sp, #4
.Ltmp44:
	.loc	2 120 9                         @ ../timer_service.c:120:9
	ldrb	r0, [r0]
.Ltmp45:
	.loc	2 120 9 is_stmt 0               @ ../timer_service.c:120:9
	cbz	r0, .LBB2_6
	b	.LBB2_5
.LBB2_5:
.Ltmp46:
	.loc	2 122 19 is_stmt 1              @ ../timer_service.c:122:19
	ldr	r0, [sp]
	.loc	2 122 10 is_stmt 0              @ ../timer_service.c:122:10
	ldr	r1, [sp, #12]
	.loc	2 122 17                        @ ../timer_service.c:122:17
	str	r0, [r1]
	.loc	2 123 5 is_stmt 1               @ ../timer_service.c:123:5
	b	.LBB2_6
.Ltmp47:
.LBB2_6:
	.loc	2 0 5 is_stmt 0                 @ ../timer_service.c:0:5
	add	r0, sp, #4
	.loc	2 125 12 is_stmt 1              @ ../timer_service.c:125:12
	ldrb	r0, [r0]
	.loc	2 125 5 epilogue_begin is_stmt 0 @ ../timer_service.c:125:5
	add	sp, #16
	pop	{r7, pc}
.Ltmp48:
	.p2align	2
@ %bb.7:
	.loc	2 0 5                           @ ../timer_service.c:0:5
__arm_cp.2_0:
	.long	g_TimerEventQueue
.Lcpi_end3:
	.size	__arm_cp.2_0, .Lcpi_end3-__arm_cp.2_0
.Lfunc_end2:
	.size	TimerService_DequeueEvent, .Lfunc_end2-TimerService_DequeueEvent
	.cfi_endproc
	.cantunwind
	.fnend
                                        @ -- End function
	.section	.text.TimerService_EnterCritical,"ax",%progbits
	.p2align	1                               @ -- Begin function TimerService_EnterCritical
	.type	TimerService_EnterCritical,%function
	.code	16                              @ @TimerService_EnterCritical
	.thumb_func
TimerService_EnterCritical:
.Lfunc_begin3:
	.fnstart
	.cfi_startproc
@ %bb.0:
	.file	3 "D:\\SourceCode\\_Avery_M2003\\M2003BSP_FLASH_EMULATE_EEPROM\\SampleCode\\Template\\Keil" "../../../Library/CMSIS/Core/Include\\cmsis_armclang.h"
	.loc	3 636 3 prologue_end is_stmt 1  @ ../../../Library/CMSIS/Core/Include\cmsis_armclang.h:636:3
	@APP
	cpsid i
	@NO_APP
.Ltmp49:
	.loc	2 84 1                          @ ../timer_service.c:84:1
	bx	lr
.Ltmp50:
.Lfunc_end3:
	.size	TimerService_EnterCritical, .Lfunc_end3-TimerService_EnterCritical
	.cfi_endproc
	.cantunwind
	.fnend
                                        @ -- End function
	.section	.text.TimerService_ExitCritical,"ax",%progbits
	.p2align	1                               @ -- Begin function TimerService_ExitCritical
	.type	TimerService_ExitCritical,%function
	.code	16                              @ @TimerService_ExitCritical
	.thumb_func
TimerService_ExitCritical:
.Lfunc_begin4:
	.fnstart
	.cfi_startproc
@ %bb.0:
	.loc	3 623 3 prologue_end            @ ../../../Library/CMSIS/Core/Include\cmsis_armclang.h:623:3
	@APP
	cpsie i
	@NO_APP
.Ltmp51:
	.loc	2 89 1                          @ ../timer_service.c:89:1
	bx	lr
.Ltmp52:
.Lfunc_end4:
	.size	TimerService_ExitCritical, .Lfunc_end4-TimerService_ExitCritical
	.cfi_endproc
	.cantunwind
	.fnend
                                        @ -- End function
	.section	.text.TimerService_DispatchQueue,"ax",%progbits
	.hidden	TimerService_DispatchQueue      @ -- Begin function TimerService_DispatchQueue
	.globl	TimerService_DispatchQueue
	.p2align	2
	.type	TimerService_DispatchQueue,%function
	.code	16                              @ @TimerService_DispatchQueue
	.thumb_func
TimerService_DispatchQueue:
.Lfunc_begin5:
	.loc	2 129 0                         @ ../timer_service.c:129:0
	.fnstart
	.cfi_startproc
@ %bb.0:
	.save	{r7, lr}
	push	{r7, lr}
	.cfi_def_cfa_offset 8
	.cfi_offset lr, -4
	.cfi_offset r7, -8
	.pad	#16
	sub	sp, #16
	.cfi_def_cfa_offset 24
.Ltmp53:
	.loc	2 135 5 prologue_end            @ ../timer_service.c:135:5
	b	.LBB5_1
.LBB5_1:                                @ =>This Inner Loop Header: Depth=1
	.loc	2 0 5 is_stmt 0                 @ ../timer_service.c:0:5
	add	r0, sp, #12
	.loc	2 135 12                        @ ../timer_service.c:135:12
	bl	TimerService_DequeueEvent
	.loc	2 135 5                         @ ../timer_service.c:135:5
	cbz	r0, .LBB5_8
	b	.LBB5_2
.LBB5_2:                                @   in Loop: Header=BB5_1 Depth=1
.Ltmp54:
	.loc	2 137 14 is_stmt 1              @ ../timer_service.c:137:14
	ldr	r0, [sp, #12]
	.loc	2 137 23 is_stmt 0              @ ../timer_service.c:137:23
	cmp	r0, #0
	bmi	.LBB5_7
	b	.LBB5_3
.LBB5_3:                                @   in Loop: Header=BB5_1 Depth=1
	.loc	2 137 27                        @ ../timer_service.c:137:27
	ldr	r0, [sp, #12]
.Ltmp55:
	.loc	2 137 13                        @ ../timer_service.c:137:13
	cmp	r0, #15
	bgt	.LBB5_7
	b	.LBB5_4
.LBB5_4:                                @   in Loop: Header=BB5_1 Depth=1
.Ltmp56:
	.loc	2 139 38 is_stmt 1              @ ../timer_service.c:139:38
	ldr	r0, [sp, #12]
	.loc	2 139 18 is_stmt 0              @ ../timer_service.c:139:18
	lsls	r1, r0, #4
	ldr	r0, __arm_cp.5_0
	adds	r0, r0, r1
	.loc	2 139 15                        @ ../timer_service.c:139:15
	str	r0, [sp, #8]
	.loc	2 140 18 is_stmt 1              @ ../timer_service.c:140:18
	ldr	r0, [sp, #8]
	.loc	2 140 21 is_stmt 0              @ ../timer_service.c:140:21
	ldr	r0, [r0, #8]
	.loc	2 140 16                        @ ../timer_service.c:140:16
	str	r0, [sp, #4]
	.loc	2 141 20 is_stmt 1              @ ../timer_service.c:141:20
	ldr	r0, [sp, #8]
	.loc	2 141 23 is_stmt 0              @ ../timer_service.c:141:23
	ldr	r0, [r0, #12]
	.loc	2 141 18                        @ ../timer_service.c:141:18
	str	r0, [sp]
.Ltmp57:
	.loc	2 143 17 is_stmt 1              @ ../timer_service.c:143:17
	ldr	r0, [sp, #4]
.Ltmp58:
	.loc	2 143 17 is_stmt 0              @ ../timer_service.c:143:17
	cbz	r0, .LBB5_6
	b	.LBB5_5
.LBB5_5:                                @   in Loop: Header=BB5_1 Depth=1
.Ltmp59:
	.loc	2 145 17 is_stmt 1              @ ../timer_service.c:145:17
	ldr	r1, [sp, #4]
	.loc	2 145 20 is_stmt 0              @ ../timer_service.c:145:20
	ldr	r0, [sp]
	.loc	2 145 17                        @ ../timer_service.c:145:17
	blx	r1
	.loc	2 146 13 is_stmt 1              @ ../timer_service.c:146:13
	b	.LBB5_6
.Ltmp60:
.LBB5_6:                                @   in Loop: Header=BB5_1 Depth=1
	.loc	2 147 9                         @ ../timer_service.c:147:9
	b	.LBB5_7
.Ltmp61:
.LBB5_7:                                @   in Loop: Header=BB5_1 Depth=1
	.loc	2 135 5                         @ ../timer_service.c:135:5
	b	.LBB5_1
.LBB5_8:
	.loc	2 149 1 epilogue_begin          @ ../timer_service.c:149:1
	add	sp, #16
	pop	{r7, pc}
.Ltmp62:
	.p2align	2
@ %bb.9:
	.loc	2 0 1 is_stmt 0                 @ ../timer_service.c:0:1
__arm_cp.5_0:
	.long	g_TimerService_List
.Lcpi_end4:
	.size	__arm_cp.5_0, .Lcpi_end4-__arm_cp.5_0
.Lfunc_end5:
	.size	TimerService_DispatchQueue, .Lfunc_end5-TimerService_DispatchQueue
	.cfi_endproc
	.cantunwind
	.fnend
                                        @ -- End function
	.section	.text.TimerService_DispatchFlag,"ax",%progbits
	.hidden	TimerService_DispatchFlag       @ -- Begin function TimerService_DispatchFlag
	.globl	TimerService_DispatchFlag
	.p2align	2
	.type	TimerService_DispatchFlag,%function
	.code	16                              @ @TimerService_DispatchFlag
	.thumb_func
TimerService_DispatchFlag:
.Lfunc_begin6:
	.loc	2 169 0 is_stmt 1               @ ../timer_service.c:169:0
	.fnstart
	.cfi_startproc
@ %bb.0:
	.save	{r7, lr}
	push	{r7, lr}
	.cfi_def_cfa_offset 8
	.cfi_offset lr, -4
	.cfi_offset r7, -8
	.pad	#16
	sub	sp, #16
	.cfi_def_cfa_offset 24
	movs	r0, #0
.Ltmp63:
	.loc	2 175 12 prologue_end           @ ../timer_service.c:175:12
	str	r0, [sp, #12]
	.loc	2 175 10 is_stmt 0              @ ../timer_service.c:175:10
	b	.LBB6_1
.LBB6_1:                                @ =>This Inner Loop Header: Depth=1
.Ltmp64:
	.loc	2 175 18                        @ ../timer_service.c:175:18
	ldr	r0, [sp, #12]
.Ltmp65:
	.loc	2 175 5                         @ ../timer_service.c:175:5
	cmp	r0, #15
	bhi	.LBB6_10
	b	.LBB6_2
.LBB6_2:                                @   in Loop: Header=BB6_1 Depth=1
.Ltmp66:
	.loc	2 177 34 is_stmt 1              @ ../timer_service.c:177:34
	ldr	r0, [sp, #12]
	.loc	2 177 14 is_stmt 0              @ ../timer_service.c:177:14
	lsls	r1, r0, #4
	ldr	r0, __arm_cp.6_0
	adds	r0, r0, r1
	.loc	2 177 11                        @ ../timer_service.c:177:11
	str	r0, [sp, #8]
.Ltmp67:
	.loc	2 179 14 is_stmt 1              @ ../timer_service.c:179:14
	ldr	r0, [sp, #8]
	.loc	2 179 17 is_stmt 0              @ ../timer_service.c:179:17
	ldrb	r0, [r0, #5]
	.loc	2 179 42                        @ ../timer_service.c:179:42
	cbnz	r0, .LBB6_8
	b	.LBB6_3
.LBB6_3:                                @   in Loop: Header=BB6_1 Depth=1
	.loc	2 180 14 is_stmt 1              @ ../timer_service.c:180:14
	ldr	r0, [sp, #8]
	.loc	2 180 17 is_stmt 0              @ ../timer_service.c:180:17
	ldrb	r0, [r0, #4]
	.loc	2 180 31                        @ ../timer_service.c:180:31
	cbz	r0, .LBB6_8
	b	.LBB6_4
.LBB6_4:                                @   in Loop: Header=BB6_1 Depth=1
	.loc	2 181 14 is_stmt 1              @ ../timer_service.c:181:14
	ldr	r0, [sp, #8]
	.loc	2 181 17 is_stmt 0              @ ../timer_service.c:181:17
	ldr	r0, [r0, #8]
.Ltmp68:
	.loc	2 179 13 is_stmt 1              @ ../timer_service.c:179:13
	cbz	r0, .LBB6_8
	b	.LBB6_5
.LBB6_5:                                @   in Loop: Header=BB6_1 Depth=1
.Ltmp69:
	.loc	2 183 42                        @ ../timer_service.c:183:42
	ldr	r0, [sp, #8]
	.loc	2 183 17 is_stmt 0              @ ../timer_service.c:183:17
	bl	TimerService_TakePending
.Ltmp70:
	.loc	2 183 17                        @ ../timer_service.c:183:17
	cbz	r0, .LBB6_7
	b	.LBB6_6
.LBB6_6:                                @   in Loop: Header=BB6_1 Depth=1
.Ltmp71:
	.loc	2 185 22 is_stmt 1              @ ../timer_service.c:185:22
	ldr	r0, [sp, #8]
	.loc	2 185 25 is_stmt 0              @ ../timer_service.c:185:25
	ldr	r0, [r0, #8]
	.loc	2 185 20                        @ ../timer_service.c:185:20
	str	r0, [sp, #4]
	.loc	2 186 24 is_stmt 1              @ ../timer_service.c:186:24
	ldr	r0, [sp, #8]
	.loc	2 186 27 is_stmt 0              @ ../timer_service.c:186:27
	ldr	r0, [r0, #12]
	.loc	2 186 22                        @ ../timer_service.c:186:22
	str	r0, [sp]
	.loc	2 187 17 is_stmt 1              @ ../timer_service.c:187:17
	ldr	r1, [sp, #4]
	.loc	2 187 20 is_stmt 0              @ ../timer_service.c:187:20
	ldr	r0, [sp]
	.loc	2 187 17                        @ ../timer_service.c:187:17
	blx	r1
	.loc	2 188 13 is_stmt 1              @ ../timer_service.c:188:13
	b	.LBB6_7
.Ltmp72:
.LBB6_7:                                @   in Loop: Header=BB6_1 Depth=1
	.loc	2 189 9                         @ ../timer_service.c:189:9
	b	.LBB6_8
.Ltmp73:
.LBB6_8:                                @   in Loop: Header=BB6_1 Depth=1
	.loc	2 190 5                         @ ../timer_service.c:190:5
	b	.LBB6_9
.Ltmp74:
.LBB6_9:                                @   in Loop: Header=BB6_1 Depth=1
	.loc	2 175 49                        @ ../timer_service.c:175:49
	ldr	r0, [sp, #12]
	adds	r0, r0, #1
	str	r0, [sp, #12]
	.loc	2 175 5 is_stmt 0               @ ../timer_service.c:175:5
	b	.LBB6_1
.Ltmp75:
.LBB6_10:
	.loc	2 191 1 epilogue_begin is_stmt 1 @ ../timer_service.c:191:1
	add	sp, #16
	pop	{r7, pc}
.Ltmp76:
	.p2align	2
@ %bb.11:
	.loc	2 0 1 is_stmt 0                 @ ../timer_service.c:0:1
__arm_cp.6_0:
	.long	g_TimerService_List
.Lcpi_end5:
	.size	__arm_cp.6_0, .Lcpi_end5-__arm_cp.6_0
.Lfunc_end6:
	.size	TimerService_DispatchFlag, .Lfunc_end6-TimerService_DispatchFlag
	.cfi_endproc
	.cantunwind
	.fnend
                                        @ -- End function
	.section	.text.TimerService_TakePending,"ax",%progbits
	.p2align	1                               @ -- Begin function TimerService_TakePending
	.type	TimerService_TakePending,%function
	.code	16                              @ @TimerService_TakePending
	.thumb_func
TimerService_TakePending:
.Lfunc_begin7:
	.loc	2 152 0 is_stmt 1               @ ../timer_service.c:152:0
	.fnstart
	.cfi_startproc
@ %bb.0:
	.save	{r7, lr}
	push	{r7, lr}
	.cfi_def_cfa_offset 8
	.cfi_offset lr, -4
	.cfi_offset r7, -8
	.pad	#8
	sub	sp, #8
	.cfi_def_cfa_offset 16
	str	r0, [sp, #4]
	mov	r1, sp
	movs	r0, #0
.Ltmp77:
	.loc	2 155 11 prologue_end           @ ../timer_service.c:155:11
	strb	r0, [r1]
	.loc	2 157 5                         @ ../timer_service.c:157:5
	bl	TimerService_EnterCritical
.Ltmp78:
	.loc	2 158 9                         @ ../timer_service.c:158:9
	ldr	r0, [sp, #4]
	.loc	2 158 12 is_stmt 0              @ ../timer_service.c:158:12
	ldrb	r0, [r0, #6]
.Ltmp79:
	.loc	2 158 9                         @ ../timer_service.c:158:9
	cbz	r0, .LBB7_2
	b	.LBB7_1
.LBB7_1:
.Ltmp80:
	.loc	2 160 9 is_stmt 1               @ ../timer_service.c:160:9
	ldr	r1, [sp, #4]
	movs	r0, #0
	.loc	2 160 20 is_stmt 0              @ ../timer_service.c:160:20
	strb	r0, [r1, #6]
	mov	r1, sp
	movs	r0, #1
	.loc	2 161 15 is_stmt 1              @ ../timer_service.c:161:15
	strb	r0, [r1]
	.loc	2 162 5                         @ ../timer_service.c:162:5
	b	.LBB7_2
.Ltmp81:
.LBB7_2:
	.loc	2 163 5                         @ ../timer_service.c:163:5
	bl	TimerService_ExitCritical
	mov	r0, sp
	.loc	2 165 12                        @ ../timer_service.c:165:12
	ldrb	r0, [r0]
	.loc	2 165 5 epilogue_begin is_stmt 0 @ ../timer_service.c:165:5
	add	sp, #8
	pop	{r7, pc}
.Ltmp82:
.Lfunc_end7:
	.size	TimerService_TakePending, .Lfunc_end7-TimerService_TakePending
	.cfi_endproc
	.cantunwind
	.fnend
                                        @ -- End function
	.section	.text.TimerService_Dispatch,"ax",%progbits
	.hidden	TimerService_Dispatch           @ -- Begin function TimerService_Dispatch
	.globl	TimerService_Dispatch
	.p2align	1
	.type	TimerService_Dispatch,%function
	.code	16                              @ @TimerService_Dispatch
	.thumb_func
TimerService_Dispatch:
.Lfunc_begin8:
	.loc	2 195 0 is_stmt 1               @ ../timer_service.c:195:0
	.fnstart
	.cfi_startproc
@ %bb.0:
	.save	{r7, lr}
	push	{r7, lr}
	.cfi_def_cfa_offset 8
	.cfi_offset lr, -4
	.cfi_offset r7, -8
.Ltmp83:
	.loc	2 196 5 prologue_end            @ ../timer_service.c:196:5
	bl	TimerService_DispatchQueue
	.loc	2 197 5                         @ ../timer_service.c:197:5
	bl	TimerService_DispatchFlag
	.loc	2 198 1 epilogue_begin          @ ../timer_service.c:198:1
	pop	{r7, pc}
.Ltmp84:
.Lfunc_end8:
	.size	TimerService_Dispatch, .Lfunc_end8-TimerService_Dispatch
	.cfi_endproc
	.cantunwind
	.fnend
                                        @ -- End function
	.section	.text.TimerService_ChangePeriod,"ax",%progbits
	.hidden	TimerService_ChangePeriod       @ -- Begin function TimerService_ChangePeriod
	.globl	TimerService_ChangePeriod
	.p2align	2
	.type	TimerService_ChangePeriod,%function
	.code	16                              @ @TimerService_ChangePeriod
	.thumb_func
TimerService_ChangePeriod:
.Lfunc_begin9:
	.loc	2 202 0                         @ ../timer_service.c:202:0
	.fnstart
	.cfi_startproc
@ %bb.0:
	.pad	#12
	sub	sp, #12
	.cfi_def_cfa_offset 12
                                        @ kill: def $r2 killed $r1
	str	r0, [sp, #8]
	add	r0, sp, #4
	strh	r1, [r0]
.Ltmp85:
	.loc	2 205 9 prologue_end            @ ../timer_service.c:205:9
	ldr	r0, [sp, #8]
.Ltmp86:
	.loc	2 205 9 is_stmt 0               @ ../timer_service.c:205:9
	cmp	r0, #16
	blo	.LBB9_2
	b	.LBB9_1
.LBB9_1:
.Ltmp87:
	.loc	2 207 9 is_stmt 1               @ ../timer_service.c:207:9
	b	.LBB9_3
.Ltmp88:
.LBB9_2:
	.loc	2 210 30                        @ ../timer_service.c:210:30
	ldr	r0, [sp, #8]
	.loc	2 210 10 is_stmt 0              @ ../timer_service.c:210:10
	lsls	r1, r0, #4
	ldr	r0, __arm_cp.9_0
	adds	r0, r0, r1
	.loc	2 210 7                         @ ../timer_service.c:210:7
	str	r0, [sp]
	.loc	2 212 20 is_stmt 1              @ ../timer_service.c:212:20
	ldr	r0, [sp, #4]
	.loc	2 212 5 is_stmt 0               @ ../timer_service.c:212:5
	ldr	r1, [sp]
	.loc	2 212 18                        @ ../timer_service.c:212:18
	strh	r0, [r1]
	.loc	2 213 1 is_stmt 1               @ ../timer_service.c:213:1
	b	.LBB9_3
.LBB9_3:
	.loc	2 213 1 epilogue_begin is_stmt 0 @ ../timer_service.c:213:1
	add	sp, #12
	bx	lr
.Ltmp89:
	.p2align	2
@ %bb.4:
	.loc	2 0 1                           @ ../timer_service.c:0:1
__arm_cp.9_0:
	.long	g_TimerService_List
.Lcpi_end6:
	.size	__arm_cp.9_0, .Lcpi_end6-__arm_cp.9_0
.Lfunc_end9:
	.size	TimerService_ChangePeriod, .Lfunc_end9-TimerService_ChangePeriod
	.cfi_endproc
	.cantunwind
	.fnend
                                        @ -- End function
	.section	.text.TimerService_StopTimer,"ax",%progbits
	.hidden	TimerService_StopTimer          @ -- Begin function TimerService_StopTimer
	.globl	TimerService_StopTimer
	.p2align	2
	.type	TimerService_StopTimer,%function
	.code	16                              @ @TimerService_StopTimer
	.thumb_func
TimerService_StopTimer:
.Lfunc_begin10:
	.loc	2 216 0 is_stmt 1               @ ../timer_service.c:216:0
	.fnstart
	.cfi_startproc
@ %bb.0:
	.pad	#8
	sub	sp, #8
	.cfi_def_cfa_offset 8
	str	r0, [sp, #4]
.Ltmp90:
	.loc	2 219 9 prologue_end            @ ../timer_service.c:219:9
	ldr	r0, [sp, #4]
.Ltmp91:
	.loc	2 219 9 is_stmt 0               @ ../timer_service.c:219:9
	cmp	r0, #16
	blo	.LBB10_2
	b	.LBB10_1
.LBB10_1:
.Ltmp92:
	.loc	2 221 9 is_stmt 1               @ ../timer_service.c:221:9
	b	.LBB10_3
.Ltmp93:
.LBB10_2:
	.loc	2 224 30                        @ ../timer_service.c:224:30
	ldr	r0, [sp, #4]
	.loc	2 224 10 is_stmt 0              @ ../timer_service.c:224:10
	lsls	r1, r0, #4
	ldr	r0, __arm_cp.10_0
	adds	r0, r0, r1
	.loc	2 224 7                         @ ../timer_service.c:224:7
	str	r0, [sp]
	.loc	2 226 5 is_stmt 1               @ ../timer_service.c:226:5
	ldr	r1, [sp]
	movs	r0, #0
	.loc	2 226 16 is_stmt 0              @ ../timer_service.c:226:16
	strb	r0, [r1, #4]
	.loc	2 227 5 is_stmt 1               @ ../timer_service.c:227:5
	ldr	r1, [sp]
	.loc	2 227 16 is_stmt 0              @ ../timer_service.c:227:16
	strb	r0, [r1, #6]
	.loc	2 228 1 is_stmt 1               @ ../timer_service.c:228:1
	b	.LBB10_3
.LBB10_3:
	.loc	2 228 1 epilogue_begin is_stmt 0 @ ../timer_service.c:228:1
	add	sp, #8
	bx	lr
.Ltmp94:
	.p2align	2
@ %bb.4:
	.loc	2 0 1                           @ ../timer_service.c:0:1
__arm_cp.10_0:
	.long	g_TimerService_List
.Lcpi_end7:
	.size	__arm_cp.10_0, .Lcpi_end7-__arm_cp.10_0
.Lfunc_end10:
	.size	TimerService_StopTimer, .Lfunc_end10-TimerService_StopTimer
	.cfi_endproc
	.cantunwind
	.fnend
                                        @ -- End function
	.section	.text.TimerService_StartTimer,"ax",%progbits
	.hidden	TimerService_StartTimer         @ -- Begin function TimerService_StartTimer
	.globl	TimerService_StartTimer
	.p2align	2
	.type	TimerService_StartTimer,%function
	.code	16                              @ @TimerService_StartTimer
	.thumb_func
TimerService_StartTimer:
.Lfunc_begin11:
	.loc	2 231 0 is_stmt 1               @ ../timer_service.c:231:0
	.fnstart
	.cfi_startproc
@ %bb.0:
	.pad	#8
	sub	sp, #8
	.cfi_def_cfa_offset 8
	str	r0, [sp, #4]
.Ltmp95:
	.loc	2 234 9 prologue_end            @ ../timer_service.c:234:9
	ldr	r0, [sp, #4]
.Ltmp96:
	.loc	2 234 9 is_stmt 0               @ ../timer_service.c:234:9
	cmp	r0, #16
	blo	.LBB11_2
	b	.LBB11_1
.LBB11_1:
.Ltmp97:
	.loc	2 236 9 is_stmt 1               @ ../timer_service.c:236:9
	b	.LBB11_5
.Ltmp98:
.LBB11_2:
	.loc	2 239 30                        @ ../timer_service.c:239:30
	ldr	r0, [sp, #4]
	.loc	2 239 10 is_stmt 0              @ ../timer_service.c:239:10
	lsls	r1, r0, #4
	ldr	r0, __arm_cp.11_0
	adds	r0, r0, r1
	.loc	2 239 7                         @ ../timer_service.c:239:7
	str	r0, [sp]
.Ltmp99:
	.loc	2 241 9 is_stmt 1               @ ../timer_service.c:241:9
	ldr	r0, [sp]
	.loc	2 241 12 is_stmt 0              @ ../timer_service.c:241:12
	ldr	r0, [r0, #8]
.Ltmp100:
	.loc	2 241 9                         @ ../timer_service.c:241:9
	cbnz	r0, .LBB11_4
	b	.LBB11_3
.LBB11_3:
.Ltmp101:
	.loc	2 243 9 is_stmt 1               @ ../timer_service.c:243:9
	b	.LBB11_5
.Ltmp102:
.LBB11_4:
	.loc	2 246 5                         @ ../timer_service.c:246:5
	ldr	r1, [sp]
	movs	r0, #0
	.loc	2 246 19 is_stmt 0              @ ../timer_service.c:246:19
	strh	r0, [r1, #2]
	.loc	2 247 5 is_stmt 1               @ ../timer_service.c:247:5
	ldr	r1, [sp]
	.loc	2 247 19 is_stmt 0              @ ../timer_service.c:247:19
	strb	r0, [r1, #6]
	.loc	2 248 5 is_stmt 1               @ ../timer_service.c:248:5
	ldr	r1, [sp]
	movs	r0, #1
	.loc	2 248 19 is_stmt 0              @ ../timer_service.c:248:19
	strb	r0, [r1, #4]
	.loc	2 249 1 is_stmt 1               @ ../timer_service.c:249:1
	b	.LBB11_5
.LBB11_5:
	.loc	2 249 1 epilogue_begin is_stmt 0 @ ../timer_service.c:249:1
	add	sp, #8
	bx	lr
.Ltmp103:
	.p2align	2
@ %bb.6:
	.loc	2 0 1                           @ ../timer_service.c:0:1
__arm_cp.11_0:
	.long	g_TimerService_List
.Lcpi_end8:
	.size	__arm_cp.11_0, .Lcpi_end8-__arm_cp.11_0
.Lfunc_end11:
	.size	TimerService_StartTimer, .Lfunc_end11-TimerService_StartTimer
	.cfi_endproc
	.cantunwind
	.fnend
                                        @ -- End function
	.section	.text.TimerService_CreateTimerQueue,"ax",%progbits
	.hidden	TimerService_CreateTimerQueue   @ -- Begin function TimerService_CreateTimerQueue
	.globl	TimerService_CreateTimerQueue
	.p2align	2
	.type	TimerService_CreateTimerQueue,%function
	.code	16                              @ @TimerService_CreateTimerQueue
	.thumb_func
TimerService_CreateTimerQueue:
.Lfunc_begin12:
	.loc	2 255 0 is_stmt 1               @ ../timer_service.c:255:0
	.fnstart
	.cfi_startproc
@ %bb.0:
	.pad	#24
	sub	sp, #24
	.cfi_def_cfa_offset 24
                                        @ kill: def $r3 killed $r0
	add	r3, sp, #16
	strh	r0, [r3]
	str	r1, [sp, #12]
	str	r2, [sp, #8]
	movs	r0, #0
.Ltmp104:
	.loc	2 259 12 prologue_end           @ ../timer_service.c:259:12
	str	r0, [sp, #4]
	.loc	2 259 10 is_stmt 0              @ ../timer_service.c:259:10
	b	.LBB12_1
.LBB12_1:                               @ =>This Inner Loop Header: Depth=1
.Ltmp105:
	.loc	2 259 18                        @ ../timer_service.c:259:18
	ldr	r0, [sp, #4]
.Ltmp106:
	.loc	2 259 5                         @ ../timer_service.c:259:5
	cmp	r0, #15
	bhi	.LBB12_6
	b	.LBB12_2
.LBB12_2:                               @   in Loop: Header=BB12_1 Depth=1
.Ltmp107:
	.loc	2 261 34 is_stmt 1              @ ../timer_service.c:261:34
	ldr	r0, [sp, #4]
	.loc	2 261 14 is_stmt 0              @ ../timer_service.c:261:14
	lsls	r1, r0, #4
	ldr	r0, __arm_cp.12_0
	adds	r0, r0, r1
	.loc	2 261 11                        @ ../timer_service.c:261:11
	str	r0, [sp]
.Ltmp108:
	.loc	2 263 13 is_stmt 1              @ ../timer_service.c:263:13
	ldr	r0, [sp]
	.loc	2 263 16 is_stmt 0              @ ../timer_service.c:263:16
	ldr	r0, [r0, #8]
.Ltmp109:
	.loc	2 263 13                        @ ../timer_service.c:263:13
	cbnz	r0, .LBB12_4
	b	.LBB12_3
.LBB12_3:
.Ltmp110:
	.loc	2 265 29 is_stmt 1              @ ../timer_service.c:265:29
	ldr	r0, [sp, #16]
	.loc	2 265 13 is_stmt 0              @ ../timer_service.c:265:13
	ldr	r1, [sp]
	.loc	2 265 27                        @ ../timer_service.c:265:27
	strh	r0, [r1]
	.loc	2 266 13 is_stmt 1              @ ../timer_service.c:266:13
	ldr	r1, [sp]
	movs	r0, #0
	.loc	2 266 27 is_stmt 0              @ ../timer_service.c:266:27
	strh	r0, [r1, #2]
	.loc	2 267 13 is_stmt 1              @ ../timer_service.c:267:13
	ldr	r1, [sp]
	.loc	2 267 27 is_stmt 0              @ ../timer_service.c:267:27
	strb	r0, [r1, #4]
	.loc	2 268 13 is_stmt 1              @ ../timer_service.c:268:13
	ldr	r2, [sp]
	movs	r1, #1
	.loc	2 268 27 is_stmt 0              @ ../timer_service.c:268:27
	strb	r1, [r2, #5]
	.loc	2 269 13 is_stmt 1              @ ../timer_service.c:269:13
	ldr	r1, [sp]
	.loc	2 269 27 is_stmt 0              @ ../timer_service.c:269:27
	strb	r0, [r1, #6]
	.loc	2 270 13 is_stmt 1              @ ../timer_service.c:270:13
	ldr	r1, [sp]
	.loc	2 270 27 is_stmt 0              @ ../timer_service.c:270:27
	strb	r0, [r1, #7]
	.loc	2 271 29 is_stmt 1              @ ../timer_service.c:271:29
	ldr	r0, [sp, #12]
	.loc	2 271 13 is_stmt 0              @ ../timer_service.c:271:13
	ldr	r1, [sp]
	.loc	2 271 27                        @ ../timer_service.c:271:27
	str	r0, [r1, #8]
	.loc	2 272 29 is_stmt 1              @ ../timer_service.c:272:29
	ldr	r0, [sp, #8]
	.loc	2 272 13 is_stmt 0              @ ../timer_service.c:272:13
	ldr	r1, [sp]
	.loc	2 272 27                        @ ../timer_service.c:272:27
	str	r0, [r1, #12]
	.loc	2 274 25 is_stmt 1              @ ../timer_service.c:274:25
	ldr	r0, [sp, #4]
	.loc	2 274 13 is_stmt 0              @ ../timer_service.c:274:13
	str	r0, [sp, #20]
	b	.LBB12_7
.Ltmp111:
.LBB12_4:                               @   in Loop: Header=BB12_1 Depth=1
	.loc	2 276 5 is_stmt 1               @ ../timer_service.c:276:5
	b	.LBB12_5
.Ltmp112:
.LBB12_5:                               @   in Loop: Header=BB12_1 Depth=1
	.loc	2 259 49                        @ ../timer_service.c:259:49
	ldr	r0, [sp, #4]
	adds	r0, r0, #1
	str	r0, [sp, #4]
	.loc	2 259 5 is_stmt 0               @ ../timer_service.c:259:5
	b	.LBB12_1
.Ltmp113:
.LBB12_6:
	.loc	2 0 5                           @ ../timer_service.c:0:5
	movs	r0, #0
	mvns	r0, r0
	.loc	2 278 5 is_stmt 1               @ ../timer_service.c:278:5
	str	r0, [sp, #20]
	b	.LBB12_7
.LBB12_7:
	.loc	2 279 1                         @ ../timer_service.c:279:1
	ldr	r0, [sp, #20]
	.loc	2 279 1 epilogue_begin is_stmt 0 @ ../timer_service.c:279:1
	add	sp, #24
	bx	lr
.Ltmp114:
	.p2align	2
@ %bb.8:
	.loc	2 0 1                           @ ../timer_service.c:0:1
__arm_cp.12_0:
	.long	g_TimerService_List
.Lcpi_end9:
	.size	__arm_cp.12_0, .Lcpi_end9-__arm_cp.12_0
.Lfunc_end12:
	.size	TimerService_CreateTimerQueue, .Lfunc_end12-TimerService_CreateTimerQueue
	.cfi_endproc
	.cantunwind
	.fnend
                                        @ -- End function
	.section	.text.TimerService_CreateTimerFlag,"ax",%progbits
	.hidden	TimerService_CreateTimerFlag    @ -- Begin function TimerService_CreateTimerFlag
	.globl	TimerService_CreateTimerFlag
	.p2align	2
	.type	TimerService_CreateTimerFlag,%function
	.code	16                              @ @TimerService_CreateTimerFlag
	.thumb_func
TimerService_CreateTimerFlag:
.Lfunc_begin13:
	.loc	2 285 0 is_stmt 1               @ ../timer_service.c:285:0
	.fnstart
	.cfi_startproc
@ %bb.0:
	.pad	#24
	sub	sp, #24
	.cfi_def_cfa_offset 24
                                        @ kill: def $r3 killed $r0
	add	r3, sp, #16
	strh	r0, [r3]
	str	r1, [sp, #12]
	str	r2, [sp, #8]
	movs	r0, #0
.Ltmp115:
	.loc	2 289 12 prologue_end           @ ../timer_service.c:289:12
	str	r0, [sp, #4]
	.loc	2 289 10 is_stmt 0              @ ../timer_service.c:289:10
	b	.LBB13_1
.LBB13_1:                               @ =>This Inner Loop Header: Depth=1
.Ltmp116:
	.loc	2 289 18                        @ ../timer_service.c:289:18
	ldr	r0, [sp, #4]
.Ltmp117:
	.loc	2 289 5                         @ ../timer_service.c:289:5
	cmp	r0, #15
	bhi	.LBB13_6
	b	.LBB13_2
.LBB13_2:                               @   in Loop: Header=BB13_1 Depth=1
.Ltmp118:
	.loc	2 291 34 is_stmt 1              @ ../timer_service.c:291:34
	ldr	r0, [sp, #4]
	.loc	2 291 14 is_stmt 0              @ ../timer_service.c:291:14
	lsls	r1, r0, #4
	ldr	r0, __arm_cp.13_0
	adds	r0, r0, r1
	.loc	2 291 11                        @ ../timer_service.c:291:11
	str	r0, [sp]
.Ltmp119:
	.loc	2 293 13 is_stmt 1              @ ../timer_service.c:293:13
	ldr	r0, [sp]
	.loc	2 293 16 is_stmt 0              @ ../timer_service.c:293:16
	ldr	r0, [r0, #8]
.Ltmp120:
	.loc	2 293 13                        @ ../timer_service.c:293:13
	cbnz	r0, .LBB13_4
	b	.LBB13_3
.LBB13_3:
.Ltmp121:
	.loc	2 295 29 is_stmt 1              @ ../timer_service.c:295:29
	ldr	r0, [sp, #16]
	.loc	2 295 13 is_stmt 0              @ ../timer_service.c:295:13
	ldr	r1, [sp]
	.loc	2 295 27                        @ ../timer_service.c:295:27
	strh	r0, [r1]
	.loc	2 296 13 is_stmt 1              @ ../timer_service.c:296:13
	ldr	r1, [sp]
	movs	r0, #0
	.loc	2 296 27 is_stmt 0              @ ../timer_service.c:296:27
	strh	r0, [r1, #2]
	.loc	2 297 13 is_stmt 1              @ ../timer_service.c:297:13
	ldr	r1, [sp]
	.loc	2 297 27 is_stmt 0              @ ../timer_service.c:297:27
	strb	r0, [r1, #4]
	.loc	2 298 13 is_stmt 1              @ ../timer_service.c:298:13
	ldr	r1, [sp]
	.loc	2 298 27 is_stmt 0              @ ../timer_service.c:298:27
	strb	r0, [r1, #5]
	.loc	2 299 13 is_stmt 1              @ ../timer_service.c:299:13
	ldr	r1, [sp]
	.loc	2 299 27 is_stmt 0              @ ../timer_service.c:299:27
	strb	r0, [r1, #6]
	.loc	2 300 13 is_stmt 1              @ ../timer_service.c:300:13
	ldr	r1, [sp]
	.loc	2 300 27 is_stmt 0              @ ../timer_service.c:300:27
	strb	r0, [r1, #7]
	.loc	2 301 29 is_stmt 1              @ ../timer_service.c:301:29
	ldr	r0, [sp, #12]
	.loc	2 301 13 is_stmt 0              @ ../timer_service.c:301:13
	ldr	r1, [sp]
	.loc	2 301 27                        @ ../timer_service.c:301:27
	str	r0, [r1, #8]
	.loc	2 302 29 is_stmt 1              @ ../timer_service.c:302:29
	ldr	r0, [sp, #8]
	.loc	2 302 13 is_stmt 0              @ ../timer_service.c:302:13
	ldr	r1, [sp]
	.loc	2 302 27                        @ ../timer_service.c:302:27
	str	r0, [r1, #12]
	.loc	2 304 25 is_stmt 1              @ ../timer_service.c:304:25
	ldr	r0, [sp, #4]
	.loc	2 304 13 is_stmt 0              @ ../timer_service.c:304:13
	str	r0, [sp, #20]
	b	.LBB13_7
.Ltmp122:
.LBB13_4:                               @   in Loop: Header=BB13_1 Depth=1
	.loc	2 306 5 is_stmt 1               @ ../timer_service.c:306:5
	b	.LBB13_5
.Ltmp123:
.LBB13_5:                               @   in Loop: Header=BB13_1 Depth=1
	.loc	2 289 49                        @ ../timer_service.c:289:49
	ldr	r0, [sp, #4]
	adds	r0, r0, #1
	str	r0, [sp, #4]
	.loc	2 289 5 is_stmt 0               @ ../timer_service.c:289:5
	b	.LBB13_1
.Ltmp124:
.LBB13_6:
	.loc	2 0 5                           @ ../timer_service.c:0:5
	movs	r0, #0
	mvns	r0, r0
	.loc	2 308 5 is_stmt 1               @ ../timer_service.c:308:5
	str	r0, [sp, #20]
	b	.LBB13_7
.LBB13_7:
	.loc	2 309 1                         @ ../timer_service.c:309:1
	ldr	r0, [sp, #20]
	.loc	2 309 1 epilogue_begin is_stmt 0 @ ../timer_service.c:309:1
	add	sp, #24
	bx	lr
.Ltmp125:
	.p2align	2
@ %bb.8:
	.loc	2 0 1                           @ ../timer_service.c:0:1
__arm_cp.13_0:
	.long	g_TimerService_List
.Lcpi_end10:
	.size	__arm_cp.13_0, .Lcpi_end10-__arm_cp.13_0
.Lfunc_end13:
	.size	TimerService_CreateTimerFlag, .Lfunc_end13-TimerService_CreateTimerFlag
	.cfi_endproc
	.cantunwind
	.fnend
                                        @ -- End function
	.section	.text.TimerService_CreateTimer,"ax",%progbits
	.hidden	TimerService_CreateTimer        @ -- Begin function TimerService_CreateTimer
	.globl	TimerService_CreateTimer
	.p2align	1
	.type	TimerService_CreateTimer,%function
	.code	16                              @ @TimerService_CreateTimer
	.thumb_func
TimerService_CreateTimer:
.Lfunc_begin14:
	.loc	2 315 0 is_stmt 1               @ ../timer_service.c:315:0
	.fnstart
	.cfi_startproc
@ %bb.0:
	.save	{r7, lr}
	push	{r7, lr}
	.cfi_def_cfa_offset 8
	.cfi_offset lr, -4
	.cfi_offset r7, -8
	.pad	#16
	sub	sp, #16
	.cfi_def_cfa_offset 24
	mov	r3, r0
                                        @ kill: def $r0 killed $r3
	add	r0, sp, #12
	strh	r3, [r0]
	str	r1, [sp, #8]
	str	r2, [sp, #4]
.Ltmp126:
	.loc	2 316 42 prologue_end           @ ../timer_service.c:316:42
	ldrh	r0, [r0]
	.loc	2 316 53 is_stmt 0              @ ../timer_service.c:316:53
	ldr	r1, [sp, #8]
	.loc	2 316 57                        @ ../timer_service.c:316:57
	ldr	r2, [sp, #4]
	.loc	2 316 12                        @ ../timer_service.c:316:12
	bl	TimerService_CreateTimerQueue
	.loc	2 316 5 epilogue_begin          @ ../timer_service.c:316:5
	add	sp, #16
	pop	{r7, pc}
.Ltmp127:
.Lfunc_end14:
	.size	TimerService_CreateTimer, .Lfunc_end14-TimerService_CreateTimer
	.cfi_endproc
	.cantunwind
	.fnend
                                        @ -- End function
	.section	.text.TimerService_Init,"ax",%progbits
	.hidden	TimerService_Init               @ -- Begin function TimerService_Init
	.globl	TimerService_Init
	.p2align	2
	.type	TimerService_Init,%function
	.code	16                              @ @TimerService_Init
	.thumb_func
TimerService_Init:
.Lfunc_begin15:
	.loc	2 320 0 is_stmt 1               @ ../timer_service.c:320:0
	.fnstart
	.cfi_startproc
@ %bb.0:
	.pad	#12
	sub	sp, #12
	.cfi_def_cfa_offset 12
.Ltmp128:
	.loc	2 326 7 prologue_end            @ ../timer_service.c:326:7
	ldr	r0, __arm_cp.15_0
	str	r0, [sp]
	.loc	2 327 5                         @ ../timer_service.c:327:5
	ldr	r1, [sp]
	movs	r0, #0
	.loc	2 327 17 is_stmt 0              @ ../timer_service.c:327:17
	strb	r0, [r1]
	.loc	2 328 5 is_stmt 1               @ ../timer_service.c:328:5
	ldr	r1, [sp]
	.loc	2 328 17 is_stmt 0              @ ../timer_service.c:328:17
	strb	r0, [r1, #1]
.Ltmp129:
	.loc	2 331 12 is_stmt 1              @ ../timer_service.c:331:12
	str	r0, [sp, #8]
	.loc	2 331 10 is_stmt 0              @ ../timer_service.c:331:10
	b	.LBB15_1
.LBB15_1:                               @ =>This Inner Loop Header: Depth=1
.Ltmp130:
	.loc	2 331 18                        @ ../timer_service.c:331:18
	ldr	r0, [sp, #8]
.Ltmp131:
	.loc	2 331 5                         @ ../timer_service.c:331:5
	cmp	r0, #15
	bhi	.LBB15_4
	b	.LBB15_2
.LBB15_2:                               @   in Loop: Header=BB15_1 Depth=1
.Ltmp132:
	.loc	2 333 34 is_stmt 1              @ ../timer_service.c:333:34
	ldr	r0, [sp, #8]
	.loc	2 333 14 is_stmt 0              @ ../timer_service.c:333:14
	lsls	r1, r0, #4
	ldr	r0, __arm_cp.15_1
	adds	r0, r0, r1
	.loc	2 333 11                        @ ../timer_service.c:333:11
	str	r0, [sp, #4]
	.loc	2 335 9 is_stmt 1               @ ../timer_service.c:335:9
	ldr	r1, [sp, #4]
	movs	r0, #0
	.loc	2 335 23 is_stmt 0              @ ../timer_service.c:335:23
	strh	r0, [r1]
	.loc	2 336 9 is_stmt 1               @ ../timer_service.c:336:9
	ldr	r1, [sp, #4]
	.loc	2 336 23 is_stmt 0              @ ../timer_service.c:336:23
	strh	r0, [r1, #2]
	.loc	2 337 9 is_stmt 1               @ ../timer_service.c:337:9
	ldr	r1, [sp, #4]
	.loc	2 337 23 is_stmt 0              @ ../timer_service.c:337:23
	strb	r0, [r1, #4]
	.loc	2 338 9 is_stmt 1               @ ../timer_service.c:338:9
	ldr	r2, [sp, #4]
	movs	r1, #1
	.loc	2 338 23 is_stmt 0              @ ../timer_service.c:338:23
	strb	r1, [r2, #5]
	.loc	2 339 9 is_stmt 1               @ ../timer_service.c:339:9
	ldr	r1, [sp, #4]
	.loc	2 339 23 is_stmt 0              @ ../timer_service.c:339:23
	strb	r0, [r1, #6]
	.loc	2 340 9 is_stmt 1               @ ../timer_service.c:340:9
	ldr	r1, [sp, #4]
	.loc	2 340 23 is_stmt 0              @ ../timer_service.c:340:23
	strb	r0, [r1, #7]
	.loc	2 341 9 is_stmt 1               @ ../timer_service.c:341:9
	ldr	r1, [sp, #4]
	.loc	2 341 23 is_stmt 0              @ ../timer_service.c:341:23
	str	r0, [r1, #8]
	.loc	2 342 9 is_stmt 1               @ ../timer_service.c:342:9
	ldr	r1, [sp, #4]
	.loc	2 342 23 is_stmt 0              @ ../timer_service.c:342:23
	str	r0, [r1, #12]
	.loc	2 343 5 is_stmt 1               @ ../timer_service.c:343:5
	b	.LBB15_3
.Ltmp133:
.LBB15_3:                               @   in Loop: Header=BB15_1 Depth=1
	.loc	2 331 49                        @ ../timer_service.c:331:49
	ldr	r0, [sp, #8]
	adds	r0, r0, #1
	str	r0, [sp, #8]
	.loc	2 331 5 is_stmt 0               @ ../timer_service.c:331:5
	b	.LBB15_1
.Ltmp134:
.LBB15_4:
	.loc	2 344 1 epilogue_begin is_stmt 1 @ ../timer_service.c:344:1
	add	sp, #12
	bx	lr
.Ltmp135:
	.p2align	2
@ %bb.5:
	.loc	2 0 1 is_stmt 0                 @ ../timer_service.c:0:1
__arm_cp.15_0:
	.long	g_TimerEventQueue
.Lcpi_end11:
	.size	__arm_cp.15_0, .Lcpi_end11-__arm_cp.15_0
__arm_cp.15_1:
	.long	g_TimerService_List
.Lcpi_end12:
	.size	__arm_cp.15_1, .Lcpi_end12-__arm_cp.15_1
.Lfunc_end15:
	.size	TimerService_Init, .Lfunc_end15-TimerService_Init
	.cfi_endproc
	.cantunwind
	.fnend
                                        @ -- End function
	.hidden	g_TimerService_List             @ @g_TimerService_List
	.type	g_TimerService_List,%object
	.section	.bss.g_TimerService_List,"aw",%nobits
	.globl	g_TimerService_List
	.p2align	2, 0x0
g_TimerService_List:
	.zero	256
	.size	g_TimerService_List, 256

	.hidden	g_TimerEventQueue               @ @g_TimerEventQueue
	.type	g_TimerEventQueue,%object
	.section	.bss.g_TimerEventQueue,"aw",%nobits
	.globl	g_TimerEventQueue
	.p2align	2, 0x0
g_TimerEventQueue:
	.zero	68
	.size	g_TimerEventQueue, 68

	.file	4 "C:\\Keil_v5\\ARM\\ARMCLANG\\bin\\..\\include" "stdint.h"
	.section	".note.GNU-stack","",%progbits
	.eabi_attribute	30, 6	@ Tag_ABI_optimization_goals
	.ARM_attribute	16, 1	@ Tag_AV_eba