	.text
	.syntax unified
	.eabi_attribute	67, "2.09"	@ Tag_conformance
	.cpu	cortex-m23
	.eabi_attribute	6, 16	@ Tag_CPU_arch
	.eabi_attribute	7, 77	@ Tag_CPU_arch_profile
	.eabi_attribute	8, 0	@ Tag_ARM_ISA_use
	.eabi_attribute	9, 3	@ Tag_THUMB_ISA_use
	.eabi_attribute	34, 0	@ Tag_CPU_unaligned_access
	.eabi_attribute	17, 1	@ Tag_ABI_PCS_GOT_use
	.eabi_attribute	20, 2	@ Tag_ABI_FP_denormal
	.eabi_attribute	21, 0	@ Tag_ABI_FP_exceptions
	.eabi_attribute	23, 1	@ Tag_ABI_FP_number_model
	.eabi_attribute	24, 1	@ Tag_ABI_align_needed
	.eabi_attribute	25, 1	@ Tag_ABI_align_preserved
	.eabi_attribute	38, 1	@ Tag_ABI_FP_16bit_format
	.eabi_attribute	18, 2	@ Tag_ABI_PCS_wchar_t
	.eabi_attribute	26, 1	@ Tag_ABI_enum_size
	.eabi_attribute	14, 0	@ Tag_ABI_PCS_R9_use
	.file	"timer.c"
	.file	1 "C:\\Keil_v5\\ARM\\ARMCLANG\\bin\\..\\include" "stdint.h"
	.file	2 "D:\\SourceCode\\_Avery_M2003\\M2003BSP_FLASH_EMULATE_EEPROM\\SampleCode\\Template\\Keil" "../../../Library/Device/Nuvoton/M2003/Include\\timer_reg.h"
	.file	3 "D:\\SourceCode\\_Avery_M2003\\M2003BSP_FLASH_EMULATE_EEPROM\\SampleCode\\Template\\Keil" "../../../Library/Device/Nuvoton/M2003/Include\\clk_reg.h"
	.section	.text.TIMER_Open,"ax",%progbits
	.hidden	TIMER_Open                      @ -- Begin function TIMER_Open
	.globl	TIMER_Open
	.p2align	1
	.type	TIMER_Open,%function
	.code	16                              @ @TIMER_Open
	.thumb_func
TIMER_Open:
.Lfunc_begin0:
	.file	4 "D:\\SourceCode\\_Avery_M2003\\M2003BSP_FLASH_EMULATE_EEPROM\\SampleCode\\Template\\Keil" "../../../Library/StdDriver/src/timer.c"
	.loc	4 40 0                          @ ../../../Library/StdDriver/src/timer.c:40:0
	.fnstart
	.cfi_sections .debug_frame
	.cfi_startproc
@ %bb.0:
	.save	{r7, lr}
	push	{r7, lr}
	.cfi_def_cfa_offset 8
	.cfi_offset lr, -4
	.cfi_offset r7, -8
	.pad	#24
	sub	sp, #24
	.cfi_def_cfa_offset 32
	str	r0, [sp, #20]
	str	r1, [sp, #16]
	str	r2, [sp, #12]
.Ltmp0:
	.loc	4 41 44 prologue_end            @ ../../../Library/StdDriver/src/timer.c:41:44
	ldr	r0, [sp, #20]
	.loc	4 41 23 is_stmt 0               @ ../../../Library/StdDriver/src/timer.c:41:23
	bl	TIMER_GetModuleClock
	.loc	4 41 14                         @ ../../../Library/StdDriver/src/timer.c:41:14
	str	r0, [sp, #8]
	movs	r0, #0
	.loc	4 42 14 is_stmt 1               @ ../../../Library/StdDriver/src/timer.c:42:14
	str	r0, [sp, #4]
	.loc	4 42 29 is_stmt 0               @ ../../../Library/StdDriver/src/timer.c:42:29
	str	r0, [sp]
.Ltmp1:
	.loc	4 45 8 is_stmt 1                @ ../../../Library/StdDriver/src/timer.c:45:8
	ldr	r0, [sp, #12]
	.loc	4 45 19 is_stmt 0               @ ../../../Library/StdDriver/src/timer.c:45:19
	ldr	r1, [sp, #8]
	.loc	4 45 26                         @ ../../../Library/StdDriver/src/timer.c:45:26
	lsrs	r1, r1, #1
.Ltmp2:
	.loc	4 45 8                          @ ../../../Library/StdDriver/src/timer.c:45:8
	cmp	r0, r1
	bls	.LBB0_2
	b	.LBB0_1
.LBB0_1:
	.loc	4 0 8                           @ ../../../Library/StdDriver/src/timer.c:0:8
	movs	r0, #2
.Ltmp3:
	.loc	4 47 17 is_stmt 1               @ ../../../Library/StdDriver/src/timer.c:47:17
	str	r0, [sp, #4]
	.loc	4 48 5                          @ ../../../Library/StdDriver/src/timer.c:48:5
	b	.LBB0_5
.Ltmp4:
.LBB0_2:
	.loc	4 51 19                         @ ../../../Library/StdDriver/src/timer.c:51:19
	ldr	r0, [sp, #8]
	.loc	4 51 28 is_stmt 0               @ ../../../Library/StdDriver/src/timer.c:51:28
	ldr	r1, [sp, #12]
	.loc	4 51 26                         @ ../../../Library/StdDriver/src/timer.c:51:26
	udiv	r0, r0, r1
	.loc	4 51 17                         @ ../../../Library/StdDriver/src/timer.c:51:17
	str	r0, [sp, #4]
	add	r0, sp, #4
	.loc	4 52 24 is_stmt 1               @ ../../../Library/StdDriver/src/timer.c:52:24
	ldrb	r0, [r0, #3]
	.loc	4 52 21 is_stmt 0               @ ../../../Library/StdDriver/src/timer.c:52:21
	str	r0, [sp]
.Ltmp5:
	.loc	4 53 13 is_stmt 1               @ ../../../Library/StdDriver/src/timer.c:53:13
	ldr	r0, [sp]
.Ltmp6:
	.loc	4 53 13 is_stmt 0               @ ../../../Library/StdDriver/src/timer.c:53:13
	cbz	r0, .LBB0_4
	b	.LBB0_3
.LBB0_3:
.Ltmp7:
	.loc	4 54 23 is_stmt 1               @ ../../../Library/StdDriver/src/timer.c:54:23
	ldr	r0, [sp, #4]
	.loc	4 54 34 is_stmt 0               @ ../../../Library/StdDriver/src/timer.c:54:34
	ldr	r1, [sp]
	.loc	4 54 46                         @ ../../../Library/StdDriver/src/timer.c:54:46
	adds	r1, r1, #1
	.loc	4 54 31                         @ ../../../Library/StdDriver/src/timer.c:54:31
	udiv	r0, r0, r1
	.loc	4 54 21                         @ ../../../Library/StdDriver/src/timer.c:54:21
	str	r0, [sp, #4]
	.loc	4 54 13                         @ ../../../Library/StdDriver/src/timer.c:54:13
	b	.LBB0_4
.Ltmp8:
.LBB0_4:
	.loc	4 0 13                          @ ../../../Library/StdDriver/src/timer.c:0:13
	b	.LBB0_5
.LBB0_5:
	.loc	4 57 18 is_stmt 1               @ ../../../Library/StdDriver/src/timer.c:57:18
	ldr	r0, [sp, #16]
	.loc	4 57 28 is_stmt 0               @ ../../../Library/StdDriver/src/timer.c:57:28
	ldr	r1, [sp]
	.loc	4 57 26                         @ ../../../Library/StdDriver/src/timer.c:57:26
	orrs	r0, r1
	.loc	4 57 5                          @ ../../../Library/StdDriver/src/timer.c:57:5
	ldr	r1, [sp, #20]
	.loc	4 57 16                         @ ../../../Library/StdDriver/src/timer.c:57:16
	str	r0, [r1]
	.loc	4 58 18 is_stmt 1               @ ../../../Library/StdDriver/src/timer.c:58:18
	ldr	r0, [sp, #4]
	.loc	4 58 5 is_stmt 0                @ ../../../Library/StdDriver/src/timer.c:58:5
	ldr	r1, [sp, #20]
	.loc	4 58 16                         @ ../../../Library/StdDriver/src/timer.c:58:16
	str	r0, [r1, #4]
	.loc	4 60 12 is_stmt 1               @ ../../../Library/StdDriver/src/timer.c:60:12
	ldr	r0, [sp, #8]
	.loc	4 60 22 is_stmt 0               @ ../../../Library/StdDriver/src/timer.c:60:22
	ldr	r2, [sp, #4]
	.loc	4 60 33                         @ ../../../Library/StdDriver/src/timer.c:60:33
	ldr	r1, [sp]
	.loc	4 60 45                         @ ../../../Library/StdDriver/src/timer.c:60:45
	adds	r1, r1, #1
	.loc	4 60 30                         @ ../../../Library/StdDriver/src/timer.c:60:30
	muls	r1, r2, r1
	.loc	4 60 19                         @ ../../../Library/StdDriver/src/timer.c:60:19
	udiv	r0, r0, r1
	.loc	4 60 5 epilogue_begin           @ ../../../Library/StdDriver/src/timer.c:60:5
	add	sp, #24
	pop	{r7, pc}
.Ltmp9:
.Lfunc_end0:
	.size	TIMER_Open, .Lfunc_end0-TIMER_Open
	.cfi_endproc
	.cantunwind
	.fnend
                                        @ -- End function
	.section	.text.TIMER_GetModuleClock,"ax",%progbits
	.hidden	TIMER_GetModuleClock            @ -- Begin function TIMER_GetModuleClock
	.globl	TIMER_GetModuleClock
	.p2align	2
	.type	TIMER_GetModuleClock,%function
	.code	16                              @ @TIMER_GetModuleClock
	.thumb_func
TIMER_GetModuleClock:
.Lfunc_begin1:
	.loc	4 242 0 is_stmt 1               @ ../../../Library/StdDriver/src/timer.c:242:0
	.fnstart
	.cfi_startproc
@ %bb.0:
	.save	{r4, r5, r7, lr}
	push	{r4, r5, r7, lr}
	.cfi_def_cfa_offset 16
	.cfi_offset lr, -4
	.cfi_offset r7, -8
	.cfi_offset r5, -12
	.cfi_offset r4, -16
	.pad	#48
	sub	sp, #48
	.cfi_def_cfa_offset 64
	str	r0, [sp, #44]
.Ltmp10:
	.loc	4 244 20 prologue_end           @ ../../../Library/StdDriver/src/timer.c:244:20
	ldr	r1, __arm_cp.1_0
	add	r0, sp, #4
	ldm	r1!, {r2, r3, r4, r5}
	stm	r0!, {r2, r3, r4, r5}
	ldm	r1!, {r2, r3, r4, r5}
	stm	r0!, {r2, r3, r4, r5}
.Ltmp11:
	.loc	4 246 8                         @ ../../../Library/StdDriver/src/timer.c:246:8
	ldr	r0, [sp, #44]
	ldr	r1, __arm_cp.1_1
.Ltmp12:
	.loc	4 246 8 is_stmt 0               @ ../../../Library/StdDriver/src/timer.c:246:8
	cmp	r0, r1
	bne	.LBB1_2
	b	.LBB1_1
.LBB1_1:
	.loc	4 0 8                           @ ../../../Library/StdDriver/src/timer.c:0:8
	ldr	r0, __arm_cp.1_4
.Ltmp13:
	.loc	4 248 24 is_stmt 1              @ ../../../Library/StdDriver/src/timer.c:248:24
	ldr	r0, [r0]
	movw	r1, #1792
	.loc	4 248 32 is_stmt 0              @ ../../../Library/StdDriver/src/timer.c:248:32
	ands	r0, r1
	.loc	4 248 59                        @ ../../../Library/StdDriver/src/timer.c:248:59
	lsrs	r0, r0, #8
	.loc	4 248 16                        @ ../../../Library/StdDriver/src/timer.c:248:16
	str	r0, [sp, #40]
	.loc	4 249 5 is_stmt 1               @ ../../../Library/StdDriver/src/timer.c:249:5
	b	.LBB1_9
.Ltmp14:
.LBB1_2:
	.loc	4 250 13                        @ ../../../Library/StdDriver/src/timer.c:250:13
	ldr	r0, [sp, #44]
	ldr	r1, __arm_cp.1_2
.Ltmp15:
	.loc	4 250 13 is_stmt 0              @ ../../../Library/StdDriver/src/timer.c:250:13
	cmp	r0, r1
	bne	.LBB1_4
	b	.LBB1_3
.LBB1_3:
	.loc	4 0 13                          @ ../../../Library/StdDriver/src/timer.c:0:13
	ldr	r0, __arm_cp.1_4
.Ltmp16:
	.loc	4 252 24 is_stmt 1              @ ../../../Library/StdDriver/src/timer.c:252:24
	ldr	r0, [r0]
	movw	r1, #28672
	.loc	4 252 32 is_stmt 0              @ ../../../Library/StdDriver/src/timer.c:252:32
	ands	r0, r1
	.loc	4 252 59                        @ ../../../Library/StdDriver/src/timer.c:252:59
	lsrs	r0, r0, #12
	.loc	4 252 16                        @ ../../../Library/StdDriver/src/timer.c:252:16
	str	r0, [sp, #40]
	.loc	4 253 5 is_stmt 1               @ ../../../Library/StdDriver/src/timer.c:253:5
	b	.LBB1_8
.Ltmp17:
.LBB1_4:
	.loc	4 254 13                        @ ../../../Library/StdDriver/src/timer.c:254:13
	ldr	r0, [sp, #44]
	ldr	r1, __arm_cp.1_3
.Ltmp18:
	.loc	4 254 13 is_stmt 0              @ ../../../Library/StdDriver/src/timer.c:254:13
	cmp	r0, r1
	bne	.LBB1_6
	b	.LBB1_5
.LBB1_5:
	.loc	4 0 13                          @ ../../../Library/StdDriver/src/timer.c:0:13
	ldr	r0, __arm_cp.1_4
.Ltmp19:
	.loc	4 256 24 is_stmt 1              @ ../../../Library/StdDriver/src/timer.c:256:24
	ldr	r0, [r0]
	movs	r1, #7
	lsls	r1, r1, #16
	.loc	4 256 32 is_stmt 0              @ ../../../Library/StdDriver/src/timer.c:256:32
	ands	r0, r1
	.loc	4 256 59                        @ ../../../Library/StdDriver/src/timer.c:256:59
	lsrs	r0, r0, #16
	.loc	4 256 16                        @ ../../../Library/StdDriver/src/timer.c:256:16
	str	r0, [sp, #40]
	.loc	4 257 5 is_stmt 1               @ ../../../Library/StdDriver/src/timer.c:257:5
	b	.LBB1_7
.Ltmp20:
.LBB1_6:
	.loc	4 0 5 is_stmt 0                 @ ../../../Library/StdDriver/src/timer.c:0:5
	ldr	r0, __arm_cp.1_4
.Ltmp21:
	.loc	4 260 24 is_stmt 1              @ ../../../Library/StdDriver/src/timer.c:260:24
	ldr	r0, [r0]
	movs	r1, #7
	lsls	r1, r1, #20
	.loc	4 260 32 is_stmt 0              @ ../../../Library/StdDriver/src/timer.c:260:32
	ands	r0, r1
	.loc	4 260 59                        @ ../../../Library/StdDriver/src/timer.c:260:59
	lsrs	r0, r0, #20
	.loc	4 260 16                        @ ../../../Library/StdDriver/src/timer.c:260:16
	str	r0, [sp, #40]
	b	.LBB1_7
.Ltmp22:
.LBB1_7:
	.loc	4 0 16                          @ ../../../Library/StdDriver/src/timer.c:0:16
	b	.LBB1_8
.LBB1_8:
	b	.LBB1_9
.LBB1_9:
.Ltmp23:
	.loc	4 263 8 is_stmt 1               @ ../../../Library/StdDriver/src/timer.c:263:8
	ldr	r0, [sp, #40]
.Ltmp24:
	.loc	4 263 8 is_stmt 0               @ ../../../Library/StdDriver/src/timer.c:263:8
	cmp	r0, #2
	bne	.LBB1_15
	b	.LBB1_10
.LBB1_10:
.Ltmp25:
	.loc	4 265 13 is_stmt 1              @ ../../../Library/StdDriver/src/timer.c:265:13
	ldr	r0, [sp, #44]
	ldr	r1, __arm_cp.1_1
	.loc	4 265 30 is_stmt 0              @ ../../../Library/StdDriver/src/timer.c:265:30
	cmp	r0, r1
	beq	.LBB1_12
	b	.LBB1_11
.LBB1_11:
	.loc	4 265 34                        @ ../../../Library/StdDriver/src/timer.c:265:34
	ldr	r0, [sp, #44]
	ldr	r1, __arm_cp.1_2
.Ltmp26:
	.loc	4 265 12                        @ ../../../Library/StdDriver/src/timer.c:265:12
	cmp	r0, r1
	bne	.LBB1_13
	b	.LBB1_12
.LBB1_12:
.Ltmp27:
	.loc	4 267 22 is_stmt 1              @ ../../../Library/StdDriver/src/timer.c:267:22
	bl	CLK_GetPCLK0Freq
	.loc	4 267 20 is_stmt 0              @ ../../../Library/StdDriver/src/timer.c:267:20
	str	r0, [sp, #36]
	.loc	4 268 9 is_stmt 1               @ ../../../Library/StdDriver/src/timer.c:268:9
	b	.LBB1_14
.Ltmp28:
.LBB1_13:
	.loc	4 271 22                        @ ../../../Library/StdDriver/src/timer.c:271:22
	bl	CLK_GetPCLK1Freq
	.loc	4 271 20 is_stmt 0              @ ../../../Library/StdDriver/src/timer.c:271:20
	str	r0, [sp, #36]
	b	.LBB1_14
.Ltmp29:
.LBB1_14:
	.loc	4 273 5 is_stmt 1               @ ../../../Library/StdDriver/src/timer.c:273:5
	b	.LBB1_16
.Ltmp30:
.LBB1_15:
	.loc	4 276 26                        @ ../../../Library/StdDriver/src/timer.c:276:26
	ldr	r0, [sp, #40]
	.loc	4 276 18 is_stmt 0              @ ../../../Library/StdDriver/src/timer.c:276:18
	lsls	r1, r0, #2
	add	r0, sp, #4
	ldr	r0, [r0, r1]
	.loc	4 276 16                        @ ../../../Library/StdDriver/src/timer.c:276:16
	str	r0, [sp, #36]
	b	.LBB1_16
.Ltmp31:
.LBB1_16:
	.loc	4 279 12 is_stmt 1              @ ../../../Library/StdDriver/src/timer.c:279:12
	ldr	r0, [sp, #36]
	.loc	4 279 5 epilogue_begin is_stmt 0 @ ../../../Library/StdDriver/src/timer.c:279:5
	add	sp, #48
	pop	{r4, r5, r7, pc}
.Ltmp32:
	.p2align	2
@ %bb.17:
	.loc	4 0 5                           @ ../../../Library/StdDriver/src/timer.c:0:5
__arm_cp.1_0:
	.long	.L__const.TIMER_GetModuleClock.au32Clk
.Lcpi_end0:
	.size	__arm_cp.1_0, .Lcpi_end0-__arm_cp.1_0
__arm_cp.1_1:
	.long	1074069504                      @ 0x40050000
.Lcpi_end1:
	.size	__arm_cp.1_1, .Lcpi_end1-__arm_cp.1_1
__arm_cp.1_2:
	.long	1074069760                      @ 0x40050100
.Lcpi_end2:
	.size	__arm_cp.1_2, .Lcpi_end2-__arm_cp.1_2
__arm_cp.1_3:
	.long	1074073600                      @ 0x40051000
.Lcpi_end3:
	.size	__arm_cp.1_3, .Lcpi_end3-__arm_cp.1_3
__arm_cp.1_4:
	.long	1073742356                      @ 0x40000214
.Lcpi_end4:
	.size	__arm_cp.1_4, .Lcpi_end4-__arm_cp.1_4
.Lfunc_end1:
	.size	TIMER_GetModuleClock, .Lfunc_end1-TIMER_GetModuleClock
	.cfi_endproc
	.cantunwind
	.fnend
                                        @ -- End function
	.section	.text.TIMER_Close,"ax",%progbits
	.hidden	TIMER_Close                     @ -- Begin function TIMER_Close
	.globl	TIMER_Close
	.p2align	1
	.type	TIMER_Close,%function
	.code	16                              @ @TIMER_Close
	.thumb_func
TIMER_Close:
.Lfunc_begin2:
	.loc	4 70 0 is_stmt 1                @ ../../../Library/StdDriver/src/timer.c:70:0
	.fnstart
	.cfi_startproc
@ %bb.0:
	.pad	#4
	sub	sp, #4
	.cfi_def_cfa_offset 4
	str	r0, [sp]
.Ltmp33:
	.loc	4 71 5 prologue_end             @ ../../../Library/StdDriver/src/timer.c:71:5
	ldr	r1, [sp]
	movs	r0, #0
	.loc	4 71 16 is_stmt 0               @ ../../../Library/StdDriver/src/timer.c:71:16
	str	r0, [r1]
	.loc	4 72 5 is_stmt 1                @ ../../../Library/StdDriver/src/timer.c:72:5
	ldr	r1, [sp]
	.loc	4 72 19 is_stmt 0               @ ../../../Library/StdDriver/src/timer.c:72:19
	str	r0, [r1, #20]
	.loc	4 73 1 epilogue_begin is_stmt 1 @ ../../../Library/StdDriver/src/timer.c:73:1
	add	sp, #4
	bx	lr
.Ltmp34:
.Lfunc_end2:
	.size	TIMER_Close, .Lfunc_end2-TIMER_Close
	.cfi_endproc
	.cantunwind
	.fnend
                                        @ -- End function
	.section	.text.TIMER_Delay,"ax",%progbits
	.hidden	TIMER_Delay                     @ -- Begin function TIMER_Delay
	.globl	TIMER_Delay
	.p2align	2
	.type	TIMER_Delay,%function
	.code	16                              @ @TIMER_Delay
	.thumb_func
TIMER_Delay:
.Lfunc_begin3:
	.loc	4 89 0                          @ ../../../Library/StdDriver/src/timer.c:89:0
	.fnstart
	.cfi_startproc
@ %bb.0:
	.save	{r7, lr}
	push	{r7, lr}
	.cfi_def_cfa_offset 8
	.cfi_offset lr, -4
	.cfi_offset r7, -8
	.pad	#48
	sub	sp, #48
	.cfi_def_cfa_offset 56
	str	r0, [sp, #40]
	str	r1, [sp, #36]
.Ltmp35:
	.loc	4 90 44 prologue_end            @ ../../../Library/StdDriver/src/timer.c:90:44
	ldr	r0, [sp, #40]
	.loc	4 90 23 is_stmt 0               @ ../../../Library/StdDriver/src/timer.c:90:23
	bl	TIMER_GetModuleClock
	.loc	4 90 14                         @ ../../../Library/StdDriver/src/timer.c:90:14
	str	r0, [sp, #32]
	movs	r0, #0
	.loc	4 91 14 is_stmt 1               @ ../../../Library/StdDriver/src/timer.c:91:14
	str	r0, [sp, #28]
	.loc	4 91 42 is_stmt 0               @ ../../../Library/StdDriver/src/timer.c:91:42
	ldr	r1, __arm_cp.3_0
	ldr	r1, [r1]
	.loc	4 91 60                         @ ../../../Library/StdDriver/src/timer.c:91:60
	ldr	r2, [sp, #32]
	.loc	4 91 58                         @ ../../../Library/StdDriver/src/timer.c:91:58
	udiv	r1, r1, r2
	.loc	4 91 68                         @ ../../../Library/StdDriver/src/timer.c:91:68
	adds	r1, r1, #1
	.loc	4 91 33                         @ ../../../Library/StdDriver/src/timer.c:91:33
	str	r1, [sp, #24]
	.loc	4 93 33 is_stmt 1               @ ../../../Library/StdDriver/src/timer.c:93:33
	str	r0, [sp, #4]
	.loc	4 96 5                          @ ../../../Library/StdDriver/src/timer.c:96:5
	ldr	r1, [sp, #40]
	.loc	4 96 16 is_stmt 0               @ ../../../Library/StdDriver/src/timer.c:96:16
	str	r0, [r1]
	.loc	4 97 5 is_stmt 1                @ ../../../Library/StdDriver/src/timer.c:97:5
	ldr	r1, [sp, #40]
	.loc	4 97 19 is_stmt 0               @ ../../../Library/StdDriver/src/timer.c:97:19
	str	r0, [r1, #20]
.Ltmp36:
	.loc	4 99 8 is_stmt 1                @ ../../../Library/StdDriver/src/timer.c:99:8
	ldr	r0, [sp, #32]
	ldr	r1, __arm_cp.3_1
.Ltmp37:
	.loc	4 99 8 is_stmt 0                @ ../../../Library/StdDriver/src/timer.c:99:8
	cmp	r0, r1
	bhi	.LBB3_6
	b	.LBB3_1
.LBB3_1:
.Ltmp38:
	.loc	4 101 12 is_stmt 1              @ ../../../Library/StdDriver/src/timer.c:101:12
	ldr	r0, [sp, #36]
.Ltmp39:
	.loc	4 101 12 is_stmt 0              @ ../../../Library/StdDriver/src/timer.c:101:12
	lsrs	r0, r0, #3
	cmp	r0, #124
	bhi	.LBB3_3
	b	.LBB3_2
.LBB3_2:
	.loc	4 0 12                          @ ../../../Library/StdDriver/src/timer.c:0:12
	movw	r0, #1000
.Ltmp40:
	.loc	4 103 21 is_stmt 1              @ ../../../Library/StdDriver/src/timer.c:103:21
	str	r0, [sp, #36]
	.loc	4 104 9                         @ ../../../Library/StdDriver/src/timer.c:104:9
	b	.LBB3_3
.Ltmp41:
.LBB3_3:
	.loc	4 105 12                        @ ../../../Library/StdDriver/src/timer.c:105:12
	ldr	r0, [sp, #36]
	ldr	r1, __arm_cp.3_2
.Ltmp42:
	.loc	4 105 12 is_stmt 0              @ ../../../Library/StdDriver/src/timer.c:105:12
	cmp	r0, r1
	blo	.LBB3_5
	b	.LBB3_4
.LBB3_4:
	.loc	4 0 12                          @ ../../../Library/StdDriver/src/timer.c:0:12
	ldr	r0, __arm_cp.3_1
.Ltmp43:
	.loc	4 107 21 is_stmt 1              @ ../../../Library/StdDriver/src/timer.c:107:21
	str	r0, [sp, #36]
	.loc	4 108 9                         @ ../../../Library/StdDriver/src/timer.c:108:9
	b	.LBB3_5
.Ltmp44:
.LBB3_5:
	.loc	4 109 5                         @ ../../../Library/StdDriver/src/timer.c:109:5
	b	.LBB3_11
.Ltmp45:
.LBB3_6:
	.loc	4 112 12                        @ ../../../Library/StdDriver/src/timer.c:112:12
	ldr	r0, [sp, #36]
.Ltmp46:
	.loc	4 112 12 is_stmt 0              @ ../../../Library/StdDriver/src/timer.c:112:12
	cmp	r0, #99
	bhi	.LBB3_8
	b	.LBB3_7
.LBB3_7:
	.loc	4 0 12                          @ ../../../Library/StdDriver/src/timer.c:0:12
	movs	r0, #100
.Ltmp47:
	.loc	4 114 21 is_stmt 1              @ ../../../Library/StdDriver/src/timer.c:114:21
	str	r0, [sp, #36]
	.loc	4 115 9                         @ ../../../Library/StdDriver/src/timer.c:115:9
	b	.LBB3_8
.Ltmp48:
.LBB3_8:
	.loc	4 116 12                        @ ../../../Library/StdDriver/src/timer.c:116:12
	ldr	r0, [sp, #36]
	ldr	r1, __arm_cp.3_2
.Ltmp49:
	.loc	4 116 12 is_stmt 0              @ ../../../Library/StdDriver/src/timer.c:116:12
	cmp	r0, r1
	blo	.LBB3_10
	b	.LBB3_9
.LBB3_9:
	.loc	4 0 12                          @ ../../../Library/StdDriver/src/timer.c:0:12
	ldr	r0, __arm_cp.3_1
.Ltmp50:
	.loc	4 118 21 is_stmt 1              @ ../../../Library/StdDriver/src/timer.c:118:21
	str	r0, [sp, #36]
	.loc	4 119 9                         @ ../../../Library/StdDriver/src/timer.c:119:9
	b	.LBB3_10
.Ltmp51:
.LBB3_10:
	.loc	4 0 9 is_stmt 0                 @ ../../../Library/StdDriver/src/timer.c:0:9
	b	.LBB3_11
.LBB3_11:
.Ltmp52:
	.loc	4 122 8 is_stmt 1               @ ../../../Library/StdDriver/src/timer.c:122:8
	ldr	r0, [sp, #32]
	ldr	r1, __arm_cp.3_1
.Ltmp53:
	.loc	4 122 8 is_stmt 0               @ ../../../Library/StdDriver/src/timer.c:122:8
	cmp	r0, r1
	bhi	.LBB3_13
	b	.LBB3_12
.LBB3_12:
	.loc	4 0 8                           @ ../../../Library/StdDriver/src/timer.c:0:8
	movs	r0, #0
.Ltmp54:
	.loc	4 124 21 is_stmt 1              @ ../../../Library/StdDriver/src/timer.c:124:21
	str	r0, [sp, #28]
	.loc	4 125 41                        @ ../../../Library/StdDriver/src/timer.c:125:41
	ldr	r1, [sp, #32]
	ldr	r0, __arm_cp.3_3
	.loc	4 125 39 is_stmt 0              @ ../../../Library/StdDriver/src/timer.c:125:39
	udiv	r0, r0, r1
	.loc	4 125 24                        @ ../../../Library/StdDriver/src/timer.c:125:24
	str	r0, [sp, #16]
	.loc	4 126 20 is_stmt 1              @ ../../../Library/StdDriver/src/timer.c:126:20
	ldr	r1, [sp, #36]
	movw	r0, #1000
	.loc	4 126 28 is_stmt 0              @ ../../../Library/StdDriver/src/timer.c:126:28
	muls	r0, r1, r0
	.loc	4 126 40                        @ ../../../Library/StdDriver/src/timer.c:126:40
	ldr	r1, [sp, #16]
	.loc	4 126 38                        @ ../../../Library/StdDriver/src/timer.c:126:38
	udiv	r0, r0, r1
	.loc	4 126 17                        @ ../../../Library/StdDriver/src/timer.c:126:17
	str	r0, [sp, #20]
	.loc	4 127 5 is_stmt 1               @ ../../../Library/StdDriver/src/timer.c:127:5
	b	.LBB3_16
.Ltmp55:
.LBB3_13:
	.loc	4 130 19                        @ ../../../Library/StdDriver/src/timer.c:130:19
	ldr	r1, [sp, #36]
	.loc	4 130 30 is_stmt 0              @ ../../../Library/StdDriver/src/timer.c:130:30
	ldr	r0, [sp, #32]
	ldr	r2, __arm_cp.3_1
	.loc	4 130 37                        @ ../../../Library/StdDriver/src/timer.c:130:37
	udiv	r0, r0, r2
	.loc	4 130 27                        @ ../../../Library/StdDriver/src/timer.c:130:27
	muls	r0, r1, r0
	.loc	4 130 17                        @ ../../../Library/StdDriver/src/timer.c:130:17
	str	r0, [sp, #20]
	add	r0, sp, #20
	.loc	4 131 24 is_stmt 1              @ ../../../Library/StdDriver/src/timer.c:131:24
	ldrb	r0, [r0, #3]
	.loc	4 131 21 is_stmt 0              @ ../../../Library/StdDriver/src/timer.c:131:21
	str	r0, [sp, #28]
.Ltmp56:
	.loc	4 132 13 is_stmt 1              @ ../../../Library/StdDriver/src/timer.c:132:13
	ldr	r0, [sp, #28]
.Ltmp57:
	.loc	4 132 13 is_stmt 0              @ ../../../Library/StdDriver/src/timer.c:132:13
	cbz	r0, .LBB3_15
	b	.LBB3_14
.LBB3_14:
.Ltmp58:
	.loc	4 133 23 is_stmt 1              @ ../../../Library/StdDriver/src/timer.c:133:23
	ldr	r0, [sp, #20]
	.loc	4 133 34 is_stmt 0              @ ../../../Library/StdDriver/src/timer.c:133:34
	ldr	r1, [sp, #28]
	.loc	4 133 46                        @ ../../../Library/StdDriver/src/timer.c:133:46
	adds	r1, r1, #1
	.loc	4 133 31                        @ ../../../Library/StdDriver/src/timer.c:133:31
	udiv	r0, r0, r1
	.loc	4 133 21                        @ ../../../Library/StdDriver/src/timer.c:133:21
	str	r0, [sp, #20]
	.loc	4 133 13                        @ ../../../Library/StdDriver/src/timer.c:133:13
	b	.LBB3_15
.Ltmp59:
.LBB3_15:
	.loc	4 0 13                          @ ../../../Library/StdDriver/src/timer.c:0:13
	b	.LBB3_16
.LBB3_16:
	.loc	4 136 18 is_stmt 1              @ ../../../Library/StdDriver/src/timer.c:136:18
	ldr	r0, [sp, #20]
	.loc	4 136 5 is_stmt 0               @ ../../../Library/StdDriver/src/timer.c:136:5
	ldr	r1, [sp, #40]
	.loc	4 136 16                        @ ../../../Library/StdDriver/src/timer.c:136:16
	str	r0, [r1, #4]
	.loc	4 137 61 is_stmt 1              @ ../../../Library/StdDriver/src/timer.c:137:61
	ldr	r0, [sp, #28]
	movs	r1, #1
	lsls	r1, r1, #30
	.loc	4 137 59 is_stmt 0              @ ../../../Library/StdDriver/src/timer.c:137:59
	orrs	r0, r1
	.loc	4 137 5                         @ ../../../Library/StdDriver/src/timer.c:137:5
	ldr	r1, [sp, #40]
	.loc	4 137 16                        @ ../../../Library/StdDriver/src/timer.c:137:16
	str	r0, [r1]
	.loc	4 141 5 is_stmt 1               @ ../../../Library/StdDriver/src/timer.c:141:5
	b	.LBB3_17
.LBB3_17:                               @ =>This Inner Loop Header: Depth=1
.Ltmp60:
	.loc	4 141 11 is_stmt 0              @ ../../../Library/StdDriver/src/timer.c:141:11
	ldr	r0, [sp, #24]
.Ltmp61:
	.loc	4 141 5                         @ ../../../Library/StdDriver/src/timer.c:141:5
	cbz	r0, .LBB3_20
	b	.LBB3_18
.LBB3_18:                               @   in Loop: Header=BB3_17 Depth=1
.Ltmp62:
	.loc	4 143 9 is_stmt 1               @ ../../../Library/StdDriver/src/timer.c:143:9
	nop
	.loc	4 144 5                         @ ../../../Library/StdDriver/src/timer.c:144:5
	b	.LBB3_19
.Ltmp63:
.LBB3_19:                               @   in Loop: Header=BB3_17 Depth=1
	.loc	4 141 29                        @ ../../../Library/StdDriver/src/timer.c:141:29
	ldr	r0, [sp, #24]
	subs	r0, r0, #1
	str	r0, [sp, #24]
	.loc	4 141 5 is_stmt 0               @ ../../../Library/StdDriver/src/timer.c:141:5
	b	.LBB3_17
.Ltmp64:
.LBB3_20:
	.loc	4 149 17 is_stmt 1              @ ../../../Library/StdDriver/src/timer.c:149:17
	ldr	r0, __arm_cp.3_0
	ldr	r0, [r0]
	.loc	4 149 56 is_stmt 0              @ ../../../Library/StdDriver/src/timer.c:149:56
	str	r0, [sp]                        @ 4-byte Spill
	ldr	r0, [sp, #40]
	.loc	4 149 35                        @ ../../../Library/StdDriver/src/timer.c:149:35
	bl	TIMER_GetModuleClock
	mov	r1, r0
	.loc	4 149 33                        @ ../../../Library/StdDriver/src/timer.c:149:33
	ldr	r0, [sp]                        @ 4-byte Reload
	udiv	r1, r0, r1
	.loc	4 149 67                        @ ../../../Library/StdDriver/src/timer.c:149:67
	ldr	r0, [sp, #28]
	.loc	4 149 79                        @ ../../../Library/StdDriver/src/timer.c:149:79
	adds	r0, r0, #1
	.loc	4 149 64                        @ ../../../Library/StdDriver/src/timer.c:149:64
	muls	r0, r1, r0
	.loc	4 149 14                        @ ../../../Library/StdDriver/src/timer.c:149:14
	str	r0, [sp, #8]
	.loc	4 150 15 is_stmt 1              @ ../../../Library/StdDriver/src/timer.c:150:15
	ldr	r0, [sp, #40]
	.loc	4 150 22 is_stmt 0              @ ../../../Library/StdDriver/src/timer.c:150:22
	ldr	r0, [r0, #12]
	.loc	4 150 13                        @ ../../../Library/StdDriver/src/timer.c:150:13
	str	r0, [sp, #12]
	movs	r0, #0
	.loc	4 151 7 is_stmt 1               @ ../../../Library/StdDriver/src/timer.c:151:7
	str	r0, [sp, #4]
	.loc	4 152 5                         @ ../../../Library/StdDriver/src/timer.c:152:5
	b	.LBB3_21
.LBB3_21:                               @ =>This Inner Loop Header: Depth=1
	.loc	4 152 11 is_stmt 0              @ ../../../Library/StdDriver/src/timer.c:152:11
	ldr	r0, [sp, #40]
	.loc	4 152 18                        @ ../../../Library/StdDriver/src/timer.c:152:18
	ldr	r0, [r0]
	.loc	4 152 5                         @ ../../../Library/StdDriver/src/timer.c:152:5
	lsls	r0, r0, #6
	cmp	r0, #0
	bpl	.LBB3_28
	b	.LBB3_22
.LBB3_22:                               @   in Loop: Header=BB3_21 Depth=1
.Ltmp65:
	.loc	4 155 12 is_stmt 1              @ ../../../Library/StdDriver/src/timer.c:155:12
	ldr	r0, [sp, #12]
	.loc	4 155 23 is_stmt 0              @ ../../../Library/StdDriver/src/timer.c:155:23
	ldr	r1, [sp, #40]
	.loc	4 155 30                        @ ../../../Library/StdDriver/src/timer.c:155:30
	ldr	r1, [r1, #12]
.Ltmp66:
	.loc	4 155 12                        @ ../../../Library/StdDriver/src/timer.c:155:12
	cmp	r0, r1
	bne	.LBB3_26
	b	.LBB3_23
.LBB3_23:                               @   in Loop: Header=BB3_21 Depth=1
.Ltmp67:
	.loc	4 157 17 is_stmt 1              @ ../../../Library/StdDriver/src/timer.c:157:17
	ldr	r0, [sp, #4]
	adds	r1, r0, #1
	str	r1, [sp, #4]
	.loc	4 157 22 is_stmt 0              @ ../../../Library/StdDriver/src/timer.c:157:22
	ldr	r1, [sp, #8]
.Ltmp68:
	.loc	4 157 16                        @ ../../../Library/StdDriver/src/timer.c:157:16
	cmp	r0, r1
	bls	.LBB3_25
	b	.LBB3_24
.LBB3_24:
	.loc	4 0 16                          @ ../../../Library/StdDriver/src/timer.c:0:16
	movs	r0, #0
	mvns	r0, r0
.Ltmp69:
	.loc	4 159 17 is_stmt 1              @ ../../../Library/StdDriver/src/timer.c:159:17
	str	r0, [sp, #44]
	b	.LBB3_29
.Ltmp70:
.LBB3_25:                               @   in Loop: Header=BB3_21 Depth=1
	.loc	4 161 9                         @ ../../../Library/StdDriver/src/timer.c:161:9
	b	.LBB3_27
.Ltmp71:
.LBB3_26:                               @   in Loop: Header=BB3_21 Depth=1
	.loc	4 0 9 is_stmt 0                 @ ../../../Library/StdDriver/src/timer.c:0:9
	movs	r0, #0
.Ltmp72:
	.loc	4 164 15 is_stmt 1              @ ../../../Library/StdDriver/src/timer.c:164:15
	str	r0, [sp, #4]
	.loc	4 165 23                        @ ../../../Library/StdDriver/src/timer.c:165:23
	ldr	r0, [sp, #40]
	.loc	4 165 30 is_stmt 0              @ ../../../Library/StdDriver/src/timer.c:165:30
	ldr	r0, [r0, #12]
	.loc	4 165 21                        @ ../../../Library/StdDriver/src/timer.c:165:21
	str	r0, [sp, #12]
	b	.LBB3_27
.Ltmp73:
.LBB3_27:                               @   in Loop: Header=BB3_21 Depth=1
	.loc	4 152 5 is_stmt 1               @ ../../../Library/StdDriver/src/timer.c:152:5
	b	.LBB3_21
.LBB3_28:
	.loc	4 0 5 is_stmt 0                 @ ../../../Library/StdDriver/src/timer.c:0:5
	movs	r0, #0
	.loc	4 168 5 is_stmt 1               @ ../../../Library/StdDriver/src/timer.c:168:5
	str	r0, [sp, #44]
	b	.LBB3_29
.LBB3_29:
	.loc	4 169 1                         @ ../../../Library/StdDriver/src/timer.c:169:1
	ldr	r0, [sp, #44]
	.loc	4 169 1 epilogue_begin is_stmt 0 @ ../../../Library/StdDriver/src/timer.c:169:1
	add	sp, #48
	pop	{r7, pc}
.Ltmp74:
	.p2align	2
@ %bb.30:
	.loc	4 0 1                           @ ../../../Library/StdDriver/src/timer.c:0:1
__arm_cp.3_0:
	.long	SystemCoreClock
.Lcpi_end5:
	.size	__arm_cp.3_0, .Lcpi_end5-__arm_cp.3_0
__arm_cp.3_1:
	.long	1000000                         @ 0xf4240
.Lcpi_end6:
	.size	__arm_cp.3_1, .Lcpi_end6-__arm_cp.3_1
__arm_cp.3_2:
	.long	1000001                         @ 0xf4241
.Lcpi_end7:
	.size	__arm_cp.3_2, .Lcpi_end7-__arm_cp.3_2
__arm_cp.3_3:
	.long	1000000000                      @ 0x3b9aca00
.Lcpi_end8:
	.size	__arm_cp.3_3, .Lcpi_end8-__arm_cp.3_3
.Lfunc_end3:
	.size	TIMER_Delay, .Lfunc_end3-TIMER_Delay
	.cfi_endproc
	.cantunwind
	.fnend
                                        @ -- End function
	.section	.text.TIMER_EnableCapture,"ax",%progbits
	.hidden	TIMER_EnableCapture             @ -- Begin function TIMER_EnableCapture
	.globl	TIMER_EnableCapture
	.p2align	2
	.type	TIMER_EnableCapture,%function
	.code	16                              @ @TIMER_EnableCapture
	.thumb_func
TIMER_EnableCapture:
.Lfunc_begin4:
	.loc	4 190 0 is_stmt 1               @ ../../../Library/StdDriver/src/timer.c:190:0
	.fnstart
	.cfi_startproc
@ %bb.0:
	.pad	#12
	sub	sp, #12
	.cfi_def_cfa_offset 12
	str	r0, [sp, #8]
	str	r1, [sp, #4]
	str	r2, [sp]
.Ltmp75:
	.loc	4 191 22 prologue_end           @ ../../../Library/StdDriver/src/timer.c:191:22
	ldr	r0, [sp, #8]
	.loc	4 191 29 is_stmt 0              @ ../../../Library/StdDriver/src/timer.c:191:29
	ldr	r0, [r0, #20]
	ldr	r1, __arm_cp.4_0
	.loc	4 191 36                        @ ../../../Library/StdDriver/src/timer.c:191:36
	ands	r0, r1
	.loc	4 192 21 is_stmt 1              @ ../../../Library/StdDriver/src/timer.c:192:21
	ldr	r1, [sp, #4]
	.loc	4 191 95                        @ ../../../Library/StdDriver/src/timer.c:191:95
	orrs	r0, r1
	.loc	4 192 34                        @ ../../../Library/StdDriver/src/timer.c:192:34
	ldr	r1, [sp]
	.loc	4 192 32 is_stmt 0              @ ../../../Library/StdDriver/src/timer.c:192:32
	orrs	r0, r1
	movs	r1, #8
	.loc	4 192 42                        @ ../../../Library/StdDriver/src/timer.c:192:42
	orrs	r0, r1
	.loc	4 191 5 is_stmt 1               @ ../../../Library/StdDriver/src/timer.c:191:5
	ldr	r1, [sp, #8]
	.loc	4 191 19 is_stmt 0              @ ../../../Library/StdDriver/src/timer.c:191:19
	str	r0, [r1, #20]
	.loc	4 193 1 epilogue_begin is_stmt 1 @ ../../../Library/StdDriver/src/timer.c:193:1
	add	sp, #12
	bx	lr
.Ltmp76:
	.p2align	2
@ %bb.1:
	.loc	4 0 1 is_stmt 0                 @ ../../../Library/StdDriver/src/timer.c:0:1
__arm_cp.4_0:
	.long	4294938599                      @ 0xffff8fe7
.Lcpi_end9:
	.size	__arm_cp.4_0, .Lcpi_end9-__arm_cp.4_0
.Lfunc_end4:
	.size	TIMER_EnableCapture, .Lfunc_end4-TIMER_EnableCapture
	.cfi_endproc
	.cantunwind
	.fnend
                                        @ -- End function
	.section	.text.TIMER_DisableCapture,"ax",%progbits
	.hidden	TIMER_DisableCapture            @ -- Begin function TIMER_DisableCapture
	.globl	TIMER_DisableCapture
	.p2align	1
	.type	TIMER_DisableCapture,%function
	.code	16                              @ @TIMER_DisableCapture
	.thumb_func
TIMER_DisableCapture:
.Lfunc_begin5:
	.loc	4 202 0 is_stmt 1               @ ../../../Library/StdDriver/src/timer.c:202:0
	.fnstart
	.cfi_startproc
@ %bb.0:
	.pad	#4
	sub	sp, #4
	.cfi_def_cfa_offset 4
	str	r0, [sp]
.Ltmp77:
	.loc	4 203 5 prologue_end            @ ../../../Library/StdDriver/src/timer.c:203:5
	ldr	r1, [sp]
	.loc	4 203 19 is_stmt 0              @ ../../../Library/StdDriver/src/timer.c:203:19
	ldr	r0, [r1, #20]
	movs	r2, #8
	bics	r0, r2
	str	r0, [r1, #20]
	.loc	4 204 1 epilogue_begin is_stmt 1 @ ../../../Library/StdDriver/src/timer.c:204:1
	add	sp, #4
	bx	lr
.Ltmp78:
.Lfunc_end5:
	.size	TIMER_DisableCapture, .Lfunc_end5-TIMER_DisableCapture
	.cfi_endproc
	.cantunwind
	.fnend
                                        @ -- End function
	.section	.text.TIMER_EnableEventCounter,"ax",%progbits
	.hidden	TIMER_EnableEventCounter        @ -- Begin function TIMER_EnableEventCounter
	.globl	TIMER_EnableEventCounter
	.p2align	1
	.type	TIMER_EnableEventCounter,%function
	.code	16                              @ @TIMER_EnableEventCounter
	.thumb_func
TIMER_EnableEventCounter:
.Lfunc_begin6:
	.loc	4 218 0                         @ ../../../Library/StdDriver/src/timer.c:218:0
	.fnstart
	.cfi_startproc
@ %bb.0:
	.pad	#8
	sub	sp, #8
	.cfi_def_cfa_offset 8
	str	r0, [sp, #4]
	str	r1, [sp]
.Ltmp79:
	.loc	4 219 22 prologue_end           @ ../../../Library/StdDriver/src/timer.c:219:22
	ldr	r0, [sp, #4]
	.loc	4 219 29 is_stmt 0              @ ../../../Library/StdDriver/src/timer.c:219:29
	ldr	r0, [r0, #20]
	movs	r2, #1
	.loc	4 219 36                        @ ../../../Library/StdDriver/src/timer.c:219:36
	bics	r0, r2
	.loc	4 219 68                        @ ../../../Library/StdDriver/src/timer.c:219:68
	ldr	r1, [sp]
	.loc	4 219 66                        @ ../../../Library/StdDriver/src/timer.c:219:66
	orrs	r0, r1
	.loc	4 219 5                         @ ../../../Library/StdDriver/src/timer.c:219:5
	ldr	r1, [sp, #4]
	.loc	4 219 19                        @ ../../../Library/StdDriver/src/timer.c:219:19
	str	r0, [r1, #20]
	.loc	4 220 5 is_stmt 1               @ ../../../Library/StdDriver/src/timer.c:220:5
	ldr	r1, [sp, #4]
	.loc	4 220 16 is_stmt 0              @ ../../../Library/StdDriver/src/timer.c:220:16
	ldr	r0, [r1]
	lsls	r2, r2, #24
	orrs	r0, r2
	str	r0, [r1]
	.loc	4 221 1 epilogue_begin is_stmt 1 @ ../../../Library/StdDriver/src/timer.c:221:1
	add	sp, #8
	bx	lr
.Ltmp80:
.Lfunc_end6:
	.size	TIMER_EnableEventCounter, .Lfunc_end6-TIMER_EnableEventCounter
	.cfi_endproc
	.cantunwind
	.fnend
                                        @ -- End function
	.section	.text.TIMER_DisableEventCounter,"ax",%progbits
	.hidden	TIMER_DisableEventCounter       @ -- Begin function TIMER_DisableEventCounter
	.globl	TIMER_DisableEventCounter
	.p2align	1
	.type	TIMER_DisableEventCounter,%function
	.code	16                              @ @TIMER_DisableEventCounter
	.thumb_func
TIMER_DisableEventCounter:
.Lfunc_begin7:
	.loc	4 230 0                         @ ../../../Library/StdDriver/src/timer.c:230:0
	.fnstart
	.cfi_startproc
@ %bb.0:
	.pad	#4
	sub	sp, #4
	.cfi_def_cfa_offset 4
	str	r0, [sp]
.Ltmp81:
	.loc	4 231 5 prologue_end            @ ../../../Library/StdDriver/src/timer.c:231:5
	ldr	r1, [sp]
	.loc	4 231 16 is_stmt 0              @ ../../../Library/StdDriver/src/timer.c:231:16
	ldr	r0, [r1]
	movs	r2, #1
	lsls	r2, r2, #24
	bics	r0, r2
	str	r0, [r1]
	.loc	4 232 1 epilogue_begin is_stmt 1 @ ../../../Library/StdDriver/src/timer.c:232:1
	add	sp, #4
	bx	lr
.Ltmp82:
.Lfunc_end7:
	.size	TIMER_DisableEventCounter, .Lfunc_end7-TIMER_DisableEventCounter
	.cfi_endproc
	.cantunwind
	.fnend
                                        @ -- End function
	.section	.text.TIMER_EnableFreqCounter,"ax",%progbits
	.hidden	TIMER_EnableFreqCounter         @ -- Begin function TIMER_EnableFreqCounter
	.globl	TIMER_EnableFreqCounter
	.p2align	2
	.type	TIMER_EnableFreqCounter,%function
	.code	16                              @ @TIMER_EnableFreqCounter
	.thumb_func
TIMER_EnableFreqCounter:
.Lfunc_begin8:
	.loc	4 299 0                         @ ../../../Library/StdDriver/src/timer.c:299:0
	.fnstart
	.cfi_startproc
@ %bb.0:
	.pad	#28
	sub	sp, #28
	.cfi_def_cfa_offset 28
	str	r0, [sp, #24]
	str	r1, [sp, #20]
	str	r2, [sp, #16]
	str	r3, [sp, #12]
.Ltmp83:
	.loc	4 302 10 prologue_end           @ ../../../Library/StdDriver/src/timer.c:302:10
	ldr	r1, [sp, #24]
	ldr	r2, __arm_cp.8_0
	ldr	r0, __arm_cp.8_1
	ldr	r3, __arm_cp.8_2
	.loc	4 302 9 is_stmt 0               @ ../../../Library/StdDriver/src/timer.c:302:9
	str	r3, [sp]                        @ 4-byte Spill
	cmp	r1, r2
	str	r0, [sp, #4]                    @ 4-byte Spill
	beq	.LBB8_2
@ %bb.1:
	.loc	4 0 9                           @ ../../../Library/StdDriver/src/timer.c:0:9
	ldr	r0, [sp]                        @ 4-byte Reload
	str	r0, [sp, #4]                    @ 4-byte Spill
.LBB8_2:
	.loc	4 302 9                         @ ../../../Library/StdDriver/src/timer.c:302:9
	ldr	r0, [sp, #4]                    @ 4-byte Reload
	.loc	4 302 7                         @ ../../../Library/StdDriver/src/timer.c:302:7
	str	r0, [sp, #8]
	.loc	4 304 5 is_stmt 1               @ ../../../Library/StdDriver/src/timer.c:304:5
	ldr	r1, [sp, #8]
	ldr	r0, __arm_cp.8_3
	.loc	4 304 12 is_stmt 0              @ ../../../Library/StdDriver/src/timer.c:304:12
	str	r0, [r1, #4]
	.loc	4 305 17 is_stmt 1              @ ../../../Library/StdDriver/src/timer.c:305:17
	ldr	r0, [sp, #12]
	subs	r1, r0, #1
	sbcs	r0, r1
	lsls	r0, r0, #5
	.loc	4 305 5 is_stmt 0               @ ../../../Library/StdDriver/src/timer.c:305:5
	ldr	r1, [sp, #8]
	.loc	4 305 15                        @ ../../../Library/StdDriver/src/timer.c:305:15
	str	r0, [r1, #20]
	.loc	4 306 5 is_stmt 1               @ ../../../Library/StdDriver/src/timer.c:306:5
	ldr	r1, [sp, #24]
	ldr	r0, __arm_cp.8_4
	.loc	4 306 16 is_stmt 0              @ ../../../Library/StdDriver/src/timer.c:306:16
	str	r0, [r1]
	.loc	4 308 5 epilogue_begin is_stmt 1 @ ../../../Library/StdDriver/src/timer.c:308:5
	add	sp, #28
	bx	lr
.Ltmp84:
	.p2align	2
@ %bb.3:
	.loc	4 0 5 is_stmt 0                 @ ../../../Library/StdDriver/src/timer.c:0:5
__arm_cp.8_0:
	.long	1074069504                      @ 0x40050000
.Lcpi_end10:
	.size	__arm_cp.8_0, .Lcpi_end10-__arm_cp.8_0
__arm_cp.8_1:
	.long	1074069760                      @ 0x40050100
.Lcpi_end11:
	.size	__arm_cp.8_1, .Lcpi_end11-__arm_cp.8_1
__arm_cp.8_2:
	.long	1074073856                      @ 0x40051100
.Lcpi_end12:
	.size	__arm_cp.8_2, .Lcpi_end12-__arm_cp.8_2
__arm_cp.8_3:
	.long	16777215                        @ 0xffffff
.Lcpi_end13:
	.size	__arm_cp.8_3, .Lcpi_end13-__arm_cp.8_3
__arm_cp.8_4:
	.long	1074266112                      @ 0x40080000
.Lcpi_end14:
	.size	__arm_cp.8_4, .Lcpi_end14-__arm_cp.8_4
.Lfunc_end8:
	.size	TIMER_EnableFreqCounter, .Lfunc_end8-TIMER_EnableFreqCounter
	.cfi_endproc
	.cantunwind
	.fnend
                                        @ -- End function
	.section	.text.TIMER_DisableFreqCounter,"ax",%progbits
	.hidden	TIMER_DisableFreqCounter        @ -- Begin function TIMER_DisableFreqCounter
	.globl	TIMER_DisableFreqCounter
	.p2align	1
	.type	TIMER_DisableFreqCounter,%function
	.code	16                              @ @TIMER_DisableFreqCounter
	.thumb_func
TIMER_DisableFreqCounter:
.Lfunc_begin9:
	.loc	4 317 0 is_stmt 1               @ ../../../Library/StdDriver/src/timer.c:317:0
	.fnstart
	.cfi_startproc
@ %bb.0:
	.pad	#4
	sub	sp, #4
	.cfi_def_cfa_offset 4
	str	r0, [sp]
.Ltmp85:
	.loc	4 318 5 prologue_end            @ ../../../Library/StdDriver/src/timer.c:318:5
	ldr	r1, [sp]
	.loc	4 318 16 is_stmt 0              @ ../../../Library/StdDriver/src/timer.c:318:16
	ldr	r0, [r1]
	movs	r2, #1
	lsls	r2, r2, #19
	bics	r0, r2
	str	r0, [r1]
	.loc	4 319 1 epilogue_begin is_stmt 1 @ ../../../Library/StdDriver/src/timer.c:319:1
	add	sp, #4
	bx	lr
.Ltmp86:
.Lfunc_end9:
	.size	TIMER_DisableFreqCounter, .Lfunc_end9-TIMER_DisableFreqCounter
	.cfi_endproc
	.cantunwind
	.fnend
                                        @ -- End function
	.section	.text.TIMER_SetTriggerSource,"ax",%progbits
	.hidden	TIMER_SetTriggerSource          @ -- Begin function TIMER_SetTriggerSource
	.globl	TIMER_SetTriggerSource
	.p2align	1
	.type	TIMER_SetTriggerSource,%function
	.code	16                              @ @TIMER_SetTriggerSource
	.thumb_func
TIMER_SetTriggerSource:
.Lfunc_begin10:
	.loc	4 331 0                         @ ../../../Library/StdDriver/src/timer.c:331:0
	.fnstart
	.cfi_startproc
@ %bb.0:
	.pad	#8
	sub	sp, #8
	.cfi_def_cfa_offset 8
	str	r0, [sp, #4]
	str	r1, [sp]
.Ltmp87:
	.loc	4 332 22 prologue_end           @ ../../../Library/StdDriver/src/timer.c:332:22
	ldr	r0, [sp, #4]
	.loc	4 332 29 is_stmt 0              @ ../../../Library/StdDriver/src/timer.c:332:29
	ldr	r0, [r0, #28]
	movs	r1, #1
	.loc	4 332 36                        @ ../../../Library/StdDriver/src/timer.c:332:36
	bics	r0, r1
	.loc	4 332 67                        @ ../../../Library/StdDriver/src/timer.c:332:67
	ldr	r1, [sp]
	.loc	4 332 65                        @ ../../../Library/StdDriver/src/timer.c:332:65
	orrs	r0, r1
	.loc	4 332 5                         @ ../../../Library/StdDriver/src/timer.c:332:5
	ldr	r1, [sp, #4]
	.loc	4 332 19                        @ ../../../Library/StdDriver/src/timer.c:332:19
	str	r0, [r1, #28]
	.loc	4 333 1 epilogue_begin is_stmt 1 @ ../../../Library/StdDriver/src/timer.c:333:1
	add	sp, #8
	bx	lr
.Ltmp88:
.Lfunc_end10:
	.size	TIMER_SetTriggerSource, .Lfunc_end10-TIMER_SetTriggerSource
	.cfi_endproc
	.cantunwind
	.fnend
                                        @ -- End function
	.section	.text.TIMER_SetTriggerTarget,"ax",%progbits
	.hidden	TIMER_SetTriggerTarget          @ -- Begin function TIMER_SetTriggerTarget
	.globl	TIMER_SetTriggerTarget
	.p2align	1
	.type	TIMER_SetTriggerTarget,%function
	.code	16                              @ @TIMER_SetTriggerTarget
	.thumb_func
TIMER_SetTriggerTarget:
.Lfunc_begin11:
	.loc	4 344 0                         @ ../../../Library/StdDriver/src/timer.c:344:0
	.fnstart
	.cfi_startproc
@ %bb.0:
	.pad	#8
	sub	sp, #8
	.cfi_def_cfa_offset 8
	str	r0, [sp, #4]
	str	r1, [sp]
.Ltmp89:
	.loc	4 345 22 prologue_end           @ ../../../Library/StdDriver/src/timer.c:345:22
	ldr	r0, [sp, #4]
	.loc	4 345 29 is_stmt 0              @ ../../../Library/StdDriver/src/timer.c:345:29
	ldr	r0, [r0, #28]
	movs	r1, #6
	.loc	4 345 36                        @ ../../../Library/StdDriver/src/timer.c:345:36
	bics	r0, r1
	.loc	4 345 94                        @ ../../../Library/StdDriver/src/timer.c:345:94
	ldr	r1, [sp]
	.loc	4 345 92                        @ ../../../Library/StdDriver/src/timer.c:345:92
	orrs	r0, r1
	.loc	4 345 5                         @ ../../../Library/StdDriver/src/timer.c:345:5
	ldr	r1, [sp, #4]
	.loc	4 345 19                        @ ../../../Library/StdDriver/src/timer.c:345:19
	str	r0, [r1, #28]
	.loc	4 346 1 epilogue_begin is_stmt 1 @ ../../../Library/StdDriver/src/timer.c:346:1
	add	sp, #8
	bx	lr
.Ltmp90:
.Lfunc_end11:
	.size	TIMER_SetTriggerTarget, .Lfunc_end11-TIMER_SetTriggerTarget
	.cfi_endproc
	.cantunwind
	.fnend
                                        @ -- End function
	.section	.text.TIMER_CaptureSelect,"ax",%progbits
	.hidden	TIMER_CaptureSelect             @ -- Begin function TIMER_CaptureSelect
	.globl	TIMER_CaptureSelect
	.p2align	1
	.type	TIMER_CaptureSelect,%function
	.code	16                              @ @TIMER_CaptureSelect
	.thumb_func
TIMER_CaptureSelect:
.Lfunc_begin12:
	.loc	4 363 0                         @ ../../../Library/StdDriver/src/timer.c:363:0
	.fnstart
	.cfi_startproc
@ %bb.0:
	.pad	#8
	sub	sp, #8
	.cfi_def_cfa_offset 8
	str	r0, [sp, #4]
	str	r1, [sp]
.Ltmp91:
	.loc	4 364 9 prologue_end            @ ../../../Library/StdDriver/src/timer.c:364:9
	ldr	r0, [sp]
.Ltmp92:
	.loc	4 364 9 is_stmt 0               @ ../../../Library/StdDriver/src/timer.c:364:9
	cmp	r0, #255
	bne	.LBB12_2
	b	.LBB12_1
.LBB12_1:
.Ltmp93:
	.loc	4 366 23 is_stmt 1              @ ../../../Library/StdDriver/src/timer.c:366:23
	ldr	r0, [sp, #4]
	.loc	4 366 30 is_stmt 0              @ ../../../Library/StdDriver/src/timer.c:366:30
	ldr	r0, [r0]
	movs	r1, #1
	lsls	r1, r1, #22
	.loc	4 366 34                        @ ../../../Library/StdDriver/src/timer.c:366:34
	bics	r0, r1
	.loc	4 366 9                         @ ../../../Library/StdDriver/src/timer.c:366:9
	ldr	r1, [sp, #4]
	.loc	4 366 20                        @ ../../../Library/StdDriver/src/timer.c:366:20
	str	r0, [r1]
	.loc	4 368 5 is_stmt 1               @ ../../../Library/StdDriver/src/timer.c:368:5
	b	.LBB12_3
.Ltmp94:
.LBB12_2:
	.loc	4 371 23                        @ ../../../Library/StdDriver/src/timer.c:371:23
	ldr	r0, [sp, #4]
	.loc	4 371 30 is_stmt 0              @ ../../../Library/StdDriver/src/timer.c:371:30
	ldr	r0, [r0]
	movs	r1, #1
	lsls	r1, r1, #22
	.loc	4 371 61                        @ ../../../Library/StdDriver/src/timer.c:371:61
	orrs	r0, r1
	.loc	4 371 9                         @ ../../../Library/StdDriver/src/timer.c:371:9
	ldr	r1, [sp, #4]
	.loc	4 371 20                        @ ../../../Library/StdDriver/src/timer.c:371:20
	str	r0, [r1]
	.loc	4 373 26 is_stmt 1              @ ../../../Library/StdDriver/src/timer.c:373:26
	ldr	r0, [sp, #4]
	.loc	4 373 33 is_stmt 0              @ ../../../Library/StdDriver/src/timer.c:373:33
	ldr	r0, [r0, #20]
	movw	r1, #1792
	.loc	4 373 40                        @ ../../../Library/StdDriver/src/timer.c:373:40
	bics	r0, r1
	.loc	4 374 26 is_stmt 1              @ ../../../Library/StdDriver/src/timer.c:374:26
	ldr	r1, [sp]
	.loc	4 373 75                        @ ../../../Library/StdDriver/src/timer.c:373:75
	orrs	r0, r1
	.loc	4 373 9 is_stmt 0               @ ../../../Library/StdDriver/src/timer.c:373:9
	ldr	r1, [sp, #4]
	.loc	4 373 23                        @ ../../../Library/StdDriver/src/timer.c:373:23
	str	r0, [r1, #20]
	b	.LBB12_3
.Ltmp95:
.LBB12_3:
	.loc	4 376 1 epilogue_begin is_stmt 1 @ ../../../Library/StdDriver/src/timer.c:376:1
	add	sp, #8
	bx	lr
.Ltmp96:
.Lfunc_end12:
	.size	TIMER_CaptureSelect, .Lfunc_end12-TIMER_CaptureSelect
	.cfi_endproc
	.cantunwind
	.fnend
                                        @ -- End function
	.section	.text.TIMER_ResetCounter,"ax",%progbits
	.hidden	TIMER_ResetCounter              @ -- Begin function TIMER_ResetCounter
	.globl	TIMER_ResetCounter
	.p2align	2
	.type	TIMER_ResetCounter,%function
	.code	16                              @ @TIMER_ResetCounter
	.thumb_func
TIMER_ResetCounter:
.Lfunc_begin13:
	.loc	4 390 0                         @ ../../../Library/StdDriver/src/timer.c:390:0
	.fnstart
	.cfi_startproc
@ %bb.0:
	.save	{r7, lr}
	push	{r7, lr}
	.cfi_def_cfa_offset 8
	.cfi_offset lr, -4
	.cfi_offset r7, -8
	.pad	#24
	sub	sp, #24
	.cfi_def_cfa_offset 32
	str	r0, [sp, #20]
.Ltmp97:
	.loc	4 393 5 prologue_end            @ ../../../Library/StdDriver/src/timer.c:393:5
	ldr	r1, [sp, #20]
	.loc	4 393 16 is_stmt 0              @ ../../../Library/StdDriver/src/timer.c:393:16
	ldr	r0, [r1, #12]
	movs	r2, #1
	lsls	r2, r2, #31
	orrs	r0, r2
	str	r0, [r1, #12]
	.loc	4 395 17 is_stmt 1              @ ../../../Library/StdDriver/src/timer.c:395:17
	ldr	r0, __arm_cp.13_0
	ldr	r0, [r0]
	.loc	4 395 56 is_stmt 0              @ ../../../Library/StdDriver/src/timer.c:395:56
	str	r0, [sp, #12]                   @ 4-byte Spill
	ldr	r0, [sp, #20]
	.loc	4 395 35                        @ ../../../Library/StdDriver/src/timer.c:395:35
	bl	TIMER_GetModuleClock
	mov	r1, r0
	.loc	4 395 33                        @ ../../../Library/StdDriver/src/timer.c:395:33
	ldr	r0, [sp, #12]                   @ 4-byte Reload
	udiv	r1, r0, r1
	movs	r0, #3
	.loc	4 395 64                        @ ../../../Library/StdDriver/src/timer.c:395:64
	muls	r0, r1, r0
	.loc	4 395 14                        @ ../../../Library/StdDriver/src/timer.c:395:14
	str	r0, [sp, #16]
	.loc	4 396 5 is_stmt 1               @ ../../../Library/StdDriver/src/timer.c:396:5
	b	.LBB13_1
.LBB13_1:                               @ =>This Inner Loop Header: Depth=1
	.loc	4 396 13 is_stmt 0              @ ../../../Library/StdDriver/src/timer.c:396:13
	ldr	r0, [sp, #20]
	.loc	4 396 20                        @ ../../../Library/StdDriver/src/timer.c:396:20
	ldr	r1, [r0, #12]
	movs	r0, #0
	.loc	4 396 73                        @ ../../../Library/StdDriver/src/timer.c:396:73
	lsrs	r1, r1, #31
	cmp	r1, #1
	str	r0, [sp, #8]                    @ 4-byte Spill
	bne	.LBB13_3
	b	.LBB13_2
.LBB13_2:                               @   in Loop: Header=BB13_1 Depth=1
	.loc	4 396 77                        @ ../../../Library/StdDriver/src/timer.c:396:77
	ldr	r0, [sp, #16]
	subs	r0, r0, #1
	str	r0, [sp, #16]
	.loc	4 396 73                        @ ../../../Library/StdDriver/src/timer.c:396:73
	subs	r1, r0, #1
	sbcs	r0, r1
	str	r0, [sp, #8]                    @ 4-byte Spill
	b	.LBB13_3
.LBB13_3:                               @   in Loop: Header=BB13_1 Depth=1
	.loc	4 0 0                           @ ../../../Library/StdDriver/src/timer.c:0:0
	ldr	r0, [sp, #8]                    @ 4-byte Reload
	.loc	4 396 5                         @ ../../../Library/StdDriver/src/timer.c:396:5
	lsls	r0, r0, #31
	cbz	r0, .LBB13_5
	b	.LBB13_4
.LBB13_4:                               @   in Loop: Header=BB13_1 Depth=1
.Ltmp98:
	.loc	4 398 9 is_stmt 1               @ ../../../Library/StdDriver/src/timer.c:398:9
	nop
.Ltmp99:
	.loc	4 396 5                         @ ../../../Library/StdDriver/src/timer.c:396:5
	b	.LBB13_1
.LBB13_5:
	.loc	4 400 12                        @ ../../../Library/StdDriver/src/timer.c:400:12
	ldr	r1, [sp, #16]
	movs	r0, #0
	str	r0, [sp]                        @ 4-byte Spill
	mvns	r0, r0
	str	r0, [sp, #4]                    @ 4-byte Spill
	cbz	r1, .LBB13_7
@ %bb.6:
	.loc	4 0 12 is_stmt 0                @ ../../../Library/StdDriver/src/timer.c:0:12
	ldr	r0, [sp]                        @ 4-byte Reload
	str	r0, [sp, #4]                    @ 4-byte Spill
.LBB13_7:
	.loc	4 400 12                        @ ../../../Library/StdDriver/src/timer.c:400:12
	ldr	r0, [sp, #4]                    @ 4-byte Reload
	.loc	4 400 5 epilogue_begin          @ ../../../Library/StdDriver/src/timer.c:400:5
	add	sp, #24
	pop	{r7, pc}
.Ltmp100:
	.p2align	2
@ %bb.8:
	.loc	4 0 5                           @ ../../../Library/StdDriver/src/timer.c:0:5
__arm_cp.13_0:
	.long	SystemCoreClock
.Lcpi_end15:
	.size	__arm_cp.13_0, .Lcpi_end15-__arm_cp.13_0
.Lfunc_end13:
	.size	TIMER_ResetCounter, .Lfunc_end13-TIMER_ResetCounter
	.cfi_endproc
	.cantunwind
	.fnend
                                        @ -- End function
	.type	.L__const.TIMER_GetModuleClock.au32Clk,%object @ @__const.TIMER_GetModuleClock.au32Clk
	.section	.rodata.cst32,"aM",%progbits,32
	.p2align	2, 0x0
.L__const.TIMER_GetModuleClock.au32Clk:
	.long	0                               @ 0x0
	.long	0                               @ 0x0
	.long	0                               @ 0x0
	.long	0                               @ 0x0
	.long	10000                           @ 0x2710
	.long	24000000                        @ 0x16e3600
	.long	0                               @ 0x0
	.long	0                               @ 0x0
	.size	.L__const.TIMER_GetModuleClock.au32Clk, 32

	.section	".note.GNU-stack","",%progbits
	.eabi_attribute	30, 6	@ Tag_ABI_optimization_goals
	.ARM_attribute	16, 1	@ Tag_AV_eba