	.text
	.syntax unified
	.eabi_attribute	67, "2.09"	@ Tag_conformance
	.cpu	cortex-m23
	.eabi_attribute	6, 16	@ Tag_CPU_arch
	.eabi_attribute	7, 77	@ Tag_CPU_arch_profile
	.eabi_attribute	8, 0	@ Tag_ARM_ISA_use
	.eabi_attribute	9, 3	@ Tag_THUMB_ISA_use
	.eabi_attribute	34, 0	@ Tag_CPU_unaligned_access
	.eabi_attribute	17, 1	@ Tag_ABI_PCS_GOT_use
	.eabi_attribute	20, 2	@ Tag_ABI_FP_denormal
	.eabi_attribute	21, 0	@ Tag_ABI_FP_exceptions
	.eabi_attribute	23, 1	@ Tag_ABI_FP_number_model
	.eabi_attribute	24, 1	@ Tag_ABI_align_needed
	.eabi_attribute	25, 1	@ Tag_ABI_align_preserved
	.eabi_attribute	38, 1	@ Tag_ABI_FP_16bit_format
	.eabi_attribute	18, 2	@ Tag_ABI_PCS_wchar_t
	.eabi_attribute	26, 1	@ Tag_ABI_enum_size
	.eabi_attribute	14, 0	@ Tag_ABI_PCS_R9_use
	.file	"uart.c"
	.file	1 "C:\\Keil_v5\\ARM\\ARMCLANG\\bin\\..\\include" "stdint.h"
	.file	2 "D:\\SourceCode\\_Avery_M2003\\M2003BSP_FLASH_EMULATE_EEPROM\\SampleCode\\Template\\Keil" "../../../Library/Device/Nuvoton/M2003/Include\\uart_reg.h"
	.file	3 "D:\\SourceCode\\_Avery_M2003\\M2003BSP_FLASH_EMULATE_EEPROM\\SampleCode\\Template\\Keil" "../../../Library/Device/Nuvoton/M2003/Include\\clk_reg.h"
	.section	.text.UART_ClearIntFlag,"ax",%progbits
	.hidden	UART_ClearIntFlag               @ -- Begin function UART_ClearIntFlag
	.globl	UART_ClearIntFlag
	.p2align	2
	.type	UART_ClearIntFlag,%function
	.code	16                              @ @UART_ClearIntFlag
	.thumb_func
UART_ClearIntFlag:
.Lfunc_begin0:
	.file	4 "D:\\SourceCode\\_Avery_M2003\\M2003BSP_FLASH_EMULATE_EEPROM\\SampleCode\\Template\\Keil" "../../../Library/StdDriver/src/uart.c"
	.loc	4 42 0                          @ ../../../Library/StdDriver/src/uart.c:42:0
	.fnstart
	.cfi_sections .debug_frame
	.cfi_startproc
@ %bb.0:
	.pad	#8
	sub	sp, #8
	.cfi_def_cfa_offset 8
	str	r0, [sp, #4]
	str	r1, [sp]
	mov	r0, sp
.Ltmp0:
	.loc	4 43 8 prologue_end             @ ../../../Library/StdDriver/src/uart.c:43:8
	ldrb	r0, [r0, #3]
	lsls	r0, r0, #31
	cbz	r0, .LBB0_2
	b	.LBB0_1
.LBB0_1:
.Ltmp1:
	.loc	4 45 9                          @ ../../../Library/StdDriver/src/uart.c:45:9
	ldr	r1, [sp, #4]
	movs	r0, #1
	lsls	r0, r0, #16
	.loc	4 45 22 is_stmt 0               @ ../../../Library/StdDriver/src/uart.c:45:22
	str	r0, [r1, #28]
	.loc	4 46 5 is_stmt 1                @ ../../../Library/StdDriver/src/uart.c:46:5
	b	.LBB0_2
.Ltmp2:
.LBB0_2:
	.loc	4 0 5 is_stmt 0                 @ ../../../Library/StdDriver/src/uart.c:0:5
	mov	r0, sp
	.loc	4 48 8 is_stmt 1                @ ../../../Library/StdDriver/src/uart.c:48:8
	ldrb	r0, [r0, #1]
	lsls	r0, r0, #29
	cmp	r0, #0
	bpl	.LBB0_4
	b	.LBB0_3
.LBB0_3:
.Ltmp3:
	.loc	4 50 9                          @ ../../../Library/StdDriver/src/uart.c:50:9
	ldr	r1, [sp, #4]
	movs	r0, #112
	.loc	4 50 23 is_stmt 0               @ ../../../Library/StdDriver/src/uart.c:50:23
	str	r0, [r1, #24]
	.loc	4 51 9 is_stmt 1                @ ../../../Library/StdDriver/src/uart.c:51:9
	ldr	r1, [sp, #4]
	movs	r0, #8
	.loc	4 51 23 is_stmt 0               @ ../../../Library/StdDriver/src/uart.c:51:23
	str	r0, [r1, #24]
	.loc	4 52 5 is_stmt 1                @ ../../../Library/StdDriver/src/uart.c:52:5
	b	.LBB0_4
.Ltmp4:
.LBB0_4:
	.loc	4 0 5 is_stmt 0                 @ ../../../Library/StdDriver/src/uart.c:0:5
	mov	r0, sp
	.loc	4 54 8 is_stmt 1                @ ../../../Library/StdDriver/src/uart.c:54:8
	ldrb	r0, [r0, #1]
	lsls	r0, r0, #28
	cmp	r0, #0
	bpl	.LBB0_6
	b	.LBB0_5
.LBB0_5:
.Ltmp5:
	.loc	4 56 9                          @ ../../../Library/StdDriver/src/uart.c:56:9
	ldr	r1, [sp, #4]
	.loc	4 56 24 is_stmt 0               @ ../../../Library/StdDriver/src/uart.c:56:24
	ldr	r0, [r1, #20]
	movs	r2, #1
	orrs	r0, r2
	str	r0, [r1, #20]
	.loc	4 57 5 is_stmt 1                @ ../../../Library/StdDriver/src/uart.c:57:5
	b	.LBB0_6
.Ltmp6:
.LBB0_6:
	.loc	4 0 5 is_stmt 0                 @ ../../../Library/StdDriver/src/uart.c:0:5
	mov	r0, sp
	.loc	4 59 8 is_stmt 1                @ ../../../Library/StdDriver/src/uart.c:59:8
	ldrb	r0, [r0, #1]
	lsls	r0, r0, #26
	cmp	r0, #0
	bpl	.LBB0_8
	b	.LBB0_7
.LBB0_7:
.Ltmp7:
	.loc	4 61 9                          @ ../../../Library/StdDriver/src/uart.c:61:9
	ldr	r1, [sp, #4]
	ldr	r0, __arm_cp.0_0
	.loc	4 61 23 is_stmt 0               @ ../../../Library/StdDriver/src/uart.c:61:23
	str	r0, [r1, #24]
	.loc	4 62 5 is_stmt 1                @ ../../../Library/StdDriver/src/uart.c:62:5
	b	.LBB0_8
.Ltmp8:
.LBB0_8:
	.loc	4 0 5 is_stmt 0                 @ ../../../Library/StdDriver/src/uart.c:0:5
	mov	r0, sp
	.loc	4 64 8 is_stmt 1                @ ../../../Library/StdDriver/src/uart.c:64:8
	ldrb	r0, [r0, #1]
	lsls	r0, r0, #25
	cmp	r0, #0
	bpl	.LBB0_10
	b	.LBB0_9
.LBB0_9:
.Ltmp9:
	.loc	4 66 9                          @ ../../../Library/StdDriver/src/uart.c:66:9
	ldr	r1, [sp, #4]
	movs	r0, #3
	.loc	4 66 21 is_stmt 0               @ ../../../Library/StdDriver/src/uart.c:66:21
	str	r0, [r1, #68]
	.loc	4 67 5 is_stmt 1                @ ../../../Library/StdDriver/src/uart.c:67:5
	b	.LBB0_10
.Ltmp10:
.LBB0_10:
	.loc	4 68 1 epilogue_begin           @ ../../../Library/StdDriver/src/uart.c:68:1
	add	sp, #8
	bx	lr
.Ltmp11:
	.p2align	2
@ %bb.11:
	.loc	4 0 1 is_stmt 0                 @ ../../../Library/StdDriver/src/uart.c:0:1
__arm_cp.0_0:
	.long	16777217                        @ 0x1000001
.Lcpi_end0:
	.size	__arm_cp.0_0, .Lcpi_end0-__arm_cp.0_0
.Lfunc_end0:
	.size	UART_ClearIntFlag, .Lfunc_end0-UART_ClearIntFlag
	.cfi_endproc
	.cantunwind
	.fnend
                                        @ -- End function
	.section	.text.UART_Close,"ax",%progbits
	.hidden	UART_Close                      @ -- Begin function UART_Close
	.globl	UART_Close
	.p2align	1
	.type	UART_Close,%function
	.code	16                              @ @UART_Close
	.thumb_func
UART_Close:
.Lfunc_begin1:
	.loc	4 81 0 is_stmt 1                @ ../../../Library/StdDriver/src/uart.c:81:0
	.fnstart
	.cfi_startproc
@ %bb.0:
	.pad	#4
	sub	sp, #4
	.cfi_def_cfa_offset 4
	str	r0, [sp]
.Ltmp12:
	.loc	4 82 5 prologue_end             @ ../../../Library/StdDriver/src/uart.c:82:5
	ldr	r1, [sp]
	movs	r0, #0
	.loc	4 82 17 is_stmt 0               @ ../../../Library/StdDriver/src/uart.c:82:17
	str	r0, [r1, #4]
	.loc	4 83 1 epilogue_begin is_stmt 1 @ ../../../Library/StdDriver/src/uart.c:83:1
	add	sp, #4
	bx	lr
.Ltmp13:
.Lfunc_end1:
	.size	UART_Close, .Lfunc_end1-UART_Close
	.cfi_endproc
	.cantunwind
	.fnend
                                        @ -- End function
	.section	.text.UART_DisableFlowCtrl,"ax",%progbits
	.hidden	UART_DisableFlowCtrl            @ -- Begin function UART_DisableFlowCtrl
	.globl	UART_DisableFlowCtrl
	.p2align	1
	.type	UART_DisableFlowCtrl,%function
	.code	16                              @ @UART_DisableFlowCtrl
	.thumb_func
UART_DisableFlowCtrl:
.Lfunc_begin2:
	.loc	4 96 0                          @ ../../../Library/StdDriver/src/uart.c:96:0
	.fnstart
	.cfi_startproc
@ %bb.0:
	.pad	#4
	sub	sp, #4
	.cfi_def_cfa_offset 4
	str	r0, [sp]
.Ltmp14:
	.loc	4 97 5 prologue_end             @ ../../../Library/StdDriver/src/uart.c:97:5
	ldr	r1, [sp]
	.loc	4 97 17 is_stmt 0               @ ../../../Library/StdDriver/src/uart.c:97:17
	ldr	r0, [r1, #4]
	movw	r2, #12288
	bics	r0, r2
	str	r0, [r1, #4]
	.loc	4 98 1 epilogue_begin is_stmt 1 @ ../../../Library/StdDriver/src/uart.c:98:1
	add	sp, #4
	bx	lr
.Ltmp15:
.Lfunc_end2:
	.size	UART_DisableFlowCtrl, .Lfunc_end2-UART_DisableFlowCtrl
	.cfi_endproc
	.cantunwind
	.fnend
                                        @ -- End function
	.section	.text.UART_DisableInt,"ax",%progbits
	.hidden	UART_DisableInt                 @ -- Begin function UART_DisableInt
	.globl	UART_DisableInt
	.p2align	1
	.type	UART_DisableInt,%function
	.code	16                              @ @UART_DisableInt
	.thumb_func
UART_DisableInt:
.Lfunc_begin3:
	.loc	4 122 0                         @ ../../../Library/StdDriver/src/uart.c:122:0
	.fnstart
	.cfi_startproc
@ %bb.0:
	.pad	#8
	sub	sp, #8
	.cfi_def_cfa_offset 8
	str	r0, [sp, #4]
	str	r1, [sp]
.Ltmp16:
	.loc	4 124 5 prologue_end            @ ../../../Library/StdDriver/src/uart.c:124:5
	ldr	r2, [sp]
	ldr	r1, [sp, #4]
	ldr	r0, [r1, #4]
	bics	r0, r2
	str	r0, [r1, #4]
	.loc	4 125 1 epilogue_begin          @ ../../../Library/StdDriver/src/uart.c:125:1
	add	sp, #8
	bx	lr
.Ltmp17:
.Lfunc_end3:
	.size	UART_DisableInt, .Lfunc_end3-UART_DisableInt
	.cfi_endproc
	.cantunwind
	.fnend
                                        @ -- End function
	.section	.text.UART_EnableFlowCtrl,"ax",%progbits
	.hidden	UART_EnableFlowCtrl             @ -- Begin function UART_EnableFlowCtrl
	.globl	UART_EnableFlowCtrl
	.p2align	1
	.type	UART_EnableFlowCtrl,%function
	.code	16                              @ @UART_EnableFlowCtrl
	.thumb_func
UART_EnableFlowCtrl:
.Lfunc_begin4:
	.loc	4 138 0                         @ ../../../Library/StdDriver/src/uart.c:138:0
	.fnstart
	.cfi_startproc
@ %bb.0:
	.pad	#4
	sub	sp, #4
	.cfi_def_cfa_offset 4
	str	r0, [sp]
.Ltmp18:
	.loc	4 140 5 prologue_end            @ ../../../Library/StdDriver/src/uart.c:140:5
	ldr	r1, [sp]
	.loc	4 140 17 is_stmt 0              @ ../../../Library/StdDriver/src/uart.c:140:17
	ldr	r0, [r1, #16]
	movw	r2, #512
	orrs	r0, r2
	str	r0, [r1, #16]
	.loc	4 143 5 is_stmt 1               @ ../../../Library/StdDriver/src/uart.c:143:5
	ldr	r1, [sp]
	.loc	4 143 20 is_stmt 0              @ ../../../Library/StdDriver/src/uart.c:143:20
	ldr	r0, [r1, #20]
	movw	r2, #256
	orrs	r0, r2
	str	r0, [r1, #20]
	.loc	4 146 5 is_stmt 1               @ ../../../Library/StdDriver/src/uart.c:146:5
	ldr	r1, [sp]
	.loc	4 146 17 is_stmt 0              @ ../../../Library/StdDriver/src/uart.c:146:17
	ldr	r0, [r1, #4]
	movw	r2, #12288
	orrs	r0, r2
	str	r0, [r1, #4]
	.loc	4 147 1 epilogue_begin is_stmt 1 @ ../../../Library/StdDriver/src/uart.c:147:1
	add	sp, #4
	bx	lr
.Ltmp19:
.Lfunc_end4:
	.size	UART_EnableFlowCtrl, .Lfunc_end4-UART_EnableFlowCtrl
	.cfi_endproc
	.cantunwind
	.fnend
                                        @ -- End function
	.section	.text.UART_EnableInt,"ax",%progbits
	.hidden	UART_EnableInt                  @ -- Begin function UART_EnableInt
	.globl	UART_EnableInt
	.p2align	1
	.type	UART_EnableInt,%function
	.code	16                              @ @UART_EnableInt
	.thumb_func
UART_EnableInt:
.Lfunc_begin5:
	.loc	4 170 0                         @ ../../../Library/StdDriver/src/uart.c:170:0
	.fnstart
	.cfi_startproc
@ %bb.0:
	.pad	#8
	sub	sp, #8
	.cfi_def_cfa_offset 8
	str	r0, [sp, #4]
	str	r1, [sp]
.Ltmp20:
	.loc	4 173 5 prologue_end            @ ../../../Library/StdDriver/src/uart.c:173:5
	ldr	r2, [sp]
	ldr	r1, [sp, #4]
	ldr	r0, [r1, #4]
	orrs	r0, r2
	str	r0, [r1, #4]
	.loc	4 174 1 epilogue_begin          @ ../../../Library/StdDriver/src/uart.c:174:1
	add	sp, #8
	bx	lr
.Ltmp21:
.Lfunc_end5:
	.size	UART_EnableInt, .Lfunc_end5-UART_EnableInt
	.cfi_endproc
	.cantunwind
	.fnend
                                        @ -- End function
	.section	.text.UART_Open,"ax",%progbits
	.hidden	UART_Open                       @ -- Begin function UART_Open
	.globl	UART_Open
	.p2align	2
	.type	UART_Open,%function
	.code	16                              @ @UART_Open
	.thumb_func
UART_Open:
.Lfunc_begin6:
	.loc	4 188 0                         @ ../../../Library/StdDriver/src/uart.c:188:0
	.fnstart
	.cfi_startproc
@ %bb.0:
	.save	{r4, lr}
	push	{r4, lr}
	.cfi_def_cfa_offset 8
	.cfi_offset lr, -4
	.cfi_offset r4, -8
	.pad	#40
	sub	sp, #40
	.cfi_def_cfa_offset 48
	str	r0, [sp, #36]
	str	r1, [sp, #32]
.Ltmp22:
	.loc	4 190 14 prologue_end           @ ../../../Library/StdDriver/src/uart.c:190:14
	ldr	r1, __arm_cp.6_0
	add	r0, sp, #4
	ldm	r1!, {r2, r3}
	stm	r0!, {r2, r3}
	ldm	r1!, {r2, r3, r4}
	stm	r0!, {r2, r3, r4}
	movs	r0, #0
	.loc	4 191 14                        @ ../../../Library/StdDriver/src/uart.c:191:14
	str	r0, [sp]
.Ltmp23:
	.loc	4 194 9                         @ ../../../Library/StdDriver/src/uart.c:194:9
	ldr	r0, [sp, #36]
	ldr	r1, __arm_cp.6_1
.Ltmp24:
	.loc	4 194 9 is_stmt 0               @ ../../../Library/StdDriver/src/uart.c:194:9
	cmp	r0, r1
	bne	.LBB6_2
	b	.LBB6_1
.LBB6_1:
	.loc	4 0 9                           @ ../../../Library/StdDriver/src/uart.c:0:9
	ldr	r0, __arm_cp.6_3
.Ltmp25:
	.loc	4 197 45 is_stmt 1              @ ../../../Library/StdDriver/src/uart.c:197:45
	ldr	r0, [r0]
	movs	r1, #7
	lsls	r1, r1, #16
	.loc	4 197 53 is_stmt 0              @ ../../../Library/StdDriver/src/uart.c:197:53
	ands	r0, r1
	.loc	4 197 82                        @ ../../../Library/StdDriver/src/uart.c:197:82
	lsrs	r0, r0, #16
	.loc	4 197 26                        @ ../../../Library/StdDriver/src/uart.c:197:26
	str	r0, [sp, #28]
	ldr	r0, __arm_cp.6_4
	.loc	4 199 34 is_stmt 1              @ ../../../Library/StdDriver/src/uart.c:199:34
	ldr	r0, [r0]
	movw	r1, #3840
	.loc	4 199 42 is_stmt 0              @ ../../../Library/StdDriver/src/uart.c:199:42
	ands	r0, r1
	.loc	4 199 70                        @ ../../../Library/StdDriver/src/uart.c:199:70
	lsrs	r0, r0, #8
	.loc	4 199 26                        @ ../../../Library/StdDriver/src/uart.c:199:26
	str	r0, [sp, #24]
	.loc	4 200 5 is_stmt 1               @ ../../../Library/StdDriver/src/uart.c:200:5
	b	.LBB6_5
.Ltmp26:
.LBB6_2:
	.loc	4 201 14                        @ ../../../Library/StdDriver/src/uart.c:201:14
	ldr	r0, [sp, #36]
	ldr	r1, __arm_cp.6_2
.Ltmp27:
	.loc	4 201 14 is_stmt 0              @ ../../../Library/StdDriver/src/uart.c:201:14
	cmp	r0, r1
	bne	.LBB6_4
	b	.LBB6_3
.LBB6_3:
	.loc	4 0 14                          @ ../../../Library/StdDriver/src/uart.c:0:14
	ldr	r0, __arm_cp.6_3
.Ltmp28:
	.loc	4 204 34 is_stmt 1              @ ../../../Library/StdDriver/src/uart.c:204:34
	ldr	r0, [r0]
	movs	r1, #7
	lsls	r1, r1, #20
	.loc	4 204 42 is_stmt 0              @ ../../../Library/StdDriver/src/uart.c:204:42
	ands	r0, r1
	.loc	4 204 70                        @ ../../../Library/StdDriver/src/uart.c:204:70
	lsrs	r0, r0, #20
	.loc	4 204 26                        @ ../../../Library/StdDriver/src/uart.c:204:26
	str	r0, [sp, #28]
	ldr	r0, __arm_cp.6_4
	.loc	4 206 34 is_stmt 1              @ ../../../Library/StdDriver/src/uart.c:206:34
	ldr	r0, [r0]
	.loc	4 206 42 is_stmt 0              @ ../../../Library/StdDriver/src/uart.c:206:42
	uxth	r0, r0
	.loc	4 206 70                        @ ../../../Library/StdDriver/src/uart.c:206:70
	lsrs	r0, r0, #12
	.loc	4 206 26                        @ ../../../Library/StdDriver/src/uart.c:206:26
	str	r0, [sp, #24]
	.loc	4 207 5 is_stmt 1               @ ../../../Library/StdDriver/src/uart.c:207:5
	b	.LBB6_4
.Ltmp29:
.LBB6_4:
	.loc	4 0 5 is_stmt 0                 @ ../../../Library/StdDriver/src/uart.c:0:5
	b	.LBB6_5
.LBB6_5:
	.loc	4 210 5 is_stmt 1               @ ../../../Library/StdDriver/src/uart.c:210:5
	ldr	r1, [sp, #36]
	movs	r0, #0
	.loc	4 210 19 is_stmt 0              @ ../../../Library/StdDriver/src/uart.c:210:19
	str	r0, [r1, #48]
	.loc	4 213 5 is_stmt 1               @ ../../../Library/StdDriver/src/uart.c:213:5
	ldr	r1, [sp, #36]
	movs	r0, #3
	.loc	4 213 16 is_stmt 0              @ ../../../Library/StdDriver/src/uart.c:213:16
	str	r0, [r1, #12]
	.loc	4 216 5 is_stmt 1               @ ../../../Library/StdDriver/src/uart.c:216:5
	ldr	r1, [sp, #36]
	.loc	4 216 16 is_stmt 0              @ ../../../Library/StdDriver/src/uart.c:216:16
	ldr	r0, [r1, #8]
	ldr	r2, __arm_cp.6_5
	ands	r0, r2
	str	r0, [r1, #8]
.Ltmp30:
	.loc	4 219 9 is_stmt 1               @ ../../../Library/StdDriver/src/uart.c:219:9
	ldr	r0, [sp, #28]
.Ltmp31:
	.loc	4 219 9 is_stmt 0               @ ../../../Library/StdDriver/src/uart.c:219:9
	cmp	r0, #4
	bne	.LBB6_10
	b	.LBB6_6
.LBB6_6:
.Ltmp32:
	.loc	4 222 13 is_stmt 1              @ ../../../Library/StdDriver/src/uart.c:222:13
	ldr	r0, [sp, #36]
	ldr	r1, __arm_cp.6_1
.Ltmp33:
	.loc	4 222 13 is_stmt 0              @ ../../../Library/StdDriver/src/uart.c:222:13
	cmp	r0, r1
	bne	.LBB6_8
	b	.LBB6_7
.LBB6_7:
.Ltmp34:
	.loc	4 224 44 is_stmt 1              @ ../../../Library/StdDriver/src/uart.c:224:44
	bl	CLK_GetPCLK0Freq
	.loc	4 224 23 is_stmt 0              @ ../../../Library/StdDriver/src/uart.c:224:23
	ldr	r1, [sp, #28]
	.loc	4 224 13                        @ ../../../Library/StdDriver/src/uart.c:224:13
	lsls	r2, r1, #2
	add	r1, sp, #4
	.loc	4 224 41                        @ ../../../Library/StdDriver/src/uart.c:224:41
	str	r0, [r1, r2]
	.loc	4 225 9 is_stmt 1               @ ../../../Library/StdDriver/src/uart.c:225:9
	b	.LBB6_9
.Ltmp35:
.LBB6_8:
	.loc	4 228 44                        @ ../../../Library/StdDriver/src/uart.c:228:44
	bl	CLK_GetPCLK1Freq
	.loc	4 228 23 is_stmt 0              @ ../../../Library/StdDriver/src/uart.c:228:23
	ldr	r1, [sp, #28]
	.loc	4 228 13                        @ ../../../Library/StdDriver/src/uart.c:228:13
	lsls	r2, r1, #2
	add	r1, sp, #4
	.loc	4 228 41                        @ ../../../Library/StdDriver/src/uart.c:228:41
	str	r0, [r1, r2]
	b	.LBB6_9
.Ltmp36:
.LBB6_9:
	.loc	4 231 5 is_stmt 1               @ ../../../Library/StdDriver/src/uart.c:231:5
	b	.LBB6_10
.Ltmp37:
.LBB6_10:
	.loc	4 234 8                         @ ../../../Library/StdDriver/src/uart.c:234:8
	ldr	r0, [sp, #32]
.Ltmp38:
	.loc	4 234 8 is_stmt 0               @ ../../../Library/StdDriver/src/uart.c:234:8
	cbz	r0, .LBB6_15
	b	.LBB6_11
.LBB6_11:
.Ltmp39:
	.loc	4 236 22 is_stmt 1              @ ../../../Library/StdDriver/src/uart.c:236:22
	ldr	r0, [sp, #28]
	lsls	r1, r0, #2
	add	r0, sp, #4
	ldr	r0, [r0, r1]
	ldr	r1, [sp, #24]
	adds	r1, r1, #1
	udiv	r0, r0, r1
	ldr	r1, [sp, #32]
	lsrs	r2, r1, #1
	adds	r0, r0, r2
	udiv	r0, r0, r1
	subs	r0, r0, #2
	.loc	4 236 20 is_stmt 0              @ ../../../Library/StdDriver/src/uart.c:236:20
	str	r0, [sp]
	mov	r0, sp
.Ltmp40:
	.loc	4 238 12 is_stmt 1              @ ../../../Library/StdDriver/src/uart.c:238:12
	ldrh	r0, [r0, #2]
.Ltmp41:
	.loc	4 238 12 is_stmt 0              @ ../../../Library/StdDriver/src/uart.c:238:12
	cbz	r0, .LBB6_13
	b	.LBB6_12
.LBB6_12:
.Ltmp42:
	.loc	4 240 45 is_stmt 1              @ ../../../Library/StdDriver/src/uart.c:240:45
	ldr	r0, [sp, #28]
	lsls	r1, r0, #2
	add	r0, sp, #4
	ldr	r0, [r0, r1]
	ldr	r1, [sp, #24]
	adds	r1, r1, #1
	udiv	r0, r0, r1
	ldr	r1, [sp, #32]
	lsls	r2, r1, #3
	adds	r0, r0, r2
	udiv	r0, r0, r1
	lsrs	r0, r0, #4
	subs	r0, r0, #2
	.loc	4 240 13 is_stmt 0              @ ../../../Library/StdDriver/src/uart.c:240:13
	ldr	r1, [sp, #36]
	.loc	4 240 24                        @ ../../../Library/StdDriver/src/uart.c:240:24
	str	r0, [r1, #36]
	.loc	4 241 9 is_stmt 1               @ ../../../Library/StdDriver/src/uart.c:241:9
	b	.LBB6_14
.Ltmp43:
.LBB6_13:
	.loc	4 244 45                        @ ../../../Library/StdDriver/src/uart.c:244:45
	ldr	r0, [sp]
	movs	r1, #3
	lsls	r1, r1, #28
	.loc	4 244 43 is_stmt 0              @ ../../../Library/StdDriver/src/uart.c:244:43
	orrs	r0, r1
	.loc	4 244 13                        @ ../../../Library/StdDriver/src/uart.c:244:13
	ldr	r1, [sp, #36]
	.loc	4 244 24                        @ ../../../Library/StdDriver/src/uart.c:244:24
	str	r0, [r1, #36]
	b	.LBB6_14
.Ltmp44:
.LBB6_14:
	.loc	4 246 5 is_stmt 1               @ ../../../Library/StdDriver/src/uart.c:246:5
	b	.LBB6_15
.Ltmp45:
.LBB6_15:
	.loc	4 247 1 epilogue_begin          @ ../../../Library/StdDriver/src/uart.c:247:1
	add	sp, #40
	pop	{r4, pc}
.Ltmp46:
	.p2align	2
@ %bb.16:
	.loc	4 0 1 is_stmt 0                 @ ../../../Library/StdDriver/src/uart.c:0:1
__arm_cp.6_0:
	.long	.L__const.UART_Open.u32ClkTbl
.Lcpi_end1:
	.size	__arm_cp.6_0, .Lcpi_end1-__arm_cp.6_0
__arm_cp.6_1:
	.long	1074200576                      @ 0x40070000
.Lcpi_end2:
	.size	__arm_cp.6_1, .Lcpi_end2-__arm_cp.6_1
__arm_cp.6_2:
	.long	1074204672                      @ 0x40071000
.Lcpi_end3:
	.size	__arm_cp.6_2, .Lcpi_end3-__arm_cp.6_2
__arm_cp.6_3:
	.long	1073742360                      @ 0x40000218
.Lcpi_end4:
	.size	__arm_cp.6_3, .Lcpi_end4-__arm_cp.6_3
__arm_cp.6_4:
	.long	1073742368                      @ 0x40000220
.Lcpi_end5:
	.size	__arm_cp.6_4, .Lcpi_end5-__arm_cp.6_4
__arm_cp.6_5:
	.long	4293984015                      @ 0xfff0ff0f
.Lcpi_end6:
	.size	__arm_cp.6_5, .Lcpi_end6-__arm_cp.6_5
.Lfunc_end6:
	.size	UART_Open, .Lfunc_end6-UART_Open
	.cfi_endproc
	.cantunwind
	.fnend
                                        @ -- End function
	.section	.text.UART_Read,"ax",%progbits
	.hidden	UART_Read                       @ -- Begin function UART_Read
	.globl	UART_Read
	.p2align	1
	.type	UART_Read,%function
	.code	16                              @ @UART_Read
	.thumb_func
UART_Read:
.Lfunc_begin7:
	.loc	4 262 0 is_stmt 1               @ ../../../Library/StdDriver/src/uart.c:262:0
	.fnstart
	.cfi_startproc
@ %bb.0:
	.pad	#24
	sub	sp, #24
	.cfi_def_cfa_offset 24
	str	r0, [sp, #20]
	str	r1, [sp, #16]
	str	r2, [sp, #12]
	movs	r0, #0
.Ltmp47:
	.loc	4 264 15 prologue_end           @ ../../../Library/StdDriver/src/uart.c:264:15
	str	r0, [sp]
.Ltmp48:
	.loc	4 266 18                        @ ../../../Library/StdDriver/src/uart.c:266:18
	str	r0, [sp, #8]
	.loc	4 266 9 is_stmt 0               @ ../../../Library/StdDriver/src/uart.c:266:9
	b	.LBB7_1
.LBB7_1:                                @ =>This Loop Header: Depth=1
                                        @     Child Loop BB7_3 Depth 2
.Ltmp49:
	.loc	4 266 25                        @ ../../../Library/StdDriver/src/uart.c:266:25
	ldr	r0, [sp, #8]
	.loc	4 266 36                        @ ../../../Library/StdDriver/src/uart.c:266:36
	ldr	r1, [sp, #12]
.Ltmp50:
	.loc	4 266 5                         @ ../../../Library/StdDriver/src/uart.c:266:5
	cmp	r0, r1
	bhs	.LBB7_13
	b	.LBB7_2
.LBB7_2:                                @   in Loop: Header=BB7_1 Depth=1
	.loc	4 0 5                           @ ../../../Library/StdDriver/src/uart.c:0:5
	movs	r0, #0
.Ltmp51:
	.loc	4 268 20 is_stmt 1              @ ../../../Library/StdDriver/src/uart.c:268:20
	str	r0, [sp, #4]
	.loc	4 270 9                         @ ../../../Library/StdDriver/src/uart.c:270:9
	b	.LBB7_3
.LBB7_3:                                @   Parent Loop BB7_1 Depth=1
                                        @ =>  This Inner Loop Header: Depth=2
	.loc	4 270 15 is_stmt 0              @ ../../../Library/StdDriver/src/uart.c:270:15
	ldr	r0, [sp, #20]
	.loc	4 270 21                        @ ../../../Library/StdDriver/src/uart.c:270:21
	ldr	r0, [r0, #24]
	.loc	4 270 9                         @ ../../../Library/StdDriver/src/uart.c:270:9
	lsls	r0, r0, #17
	cmp	r0, #0
	bpl	.LBB7_8
	b	.LBB7_4
.LBB7_4:                                @   in Loop: Header=BB7_3 Depth=2
.Ltmp52:
	.loc	4 272 23 is_stmt 1              @ ../../../Library/StdDriver/src/uart.c:272:23
	ldr	r0, [sp, #4]
	adds	r0, r0, #1
	str	r0, [sp, #4]
.Ltmp53:
	.loc	4 273 16                        @ ../../../Library/StdDriver/src/uart.c:273:16
	ldr	r0, [sp, #4]
.Ltmp54:
	.loc	4 273 16 is_stmt 0              @ ../../../Library/StdDriver/src/uart.c:273:16
	lsrs	r0, r0, #30
	cbz	r0, .LBB7_6
	b	.LBB7_5
.LBB7_5:                                @   in Loop: Header=BB7_1 Depth=1
	.loc	4 0 16                          @ ../../../Library/StdDriver/src/uart.c:0:16
	movs	r0, #1
.Ltmp55:
	.loc	4 275 25 is_stmt 1              @ ../../../Library/StdDriver/src/uart.c:275:25
	str	r0, [sp]
	.loc	4 276 17                        @ ../../../Library/StdDriver/src/uart.c:276:17
	b	.LBB7_8
.Ltmp56:
.LBB7_6:                                @   in Loop: Header=BB7_3 Depth=2
	.loc	4 0 17 is_stmt 0                @ ../../../Library/StdDriver/src/uart.c:0:17
	b	.LBB7_7
.LBB7_7:                                @   in Loop: Header=BB7_3 Depth=2
	.loc	4 270 9 is_stmt 1               @ ../../../Library/StdDriver/src/uart.c:270:9
	b	.LBB7_3
.LBB7_8:                                @   in Loop: Header=BB7_1 Depth=1
.Ltmp57:
	.loc	4 283 12                        @ ../../../Library/StdDriver/src/uart.c:283:12
	ldr	r0, [sp]
.Ltmp58:
	.loc	4 283 12 is_stmt 0              @ ../../../Library/StdDriver/src/uart.c:283:12
	cmp	r0, #1
	bne	.LBB7_10
	b	.LBB7_9
.LBB7_9:
.Ltmp59:
	.loc	4 285 13 is_stmt 1              @ ../../../Library/StdDriver/src/uart.c:285:13
	b	.LBB7_13
.Ltmp60:
.LBB7_10:                               @   in Loop: Header=BB7_1 Depth=1
	.loc	4 289 43                        @ ../../../Library/StdDriver/src/uart.c:289:43
	ldr	r0, [sp, #20]
	.loc	4 289 49 is_stmt 0              @ ../../../Library/StdDriver/src/uart.c:289:49
	ldr	r0, [r0]
	.loc	4 289 13                        @ ../../../Library/StdDriver/src/uart.c:289:13
	ldr	r1, [sp, #16]
	.loc	4 289 22                        @ ../../../Library/StdDriver/src/uart.c:289:22
	ldr	r2, [sp, #8]
	.loc	4 289 32                        @ ../../../Library/StdDriver/src/uart.c:289:32
	strb	r0, [r1, r2]
	b	.LBB7_11
.Ltmp61:
.LBB7_11:                               @   in Loop: Header=BB7_1 Depth=1
	.loc	4 291 5 is_stmt 1               @ ../../../Library/StdDriver/src/uart.c:291:5
	b	.LBB7_12
.Ltmp62:
.LBB7_12:                               @   in Loop: Header=BB7_1 Depth=1
	.loc	4 266 58                        @ ../../../Library/StdDriver/src/uart.c:266:58
	ldr	r0, [sp, #8]
	adds	r0, r0, #1
	str	r0, [sp, #8]
	.loc	4 266 5 is_stmt 0               @ ../../../Library/StdDriver/src/uart.c:266:5
	b	.LBB7_1
.Ltmp63:
.LBB7_13:
	.loc	4 293 12 is_stmt 1              @ ../../../Library/StdDriver/src/uart.c:293:12
	ldr	r0, [sp, #8]
	.loc	4 293 5 epilogue_begin is_stmt 0 @ ../../../Library/StdDriver/src/uart.c:293:5
	add	sp, #24
	bx	lr
.Ltmp64:
.Lfunc_end7:
	.size	UART_Read, .Lfunc_end7-UART_Read
	.cfi_endproc
	.cantunwind
	.fnend
                                        @ -- End function
	.section	.text.UART_SetLine_Config,"ax",%progbits
	.hidden	UART_SetLine_Config             @ -- Begin function UART_SetLine_Config
	.globl	UART_SetLine_Config
	.p2align	2
	.type	UART_SetLine_Config,%function
	.code	16                              @ @UART_SetLine_Config
	.thumb_func
UART_SetLine_Config:
.Lfunc_begin8:
	.loc	4 324 0 is_stmt 1               @ ../../../Library/StdDriver/src/uart.c:324:0
	.fnstart
	.cfi_startproc
@ %bb.0:
	.save	{r4, r5, r7, lr}
	push	{r4, r5, r7, lr}
	.cfi_def_cfa_offset 16
	.cfi_offset lr, -4
	.cfi_offset r7, -8
	.cfi_offset r5, -12
	.cfi_offset r4, -16
	.pad	#48
	sub	sp, #48
	.cfi_def_cfa_offset 64
	ldr	r4, [sp, #64]
	str	r0, [sp, #44]
	str	r1, [sp, #40]
	str	r2, [sp, #36]
	str	r3, [sp, #32]
	movs	r0, #0
.Ltmp65:
	.loc	4 325 14 prologue_end           @ ../../../Library/StdDriver/src/uart.c:325:14
	str	r0, [sp, #28]
	.loc	4 325 38 is_stmt 0              @ ../../../Library/StdDriver/src/uart.c:325:38
	str	r0, [sp, #24]
	.loc	4 326 14 is_stmt 1              @ ../../../Library/StdDriver/src/uart.c:326:14
	ldr	r2, __arm_cp.8_0
	add	r1, sp, #4
	ldm	r2!, {r3, r4}
	stm	r1!, {r3, r4}
	ldm	r2!, {r3, r4, r5}
	stm	r1!, {r3, r4, r5}
	.loc	4 327 14                        @ ../../../Library/StdDriver/src/uart.c:327:14
	str	r0, [sp]
.Ltmp66:
	.loc	4 330 9                         @ ../../../Library/StdDriver/src/uart.c:330:9
	ldr	r0, [sp, #44]
	ldr	r1, __arm_cp.8_1
.Ltmp67:
	.loc	4 330 9 is_stmt 0               @ ../../../Library/StdDriver/src/uart.c:330:9
	cmp	r0, r1
	bne	.LBB8_2
	b	.LBB8_1
.LBB8_1:
	.loc	4 0 9                           @ ../../../Library/StdDriver/src/uart.c:0:9
	ldr	r0, __arm_cp.8_3
.Ltmp68:
	.loc	4 333 34 is_stmt 1              @ ../../../Library/StdDriver/src/uart.c:333:34
	ldr	r0, [r0]
	movs	r1, #7
	lsls	r1, r1, #16
	.loc	4 333 42 is_stmt 0              @ ../../../Library/StdDriver/src/uart.c:333:42
	ands	r0, r1
	.loc	4 333 70                        @ ../../../Library/StdDriver/src/uart.c:333:70
	lsrs	r0, r0, #16
	.loc	4 333 26                        @ ../../../Library/StdDriver/src/uart.c:333:26
	str	r0, [sp, #28]
	ldr	r0, __arm_cp.8_4
	.loc	4 335 34 is_stmt 1              @ ../../../Library/StdDriver/src/uart.c:335:34
	ldr	r0, [r0]
	movw	r1, #3840
	.loc	4 335 42 is_stmt 0              @ ../../../Library/StdDriver/src/uart.c:335:42
	ands	r0, r1
	.loc	4 335 70                        @ ../../../Library/StdDriver/src/uart.c:335:70
	lsrs	r0, r0, #8
	.loc	4 335 26                        @ ../../../Library/StdDriver/src/uart.c:335:26
	str	r0, [sp, #24]
	.loc	4 336 5 is_stmt 1               @ ../../../Library/StdDriver/src/uart.c:336:5
	b	.LBB8_5
.Ltmp69:
.LBB8_2:
	.loc	4 337 14                        @ ../../../Library/StdDriver/src/uart.c:337:14
	ldr	r0, [sp, #44]
	ldr	r1, __arm_cp.8_2
.Ltmp70:
	.loc	4 337 14 is_stmt 0              @ ../../../Library/StdDriver/src/uart.c:337:14
	cmp	r0, r1
	bne	.LBB8_4
	b	.LBB8_3
.LBB8_3:
	.loc	4 0 14                          @ ../../../Library/StdDriver/src/uart.c:0:14
	ldr	r0, __arm_cp.8_3
.Ltmp71:
	.loc	4 340 34 is_stmt 1              @ ../../../Library/StdDriver/src/uart.c:340:34
	ldr	r0, [r0]
	movs	r1, #7
	lsls	r1, r1, #20
	.loc	4 340 42 is_stmt 0              @ ../../../Library/StdDriver/src/uart.c:340:42
	ands	r0, r1
	.loc	4 340 70                        @ ../../../Library/StdDriver/src/uart.c:340:70
	lsrs	r0, r0, #20
	.loc	4 340 26                        @ ../../../Library/StdDriver/src/uart.c:340:26
	str	r0, [sp, #28]
	ldr	r0, __arm_cp.8_4
	.loc	4 342 34 is_stmt 1              @ ../../../Library/StdDriver/src/uart.c:342:34
	ldr	r0, [r0]
	.loc	4 342 42 is_stmt 0              @ ../../../Library/StdDriver/src/uart.c:342:42
	uxth	r0, r0
	.loc	4 342 70                        @ ../../../Library/StdDriver/src/uart.c:342:70
	lsrs	r0, r0, #12
	.loc	4 342 26                        @ ../../../Library/StdDriver/src/uart.c:342:26
	str	r0, [sp, #24]
	.loc	4 343 5 is_stmt 1               @ ../../../Library/StdDriver/src/uart.c:343:5
	b	.LBB8_4
.Ltmp72:
.LBB8_4:
	.loc	4 0 5 is_stmt 0                 @ ../../../Library/StdDriver/src/uart.c:0:5
	b	.LBB8_5
.LBB8_5:
.Ltmp73:
	.loc	4 346 9 is_stmt 1               @ ../../../Library/StdDriver/src/uart.c:346:9
	ldr	r0, [sp, #28]
.Ltmp74:
	.loc	4 346 9 is_stmt 0               @ ../../../Library/StdDriver/src/uart.c:346:9
	cmp	r0, #4
	bne	.LBB8_10
	b	.LBB8_6
.LBB8_6:
.Ltmp75:
	.loc	4 348 13 is_stmt 1              @ ../../../Library/StdDriver/src/uart.c:348:13
	ldr	r0, [sp, #44]
	ldr	r1, __arm_cp.8_1
.Ltmp76:
	.loc	4 348 13 is_stmt 0              @ ../../../Library/StdDriver/src/uart.c:348:13
	cmp	r0, r1
	bne	.LBB8_8
	b	.LBB8_7
.LBB8_7:
.Ltmp77:
	.loc	4 350 44 is_stmt 1              @ ../../../Library/StdDriver/src/uart.c:350:44
	bl	CLK_GetPCLK0Freq
	.loc	4 350 23 is_stmt 0              @ ../../../Library/StdDriver/src/uart.c:350:23
	ldr	r1, [sp, #28]
	.loc	4 350 13                        @ ../../../Library/StdDriver/src/uart.c:350:13
	lsls	r2, r1, #2
	add	r1, sp, #4
	.loc	4 350 41                        @ ../../../Library/StdDriver/src/uart.c:350:41
	str	r0, [r1, r2]
	.loc	4 351 9 is_stmt 1               @ ../../../Library/StdDriver/src/uart.c:351:9
	b	.LBB8_9
.Ltmp78:
.LBB8_8:
	.loc	4 354 44                        @ ../../../Library/StdDriver/src/uart.c:354:44
	bl	CLK_GetPCLK1Freq
	.loc	4 354 23 is_stmt 0              @ ../../../Library/StdDriver/src/uart.c:354:23
	ldr	r1, [sp, #28]
	.loc	4 354 13                        @ ../../../Library/StdDriver/src/uart.c:354:13
	lsls	r2, r1, #2
	add	r1, sp, #4
	.loc	4 354 41                        @ ../../../Library/StdDriver/src/uart.c:354:41
	str	r0, [r1, r2]
	b	.LBB8_9
.Ltmp79:
.LBB8_9:
	.loc	4 356 5 is_stmt 1               @ ../../../Library/StdDriver/src/uart.c:356:5
	b	.LBB8_10
.Ltmp80:
.LBB8_10:
	.loc	4 359 8                         @ ../../../Library/StdDriver/src/uart.c:359:8
	ldr	r0, [sp, #40]
.Ltmp81:
	.loc	4 359 8 is_stmt 0               @ ../../../Library/StdDriver/src/uart.c:359:8
	cbz	r0, .LBB8_15
	b	.LBB8_11
.LBB8_11:
.Ltmp82:
	.loc	4 361 23 is_stmt 1              @ ../../../Library/StdDriver/src/uart.c:361:23
	ldr	r0, [sp, #28]
	lsls	r1, r0, #2
	add	r0, sp, #4
	ldr	r0, [r0, r1]
	ldr	r1, [sp, #24]
	adds	r1, r1, #1
	udiv	r0, r0, r1
	ldr	r1, [sp, #40]
	lsrs	r2, r1, #1
	adds	r0, r0, r2
	udiv	r0, r0, r1
	subs	r0, r0, #2
	.loc	4 361 21 is_stmt 0              @ ../../../Library/StdDriver/src/uart.c:361:21
	str	r0, [sp]
	mov	r0, sp
.Ltmp83:
	.loc	4 363 12 is_stmt 1              @ ../../../Library/StdDriver/src/uart.c:363:12
	ldrh	r0, [r0, #2]
.Ltmp84:
	.loc	4 363 12 is_stmt 0              @ ../../../Library/StdDriver/src/uart.c:363:12
	cbz	r0, .LBB8_13
	b	.LBB8_12
.LBB8_12:
.Ltmp85:
	.loc	4 365 45 is_stmt 1              @ ../../../Library/StdDriver/src/uart.c:365:45
	ldr	r0, [sp, #28]
	lsls	r1, r0, #2
	add	r0, sp, #4
	ldr	r0, [r0, r1]
	ldr	r1, [sp, #24]
	adds	r1, r1, #1
	udiv	r0, r0, r1
	ldr	r1, [sp, #40]
	lsls	r2, r1, #3
	adds	r0, r0, r2
	udiv	r0, r0, r1
	lsrs	r0, r0, #4
	subs	r0, r0, #2
	.loc	4 365 13 is_stmt 0              @ ../../../Library/StdDriver/src/uart.c:365:13
	ldr	r1, [sp, #44]
	.loc	4 365 24                        @ ../../../Library/StdDriver/src/uart.c:365:24
	str	r0, [r1, #36]
	.loc	4 366 9 is_stmt 1               @ ../../../Library/StdDriver/src/uart.c:366:9
	b	.LBB8_14
.Ltmp86:
.LBB8_13:
	.loc	4 369 45                        @ ../../../Library/StdDriver/src/uart.c:369:45
	ldr	r0, [sp]
	movs	r1, #3
	lsls	r1, r1, #28
	.loc	4 369 43 is_stmt 0              @ ../../../Library/StdDriver/src/uart.c:369:43
	orrs	r0, r1
	.loc	4 369 13                        @ ../../../Library/StdDriver/src/uart.c:369:13
	ldr	r1, [sp, #44]
	.loc	4 369 24                        @ ../../../Library/StdDriver/src/uart.c:369:24
	str	r0, [r1, #36]
	b	.LBB8_14
.Ltmp87:
.LBB8_14:
	.loc	4 371 5 is_stmt 1               @ ../../../Library/StdDriver/src/uart.c:371:5
	b	.LBB8_15
.Ltmp88:
.LBB8_15:
	.loc	4 374 18                        @ ../../../Library/StdDriver/src/uart.c:374:18
	ldr	r0, [sp, #36]
	.loc	4 374 34 is_stmt 0              @ ../../../Library/StdDriver/src/uart.c:374:34
	ldr	r1, [sp, #32]
	.loc	4 374 32                        @ ../../../Library/StdDriver/src/uart.c:374:32
	orrs	r0, r1
	.loc	4 374 46                        @ ../../../Library/StdDriver/src/uart.c:374:46
	ldr	r1, [sp, #64]
	.loc	4 374 44                        @ ../../../Library/StdDriver/src/uart.c:374:44
	orrs	r0, r1
	.loc	4 374 5                         @ ../../../Library/StdDriver/src/uart.c:374:5
	ldr	r1, [sp, #44]
	.loc	4 374 16                        @ ../../../Library/StdDriver/src/uart.c:374:16
	str	r0, [r1, #12]
	.loc	4 375 1 epilogue_begin is_stmt 1 @ ../../../Library/StdDriver/src/uart.c:375:1
	add	sp, #48
	pop	{r4, r5, r7, pc}
.Ltmp89:
	.p2align	2
@ %bb.16:
	.loc	4 0 1 is_stmt 0                 @ ../../../Library/StdDriver/src/uart.c:0:1
__arm_cp.8_0:
	.long	.L__const.UART_SetLine_Config.u32ClkTbl
.Lcpi_end7:
	.size	__arm_cp.8_0, .Lcpi_end7-__arm_cp.8_0
__arm_cp.8_1:
	.long	1074200576                      @ 0x40070000
.Lcpi_end8:
	.size	__arm_cp.8_1, .Lcpi_end8-__arm_cp.8_1
__arm_cp.8_2:
	.long	1074204672                      @ 0x40071000
.Lcpi_end9:
	.size	__arm_cp.8_2, .Lcpi_end9-__arm_cp.8_2
__arm_cp.8_3:
	.long	1073742360                      @ 0x40000218
.Lcpi_end10:
	.size	__arm_cp.8_3, .Lcpi_end10-__arm_cp.8_3
__arm_cp.8_4:
	.long	1073742368                      @ 0x40000220
.Lcpi_end11:
	.size	__arm_cp.8_4, .Lcpi_end11-__arm_cp.8_4
.Lfunc_end8:
	.size	UART_SetLine_Config, .Lfunc_end8-UART_SetLine_Config
	.cfi_endproc
	.cantunwind
	.fnend
                                        @ -- End function
	.section	.text.UART_SetTimeoutCnt,"ax",%progbits
	.hidden	UART_SetTimeoutCnt              @ -- Begin function UART_SetTimeoutCnt
	.globl	UART_SetTimeoutCnt
	.p2align	1
	.type	UART_SetTimeoutCnt,%function
	.code	16                              @ @UART_SetTimeoutCnt
	.thumb_func
UART_SetTimeoutCnt:
.Lfunc_begin9:
	.loc	4 389 0 is_stmt 1               @ ../../../Library/StdDriver/src/uart.c:389:0
	.fnstart
	.cfi_startproc
@ %bb.0:
	.pad	#8
	sub	sp, #8
	.cfi_def_cfa_offset 8
	str	r0, [sp, #4]
	str	r1, [sp]
.Ltmp90:
	.loc	4 391 19 prologue_end           @ ../../../Library/StdDriver/src/uart.c:391:19
	ldr	r0, [sp, #4]
	.loc	4 391 25 is_stmt 0              @ ../../../Library/StdDriver/src/uart.c:391:25
	ldr	r0, [r0, #32]
	movs	r1, #255
	.loc	4 391 30                        @ ../../../Library/StdDriver/src/uart.c:391:30
	bics	r0, r1
	.loc	4 391 56                        @ ../../../Library/StdDriver/src/uart.c:391:56
	ldr	r1, [sp]
	.loc	4 391 53                        @ ../../../Library/StdDriver/src/uart.c:391:53
	orrs	r0, r1
	.loc	4 391 5                         @ ../../../Library/StdDriver/src/uart.c:391:5
	ldr	r1, [sp, #4]
	.loc	4 391 16                        @ ../../../Library/StdDriver/src/uart.c:391:16
	str	r0, [r1, #32]
	.loc	4 394 5 is_stmt 1               @ ../../../Library/StdDriver/src/uart.c:394:5
	ldr	r1, [sp, #4]
	.loc	4 394 17 is_stmt 0              @ ../../../Library/StdDriver/src/uart.c:394:17
	ldr	r0, [r1, #4]
	movw	r2, #2048
	orrs	r0, r2
	str	r0, [r1, #4]
	.loc	4 395 1 epilogue_begin is_stmt 1 @ ../../../Library/StdDriver/src/uart.c:395:1
	add	sp, #8
	bx	lr
.Ltmp91:
.Lfunc_end9:
	.size	UART_SetTimeoutCnt, .Lfunc_end9-UART_SetTimeoutCnt
	.cfi_endproc
	.cantunwind
	.fnend
                                        @ -- End function
	.section	.text.UART_SelectIrDAMode,"ax",%progbits
	.hidden	UART_SelectIrDAMode             @ -- Begin function UART_SelectIrDAMode
	.globl	UART_SelectIrDAMode
	.p2align	2
	.type	UART_SelectIrDAMode,%function
	.code	16                              @ @UART_SelectIrDAMode
	.thumb_func
UART_SelectIrDAMode:
.Lfunc_begin10:
	.loc	4 412 0                         @ ../../../Library/StdDriver/src/uart.c:412:0
	.fnstart
	.cfi_startproc
@ %bb.0:
	.save	{r4, lr}
	push	{r4, lr}
	.cfi_def_cfa_offset 8
	.cfi_offset lr, -4
	.cfi_offset r4, -8
	.pad	#48
	sub	sp, #48
	.cfi_def_cfa_offset 56
	str	r0, [sp, #44]
	str	r1, [sp, #40]
	str	r2, [sp, #36]
	movs	r0, #0
.Ltmp92:
	.loc	4 413 14 prologue_end           @ ../../../Library/StdDriver/src/uart.c:413:14
	str	r0, [sp, #32]
	movs	r0, #1
	.loc	4 413 38 is_stmt 0              @ ../../../Library/StdDriver/src/uart.c:413:38
	str	r0, [sp, #28]
	.loc	4 414 14 is_stmt 1              @ ../../../Library/StdDriver/src/uart.c:414:14
	ldr	r1, __arm_cp.10_0
	add	r0, sp, #8
	ldm	r1!, {r2, r3}
	stm	r0!, {r2, r3}
	ldm	r1!, {r2, r3, r4}
	stm	r0!, {r2, r3, r4}
	.loc	4 418 5                         @ ../../../Library/StdDriver/src/uart.c:418:5
	ldr	r1, [sp, #44]
	movs	r0, #2
	.loc	4 418 19 is_stmt 0              @ ../../../Library/StdDriver/src/uart.c:418:19
	str	r0, [r1, #48]
.Ltmp93:
	.loc	4 421 9 is_stmt 1               @ ../../../Library/StdDriver/src/uart.c:421:9
	ldr	r0, [sp, #44]
	ldr	r1, __arm_cp.10_1
.Ltmp94:
	.loc	4 421 9 is_stmt 0               @ ../../../Library/StdDriver/src/uart.c:421:9
	cmp	r0, r1
	bne	.LBB10_2
	b	.LBB10_1
.LBB10_1:
	.loc	4 0 9                           @ ../../../Library/StdDriver/src/uart.c:0:9
	ldr	r0, __arm_cp.10_3
.Ltmp95:
	.loc	4 424 34 is_stmt 1              @ ../../../Library/StdDriver/src/uart.c:424:34
	ldr	r0, [r0]
	movs	r1, #7
	lsls	r1, r1, #16
	.loc	4 424 42 is_stmt 0              @ ../../../Library/StdDriver/src/uart.c:424:42
	ands	r0, r1
	.loc	4 424 70                        @ ../../../Library/StdDriver/src/uart.c:424:70
	lsrs	r0, r0, #16
	.loc	4 424 26                        @ ../../../Library/StdDriver/src/uart.c:424:26
	str	r0, [sp, #32]
	ldr	r0, __arm_cp.10_4
	.loc	4 426 34 is_stmt 1              @ ../../../Library/StdDriver/src/uart.c:426:34
	ldr	r0, [r0]
	movw	r1, #3840
	.loc	4 426 42 is_stmt 0              @ ../../../Library/StdDriver/src/uart.c:426:42
	ands	r0, r1
	.loc	4 426 70                        @ ../../../Library/StdDriver/src/uart.c:426:70
	lsrs	r0, r0, #8
	.loc	4 426 26                        @ ../../../Library/StdDriver/src/uart.c:426:26
	str	r0, [sp, #28]
	.loc	4 427 5 is_stmt 1               @ ../../../Library/StdDriver/src/uart.c:427:5
	b	.LBB10_5
.Ltmp96:
.LBB10_2:
	.loc	4 428 14                        @ ../../../Library/StdDriver/src/uart.c:428:14
	ldr	r0, [sp, #44]
	ldr	r1, __arm_cp.10_2
.Ltmp97:
	.loc	4 428 14 is_stmt 0              @ ../../../Library/StdDriver/src/uart.c:428:14
	cmp	r0, r1
	bne	.LBB10_4
	b	.LBB10_3
.LBB10_3:
	.loc	4 0 14                          @ ../../../Library/StdDriver/src/uart.c:0:14
	ldr	r0, __arm_cp.10_3
.Ltmp98:
	.loc	4 431 34 is_stmt 1              @ ../../../Library/StdDriver/src/uart.c:431:34
	ldr	r0, [r0]
	movs	r1, #7
	lsls	r1, r1, #20
	.loc	4 431 42 is_stmt 0              @ ../../../Library/StdDriver/src/uart.c:431:42
	ands	r0, r1
	.loc	4 431 70                        @ ../../../Library/StdDriver/src/uart.c:431:70
	lsrs	r0, r0, #20
	.loc	4 431 26                        @ ../../../Library/StdDriver/src/uart.c:431:26
	str	r0, [sp, #32]
	ldr	r0, __arm_cp.10_4
	.loc	4 433 34 is_stmt 1              @ ../../../Library/StdDriver/src/uart.c:433:34
	ldr	r0, [r0]
	.loc	4 433 42 is_stmt 0              @ ../../../Library/StdDriver/src/uart.c:433:42
	uxth	r0, r0
	.loc	4 433 70                        @ ../../../Library/StdDriver/src/uart.c:433:70
	lsrs	r0, r0, #12
	.loc	4 433 26                        @ ../../../Library/StdDriver/src/uart.c:433:26
	str	r0, [sp, #28]
	.loc	4 434 5 is_stmt 1               @ ../../../Library/StdDriver/src/uart.c:434:5
	b	.LBB10_4
.Ltmp99:
.LBB10_4:
	.loc	4 0 5 is_stmt 0                 @ ../../../Library/StdDriver/src/uart.c:0:5
	b	.LBB10_5
.LBB10_5:
.Ltmp100:
	.loc	4 437 9 is_stmt 1               @ ../../../Library/StdDriver/src/uart.c:437:9
	ldr	r0, [sp, #32]
.Ltmp101:
	.loc	4 437 9 is_stmt 0               @ ../../../Library/StdDriver/src/uart.c:437:9
	cmp	r0, #4
	bne	.LBB10_10
	b	.LBB10_6
.LBB10_6:
.Ltmp102:
	.loc	4 439 13 is_stmt 1              @ ../../../Library/StdDriver/src/uart.c:439:13
	ldr	r0, [sp, #44]
	ldr	r1, __arm_cp.10_1
.Ltmp103:
	.loc	4 439 13 is_stmt 0              @ ../../../Library/StdDriver/src/uart.c:439:13
	cmp	r0, r1
	bne	.LBB10_8
	b	.LBB10_7
.LBB10_7:
.Ltmp104:
	.loc	4 441 44 is_stmt 1              @ ../../../Library/StdDriver/src/uart.c:441:44
	bl	CLK_GetPCLK0Freq
	.loc	4 441 23 is_stmt 0              @ ../../../Library/StdDriver/src/uart.c:441:23
	ldr	r1, [sp, #32]
	.loc	4 441 13                        @ ../../../Library/StdDriver/src/uart.c:441:13
	lsls	r2, r1, #2
	add	r1, sp, #8
	.loc	4 441 41                        @ ../../../Library/StdDriver/src/uart.c:441:41
	str	r0, [r1, r2]
	.loc	4 442 9 is_stmt 1               @ ../../../Library/StdDriver/src/uart.c:442:9
	b	.LBB10_9
.Ltmp105:
.LBB10_8:
	.loc	4 445 44                        @ ../../../Library/StdDriver/src/uart.c:445:44
	bl	CLK_GetPCLK1Freq
	.loc	4 445 23 is_stmt 0              @ ../../../Library/StdDriver/src/uart.c:445:23
	ldr	r1, [sp, #32]
	.loc	4 445 13                        @ ../../../Library/StdDriver/src/uart.c:445:13
	lsls	r2, r1, #2
	add	r1, sp, #8
	.loc	4 445 41                        @ ../../../Library/StdDriver/src/uart.c:445:41
	str	r0, [r1, r2]
	b	.LBB10_9
.Ltmp106:
.LBB10_9:
	.loc	4 447 5 is_stmt 1               @ ../../../Library/StdDriver/src/uart.c:447:5
	b	.LBB10_10
.Ltmp107:
.LBB10_10:
	.loc	4 450 8                         @ ../../../Library/StdDriver/src/uart.c:450:8
	ldr	r0, [sp, #40]
.Ltmp108:
	.loc	4 450 8 is_stmt 0               @ ../../../Library/StdDriver/src/uart.c:450:8
	cbz	r0, .LBB10_14
	b	.LBB10_11
.LBB10_11:
.Ltmp109:
	.loc	4 452 22 is_stmt 1              @ ../../../Library/StdDriver/src/uart.c:452:22
	ldr	r0, [sp, #32]
	lsls	r1, r0, #2
	add	r0, sp, #8
	ldr	r0, [r0, r1]
	ldr	r1, [sp, #28]
	adds	r1, r1, #1
	udiv	r0, r0, r1
	ldr	r1, [sp, #40]
	lsls	r2, r1, #3
	adds	r0, r0, r2
	udiv	r0, r0, r1
	lsrs	r0, r0, #4
	subs	r0, r0, #2
	.loc	4 452 20 is_stmt 0              @ ../../../Library/StdDriver/src/uart.c:452:20
	str	r0, [sp, #4]
.Ltmp110:
	.loc	4 454 12 is_stmt 1              @ ../../../Library/StdDriver/src/uart.c:454:12
	ldr	r0, [sp, #4]
	ldr	r1, __arm_cp.10_5
.Ltmp111:
	.loc	4 454 12 is_stmt 0              @ ../../../Library/StdDriver/src/uart.c:454:12
	cmp	r0, r1
	bhi	.LBB10_13
	b	.LBB10_12
.LBB10_12:
.Ltmp112:
	.loc	4 456 45 is_stmt 1              @ ../../../Library/StdDriver/src/uart.c:456:45
	ldr	r0, [sp, #4]
	.loc	4 456 13 is_stmt 0              @ ../../../Library/StdDriver/src/uart.c:456:13
	ldr	r1, [sp, #44]
	.loc	4 456 24                        @ ../../../Library/StdDriver/src/uart.c:456:24
	str	r0, [r1, #36]
	.loc	4 457 9 is_stmt 1               @ ../../../Library/StdDriver/src/uart.c:457:9
	b	.LBB10_13
.Ltmp113:
.LBB10_13:
	.loc	4 458 5                         @ ../../../Library/StdDriver/src/uart.c:458:5
	b	.LBB10_14
.Ltmp114:
.LBB10_14:
	.loc	4 461 8                         @ ../../../Library/StdDriver/src/uart.c:461:8
	ldr	r0, [sp, #36]
.Ltmp115:
	.loc	4 461 8 is_stmt 0               @ ../../../Library/StdDriver/src/uart.c:461:8
	cbnz	r0, .LBB10_16
	b	.LBB10_15
.LBB10_15:
.Ltmp116:
	.loc	4 463 9 is_stmt 1               @ ../../../Library/StdDriver/src/uart.c:463:9
	ldr	r1, [sp, #44]
	.loc	4 463 20 is_stmt 0              @ ../../../Library/StdDriver/src/uart.c:463:20
	ldr	r0, [r1, #40]
	movs	r2, #64
	orrs	r0, r2
	str	r0, [r1, #40]
	.loc	4 464 9 is_stmt 1               @ ../../../Library/StdDriver/src/uart.c:464:9
	ldr	r1, [sp, #44]
	.loc	4 464 20 is_stmt 0              @ ../../../Library/StdDriver/src/uart.c:464:20
	ldr	r0, [r1, #40]
	movs	r2, #2
	bics	r0, r2
	str	r0, [r1, #40]
	.loc	4 465 5 is_stmt 1               @ ../../../Library/StdDriver/src/uart.c:465:5
	b	.LBB10_17
.Ltmp117:
.LBB10_16:
	.loc	4 468 9                         @ ../../../Library/StdDriver/src/uart.c:468:9
	ldr	r1, [sp, #44]
	.loc	4 468 20 is_stmt 0              @ ../../../Library/StdDriver/src/uart.c:468:20
	ldr	r0, [r1, #40]
	movs	r2, #32
	bics	r0, r2
	str	r0, [r1, #40]
	.loc	4 469 9 is_stmt 1               @ ../../../Library/StdDriver/src/uart.c:469:9
	ldr	r1, [sp, #44]
	.loc	4 469 20 is_stmt 0              @ ../../../Library/StdDriver/src/uart.c:469:20
	ldr	r0, [r1, #40]
	movs	r2, #2
	orrs	r0, r2
	str	r0, [r1, #40]
	b	.LBB10_17
.Ltmp118:
.LBB10_17:
	.loc	4 472 1 epilogue_begin is_stmt 1 @ ../../../Library/StdDriver/src/uart.c:472:1
	add	sp, #48
	pop	{r4, pc}
.Ltmp119:
	.p2align	2
@ %bb.18:
	.loc	4 0 1 is_stmt 0                 @ ../../../Library/StdDriver/src/uart.c:0:1
__arm_cp.10_0:
	.long	.L__const.UART_SelectIrDAMode.u32ClkTbl
.Lcpi_end12:
	.size	__arm_cp.10_0, .Lcpi_end12-__arm_cp.10_0
__arm_cp.10_1:
	.long	1074200576                      @ 0x40070000
.Lcpi_end13:
	.size	__arm_cp.10_1, .Lcpi_end13-__arm_cp.10_1
__arm_cp.10_2:
	.long	1074204672                      @ 0x40071000
.Lcpi_end14:
	.size	__arm_cp.10_2, .Lcpi_end14-__arm_cp.10_2
__arm_cp.10_3:
	.long	1073742360                      @ 0x40000218
.Lcpi_end15:
	.size	__arm_cp.10_3, .Lcpi_end15-__arm_cp.10_3
__arm_cp.10_4:
	.long	1073742368                      @ 0x40000220
.Lcpi_end16:
	.size	__arm_cp.10_4, .Lcpi_end16-__arm_cp.10_4
__arm_cp.10_5:
	.long	65534                           @ 0xfffe
.Lcpi_end17:
	.size	__arm_cp.10_5, .Lcpi_end17-__arm_cp.10_5
.Lfunc_end10:
	.size	UART_SelectIrDAMode, .Lfunc_end10-UART_SelectIrDAMode
	.cfi_endproc
	.cantunwind
	.fnend
                                        @ -- End function
	.section	.text.UART_SelectRS485Mode,"ax",%progbits
	.hidden	UART_SelectRS485Mode            @ -- Begin function UART_SelectRS485Mode
	.globl	UART_SelectRS485Mode
	.p2align	2
	.type	UART_SelectRS485Mode,%function
	.code	16                              @ @UART_SelectRS485Mode
	.thumb_func
UART_SelectRS485Mode:
.Lfunc_begin11:
	.loc	4 490 0 is_stmt 1               @ ../../../Library/StdDriver/src/uart.c:490:0
	.fnstart
	.cfi_startproc
@ %bb.0:
	.pad	#12
	sub	sp, #12
	.cfi_def_cfa_offset 12
	str	r0, [sp, #8]
	str	r1, [sp, #4]
	str	r2, [sp]
.Ltmp120:
	.loc	4 492 5 prologue_end            @ ../../../Library/StdDriver/src/uart.c:492:5
	ldr	r1, [sp, #8]
	movs	r0, #3
	.loc	4 492 19 is_stmt 0              @ ../../../Library/StdDriver/src/uart.c:492:19
	str	r0, [r1, #48]
	.loc	4 495 5 is_stmt 1               @ ../../../Library/StdDriver/src/uart.c:495:5
	ldr	r1, [sp, #8]
	.loc	4 495 18 is_stmt 0              @ ../../../Library/StdDriver/src/uart.c:495:18
	ldr	r0, [r1, #44]
	ldr	r2, __arm_cp.11_0
	ands	r0, r2
	str	r0, [r1, #44]
	.loc	4 496 22 is_stmt 1              @ ../../../Library/StdDriver/src/uart.c:496:22
	ldr	r2, [sp, #4]
	.loc	4 496 33 is_stmt 0              @ ../../../Library/StdDriver/src/uart.c:496:33
	ldr	r0, [sp]
	.loc	4 496 41                        @ ../../../Library/StdDriver/src/uart.c:496:41
	lsls	r0, r0, #24
	.loc	4 496 30                        @ ../../../Library/StdDriver/src/uart.c:496:30
	orrs	r2, r0
	.loc	4 496 5                         @ ../../../Library/StdDriver/src/uart.c:496:5
	ldr	r1, [sp, #8]
	.loc	4 496 18                        @ ../../../Library/StdDriver/src/uart.c:496:18
	ldr	r0, [r1, #44]
	orrs	r0, r2
	str	r0, [r1, #44]
	.loc	4 497 1 epilogue_begin is_stmt 1 @ ../../../Library/StdDriver/src/uart.c:497:1
	add	sp, #12
	bx	lr
.Ltmp121:
	.p2align	2
@ %bb.1:
	.loc	4 0 1 is_stmt 0                 @ ../../../Library/StdDriver/src/uart.c:0:1
__arm_cp.11_0:
	.long	16775423                        @ 0xfff8ff
.Lcpi_end18:
	.size	__arm_cp.11_0, .Lcpi_end18-__arm_cp.11_0
.Lfunc_end11:
	.size	UART_SelectRS485Mode, .Lfunc_end11-UART_SelectRS485Mode
	.cfi_endproc
	.cantunwind
	.fnend
                                        @ -- End function
	.section	.text.UART_Write,"ax",%progbits
	.hidden	UART_Write                      @ -- Begin function UART_Write
	.globl	UART_Write
	.p2align	1
	.type	UART_Write,%function
	.code	16                              @ @UART_Write
	.thumb_func
UART_Write:
.Lfunc_begin12:
	.loc	4 513 0 is_stmt 1               @ ../../../Library/StdDriver/src/uart.c:513:0
	.fnstart
	.cfi_startproc
@ %bb.0:
	.pad	#24
	sub	sp, #24
	.cfi_def_cfa_offset 24
	str	r0, [sp, #20]
	str	r1, [sp, #16]
	str	r2, [sp, #12]
	movs	r0, #0
.Ltmp122:
	.loc	4 515 15 prologue_end           @ ../../../Library/StdDriver/src/uart.c:515:15
	str	r0, [sp]
.Ltmp123:
	.loc	4 517 18                        @ ../../../Library/StdDriver/src/uart.c:517:18
	str	r0, [sp, #8]
	.loc	4 517 9 is_stmt 0               @ ../../../Library/StdDriver/src/uart.c:517:9
	b	.LBB12_1
.LBB12_1:                               @ =>This Loop Header: Depth=1
                                        @     Child Loop BB12_3 Depth 2
.Ltmp124:
	.loc	4 517 25                        @ ../../../Library/StdDriver/src/uart.c:517:25
	ldr	r0, [sp, #8]
	.loc	4 517 37                        @ ../../../Library/StdDriver/src/uart.c:517:37
	ldr	r1, [sp, #12]
.Ltmp125:
	.loc	4 517 5                         @ ../../../Library/StdDriver/src/uart.c:517:5
	cmp	r0, r1
	beq	.LBB12_13
	b	.LBB12_2
.LBB12_2:                               @   in Loop: Header=BB12_1 Depth=1
	.loc	4 0 5                           @ ../../../Library/StdDriver/src/uart.c:0:5
	movs	r0, #0
.Ltmp126:
	.loc	4 519 20 is_stmt 1              @ ../../../Library/StdDriver/src/uart.c:519:20
	str	r0, [sp, #4]
	.loc	4 520 9                         @ ../../../Library/StdDriver/src/uart.c:520:9
	b	.LBB12_3
.LBB12_3:                               @   Parent Loop BB12_1 Depth=1
                                        @ =>  This Inner Loop Header: Depth=2
	.loc	4 520 16 is_stmt 0              @ ../../../Library/StdDriver/src/uart.c:520:16
	ldr	r0, [sp, #20]
	.loc	4 520 22                        @ ../../../Library/StdDriver/src/uart.c:520:22
	ldr	r0, [r0, #24]
	.loc	4 520 9                         @ ../../../Library/StdDriver/src/uart.c:520:9
	lsls	r0, r0, #8
	cmp	r0, #0
	bpl	.LBB12_8
	b	.LBB12_4
.LBB12_4:                               @   in Loop: Header=BB12_3 Depth=2
.Ltmp127:
	.loc	4 522 23 is_stmt 1              @ ../../../Library/StdDriver/src/uart.c:522:23
	ldr	r0, [sp, #4]
	adds	r0, r0, #1
	str	r0, [sp, #4]
.Ltmp128:
	.loc	4 523 16                        @ ../../../Library/StdDriver/src/uart.c:523:16
	ldr	r0, [sp, #4]
.Ltmp129:
	.loc	4 523 16 is_stmt 0              @ ../../../Library/StdDriver/src/uart.c:523:16
	lsrs	r0, r0, #30
	cbz	r0, .LBB12_6
	b	.LBB12_5
.LBB12_5:                               @   in Loop: Header=BB12_1 Depth=1
	.loc	4 0 16                          @ ../../../Library/StdDriver/src/uart.c:0:16
	movs	r0, #1
.Ltmp130:
	.loc	4 525 25 is_stmt 1              @ ../../../Library/StdDriver/src/uart.c:525:25
	str	r0, [sp]
	.loc	4 526 17                        @ ../../../Library/StdDriver/src/uart.c:526:17
	b	.LBB12_8
.Ltmp131:
.LBB12_6:                               @   in Loop: Header=BB12_3 Depth=2
	.loc	4 0 17 is_stmt 0                @ ../../../Library/StdDriver/src/uart.c:0:17
	b	.LBB12_7
.LBB12_7:                               @   in Loop: Header=BB12_3 Depth=2
	.loc	4 520 9 is_stmt 1               @ ../../../Library/StdDriver/src/uart.c:520:9
	b	.LBB12_3
.LBB12_8:                               @   in Loop: Header=BB12_1 Depth=1
.Ltmp132:
	.loc	4 533 12                        @ ../../../Library/StdDriver/src/uart.c:533:12
	ldr	r0, [sp]
.Ltmp133:
	.loc	4 533 12 is_stmt 0              @ ../../../Library/StdDriver/src/uart.c:533:12
	cmp	r0, #1
	bne	.LBB12_10
	b	.LBB12_9
.LBB12_9:
.Ltmp134:
	.loc	4 535 13 is_stmt 1              @ ../../../Library/StdDriver/src/uart.c:535:13
	b	.LBB12_13
.Ltmp135:
.LBB12_10:                              @   in Loop: Header=BB12_1 Depth=1
	.loc	4 539 25                        @ ../../../Library/StdDriver/src/uart.c:539:25
	ldr	r0, [sp, #16]
	.loc	4 539 34 is_stmt 0              @ ../../../Library/StdDriver/src/uart.c:539:34
	ldr	r1, [sp, #8]
	.loc	4 539 25                        @ ../../../Library/StdDriver/src/uart.c:539:25
	ldrb	r0, [r0, r1]
	.loc	4 539 13                        @ ../../../Library/StdDriver/src/uart.c:539:13
	ldr	r1, [sp, #20]
	.loc	4 539 23                        @ ../../../Library/StdDriver/src/uart.c:539:23
	str	r0, [r1]
	b	.LBB12_11
.Ltmp136:
.LBB12_11:                              @   in Loop: Header=BB12_1 Depth=1
	.loc	4 541 5 is_stmt 1               @ ../../../Library/StdDriver/src/uart.c:541:5
	b	.LBB12_12
.Ltmp137:
.LBB12_12:                              @   in Loop: Header=BB12_1 Depth=1
	.loc	4 517 60                        @ ../../../Library/StdDriver/src/uart.c:517:60
	ldr	r0, [sp, #8]
	adds	r0, r0, #1
	str	r0, [sp, #8]
	.loc	4 517 5 is_stmt 0               @ ../../../Library/StdDriver/src/uart.c:517:5
	b	.LBB12_1
.Ltmp138:
.LBB12_13:
	.loc	4 543 12 is_stmt 1              @ ../../../Library/StdDriver/src/uart.c:543:12
	ldr	r0, [sp, #8]
	.loc	4 543 5 epilogue_begin is_stmt 0 @ ../../../Library/StdDriver/src/uart.c:543:5
	add	sp, #24
	bx	lr
.Ltmp139:
.Lfunc_end12:
	.size	UART_Write, .Lfunc_end12-UART_Write
	.cfi_endproc
	.cantunwind
	.fnend
                                        @ -- End function
	.section	.text.UART_SelectSingleWireMode,"ax",%progbits
	.hidden	UART_SelectSingleWireMode       @ -- Begin function UART_SelectSingleWireMode
	.globl	UART_SelectSingleWireMode
	.p2align	1
	.type	UART_SelectSingleWireMode,%function
	.code	16                              @ @UART_SelectSingleWireMode
	.thumb_func
UART_SelectSingleWireMode:
.Lfunc_begin13:
	.loc	4 556 0 is_stmt 1               @ ../../../Library/StdDriver/src/uart.c:556:0
	.fnstart
	.cfi_startproc
@ %bb.0:
	.pad	#4
	sub	sp, #4
	.cfi_def_cfa_offset 4
	str	r0, [sp]
.Ltmp140:
	.loc	4 558 23 prologue_end           @ ../../../Library/StdDriver/src/uart.c:558:23
	ldr	r0, [sp]
	.loc	4 558 29 is_stmt 0              @ ../../../Library/StdDriver/src/uart.c:558:29
	ldr	r0, [r0, #48]
	movs	r1, #4
	.loc	4 558 37                        @ ../../../Library/StdDriver/src/uart.c:558:37
	orrs	r0, r1
	movs	r1, #3
	.loc	4 558 68                        @ ../../../Library/StdDriver/src/uart.c:558:68
	bics	r0, r1
	.loc	4 558 5                         @ ../../../Library/StdDriver/src/uart.c:558:5
	ldr	r1, [sp]
	.loc	4 558 19                        @ ../../../Library/StdDriver/src/uart.c:558:19
	str	r0, [r1, #48]
	.loc	4 559 1 epilogue_begin is_stmt 1 @ ../../../Library/StdDriver/src/uart.c:559:1
	add	sp, #4
	bx	lr
.Ltmp141:
.Lfunc_end13:
	.size	UART_SelectSingleWireMode, .Lfunc_end13-UART_SelectSingleWireMode
	.cfi_endproc
	.cantunwind
	.fnend
                                        @ -- End function
	.type	.L__const.UART_Open.u32ClkTbl,%object @ @__const.UART_Open.u32ClkTbl
	.section	.rodata..L__const.UART_Open.u32ClkTbl,"a",%progbits
	.p2align	2, 0x0
.L__const.UART_Open.u32ClkTbl:
	.long	0                               @ 0x0
	.long	0                               @ 0x0
	.long	0                               @ 0x0
	.long	24000000                        @ 0x16e3600
	.long	0                               @ 0x0
	.size	.L__const.UART_Open.u32ClkTbl, 20

	.type	.L__const.UART_SetLine_Config.u32ClkTbl,%object @ @__const.UART_SetLine_Config.u32ClkTbl
	.section	.rodata..L__const.UART_SetLine_Config.u32ClkTbl,"a",%progbits
	.p2align	2, 0x0
.L__const.UART_SetLine_Config.u32ClkTbl:
	.long	0                               @ 0x0
	.long	0                               @ 0x0
	.long	0                               @ 0x0
	.long	24000000                        @ 0x16e3600
	.long	0                               @ 0x0
	.size	.L__const.UART_SetLine_Config.u32ClkTbl, 20

	.type	.L__const.UART_SelectIrDAMode.u32ClkTbl,%object @ @__const.UART_SelectIrDAMode.u32ClkTbl
	.section	.rodata..L__const.UART_SelectIrDAMode.u32ClkTbl,"a",%progbits
	.p2align	2, 0x0
.L__const.UART_SelectIrDAMode.u32ClkTbl:
	.long	0                               @ 0x0
	.long	0                               @ 0x0
	.long	0                               @ 0x0
	.long	24000000                        @ 0x16e3600
	.long	0                               @ 0x0
	.size	.L__const.UART_SelectIrDAMode.u32ClkTbl, 20

	.section	".note.GNU-stack","",%progbits
	.eabi_attribute	30, 6	@ Tag_ABI_optimization_goals
	.ARM_attribute	16, 1	@ Tag_AV_eba